EXPORTS 
	??_R0?AV?$_Iosb@H@std@@@8 	 DATA
	??_R0?AV?$_Ref_count@VLine@@@std@@@8 	 DATA
	??_R0?AV?$_Ref_count_obj@VBB@@@std@@@8 	 DATA
	??_R0?AV?$basic_filebuf@DU?$char_traits@D@std@@@std@@@8 	 DATA
	??_R0?AV?$basic_ios@DU?$char_traits@D@std@@@std@@@8 	 DATA
	??_R0?AV?$basic_ofstream@DU?$char_traits@D@std@@@std@@@8 	 DATA
	??_R0?AV?$basic_ostream@DU?$char_traits@D@std@@@std@@@8 	 DATA
	??_R0?AV?$basic_streambuf@DU?$char_traits@D@std@@@std@@@8 	 DATA
	??_R0?AVLine@@@8 	 DATA
	??_R0?AVObj@@@8 	 DATA
	??_R0?AV_Ref_count_base@std@@@8 	 DATA
	??_R0?AVbad_cast@std@@@8 	 DATA
	??_R0?AVexception@std@@@8 	 DATA
	??_R0?AVios_base@std@@@8 	 DATA
	??_R0?AVvtkAlgorithm@@@8 	 DATA
	??_R0?AVvtkObject@@@8 	 DATA
	??_R0?AVvtkObjectBase@@@8 	 DATA
	??_R0?AVvtkPolyDataAlgorithm@@@8 	 DATA
	??_R0?AVvtkPolyDataBooleanFilter@@@8 	 DATA
	??_R0?AVvtkPolyDataContactFilter@@@8 	 DATA
	?_Psave@?$_Facetptr@V?$codecvt@DDU_Mbstatet@@@std@@@std@@2PEBVfacet@locale@2@EB 	 DATA
	?_Stinit@?1??_Init@?$basic_filebuf@DU?$char_traits@D@std@@@std@@IEAAXPEAU_iobuf@@W4_Initfl@23@@Z@4U_Mbstatet@@A 	 DATA
	?__LINE__Var@?0??DecPolys_@vtkPolyDataBooleanFilter@@AEAAXPEAVvtkPolyData@@AEAV?$set@HU?$less@H@std@@V?$allocator@H@2@@std@@AEAV?$map@HW4Rel@@U?$less@H@std@@V?$allocator@U?$pair@$$CBHW4Rel@@@std@@@3@@5@@Z@4JA 	 DATA
	?__LINE__Var@?0??GetEdgePolys@@YA?AVPolyPair@@PEAVvtkPolyData@@PEAVvtkIdList@@1@Z@4JA 	 DATA
	?__LINE__Var@?0??GetPolyStrips@vtkPolyDataBooleanFilter@@AEAA_NPEAVvtkPolyData@@PEAVvtkIntArray@@1AEAV?$map@HVPStrips@@U?$less@H@std@@V?$allocator@U?$pair@$$CBHVPStrips@@@std@@@3@@std@@@Z@4JA 	 DATA
	?__LINE__Var@?0??MergePoints@vtkPolyDataBooleanFilter@@AEAAXPEAVvtkPolyData@@AEAV?$map@HVPStrips@@U?$less@H@std@@V?$allocator@U?$pair@$$CBHVPStrips@@@std@@@3@@std@@@Z@4JA 	 DATA
	?__LINE__Var@?0??ProcessRequest@vtkPolyDataBooleanFilter@@MEAAHPEAVvtkInformation@@PEAPEAVvtkInformationVector@@PEAV4@@Z@4JA 	 DATA
	?__LINE__Var@?0??ProcessRequest@vtkPolyDataContactFilter@@MEAAHPEAVvtkInformation@@PEAPEAVvtkInformationVector@@PEAV4@@Z@4JA 	 DATA
	?__LINE__Var@?0??_Adjust_manually_vector_aligned@std@@YAXAEAPEAXAEA_K@Z@4JA 	 DATA
	?__LINE__Var@?0??_Maklocwcs@std@@YAPEA_WPEB_W@Z@4JA 	 DATA
	?__LINE__Var@?0??_Test@vtkPolyDataBooleanFilter@@AEAAXPEAVvtkPolyData@@AEAV?$map@HVPStrips@@U?$less@H@std@@V?$allocator@U?$pair@$$CBHVPStrips@@@std@@@3@@std@@@Z@4JA 	 DATA
	??$?0$$QEAVPair@@$$Z$$V@?$pair@$$CBVPair@@V?$map@HHU?$less@H@std@@V?$allocator@U?$pair@$$CBHH@std@@@2@@std@@@std@@QEAA@Upiecewise_construct_t@1@V?$tuple@$$QEAVPair@@@1@V?$tuple@$$V@1@@Z
	??$?0$$V@?$_Compressed_pair@V?$allocator@D@std@@V?$_String_val@U?$_Simple_types@D@std@@@2@$00@std@@QEAA@U_Zero_then_variadic_args_t@1@@Z
	??$?0$$V@?$_Compressed_pair@V?$allocator@H@std@@V?$_Deque_val@U?$_Deque_simple_types@H@std@@@2@$00@std@@QEAA@U_Zero_then_variadic_args_t@1@@Z
	??$?0$$V@?$_Compressed_pair@V?$allocator@H@std@@V?$_Vector_val@U?$_Simple_types@H@std@@@2@$00@std@@QEAA@U_Zero_then_variadic_args_t@1@@Z
	??$?0$$V@?$_Compressed_pair@V?$allocator@PEBVInterPtType@@@std@@V?$_Vector_val@U?$_Simple_types@PEBVInterPtType@@@std@@@2@$00@std@@QEAA@U_Zero_then_variadic_args_t@1@@Z
	??$?0$$V@?$_Compressed_pair@V?$allocator@U?$_Tree_node@HPEAX@std@@@std@@V?$_Tree_val@U?$_Tree_simple_types@H@std@@@2@$00@std@@QEAA@U_Zero_then_variadic_args_t@1@@Z
	??$?0$$V@?$_Compressed_pair@V?$allocator@U?$_Tree_node@U?$pair@$$CBHH@std@@PEAX@std@@@std@@V?$_Tree_val@U?$_Tree_simple_types@U?$pair@$$CBHH@std@@@std@@@2@$00@std@@QEAA@U_Zero_then_variadic_args_t@1@@Z
	??$?0$$V@?$_Compressed_pair@V?$allocator@U?$_Tree_node@U?$pair@$$CBHV?$set@HU?$less@H@std@@V?$allocator@H@2@@std@@@std@@PEAX@std@@@std@@V?$_Tree_val@U?$_Tree_simple_types@U?$pair@$$CBHV?$set@HU?$less@H@std@@V?$allocator@H@2@@std@@@std@@@std@@@2@$00@std@@QEAA@U_Zero_then_variadic_args_t@1@@Z
	??$?0$$V@?$_Compressed_pair@V?$allocator@U?$_Tree_node@U?$pair@$$CBHV?$vector@HV?$allocator@H@std@@@std@@@std@@PEAX@std@@@std@@V?$_Tree_val@U?$_Tree_simple_types@U?$pair@$$CBHV?$vector@HV?$allocator@H@std@@@std@@@std@@@std@@@2@$00@std@@QEAA@U_Zero_then_variadic_args_t@1@@Z
	??$?0$$V@?$_Compressed_pair@V?$allocator@U?$_Tree_node@U?$pair@$$CBHV?$vector@V?$reference_wrapper@VStripPtR@@@std@@V?$allocator@V?$reference_wrapper@VStripPtR@@@std@@@2@@std@@@std@@PEAX@std@@@std@@V?$_Tree_val@U?$_Tree_simple_types@U?$pair@$$CBHV?$vector@V?$reference_wrapper@VStripPtR@@@std@@V?$allocator@V?$reference_wrapper@VStripPtR@@@std@@@2@@std@@@std@@@std@@@2@$00@std@@QEAA@U_Zero_then_variadic_args_t@1@@Z
	??$?0$$V@?$_Compressed_pair@V?$allocator@U?$_Tree_node@U?$pair@$$CBHVPStrips@@@std@@PEAX@std@@@std@@V?$_Tree_val@U?$_Tree_simple_types@U?$pair@$$CBHVPStrips@@@std@@@std@@@2@$00@std@@QEAA@U_Zero_then_variadic_args_t@1@@Z
	??$?0$$V@?$_Compressed_pair@V?$allocator@U?$_Tree_node@U?$pair@$$CBHVStripPt@@@std@@PEAX@std@@@std@@V?$_Tree_val@U?$_Tree_simple_types@U?$pair@$$CBHVStripPt@@@std@@@std@@@2@$00@std@@QEAA@U_Zero_then_variadic_args_t@1@@Z
	??$?0$$V@?$_Compressed_pair@V?$allocator@U?$_Tree_node@U?$pair@$$CBHW4Rel@@@std@@PEAX@std@@@std@@V?$_Tree_val@U?$_Tree_simple_types@U?$pair@$$CBHW4Rel@@@std@@@std@@@2@$00@std@@QEAA@U_Zero_then_variadic_args_t@1@@Z
	??$?0$$V@?$_Compressed_pair@V?$allocator@U?$_Tree_node@U?$pair@$$CBVPair@@V?$map@HHU?$less@H@std@@V?$allocator@U?$pair@$$CBHH@std@@@2@@std@@@std@@PEAX@std@@@std@@V?$_Tree_val@U?$_Tree_simple_types@U?$pair@$$CBVPair@@V?$map@HHU?$less@H@std@@V?$allocator@U?$pair@$$CBHH@std@@@2@@std@@@std@@@std@@@2@$00@std@@QEAA@U_Zero_then_variadic_args_t@1@@Z
	??$?0$$V@?$_Compressed_pair@V?$allocator@U?$_Tree_node@V?$reference_wrapper@VStripPt@@@std@@PEAX@std@@@std@@V?$_Tree_val@U?$_Tree_simple_types@V?$reference_wrapper@VStripPt@@@std@@@std@@@2@$00@std@@QEAA@U_Zero_then_variadic_args_t@1@@Z
	??$?0$$V@?$_Compressed_pair@V?$allocator@U?$_Tree_node@VPair@@PEAX@std@@@std@@V?$_Tree_val@U?$_Tree_simple_types@VPair@@@std@@@2@$00@std@@QEAA@U_Zero_then_variadic_args_t@1@@Z
	??$?0$$V@?$_Compressed_pair@V?$allocator@U?$_Tree_node@VStripPtL3@@PEAX@std@@@std@@V?$_Tree_val@U?$_Tree_simple_types@VStripPtL3@@@std@@@2@$00@std@@QEAA@U_Zero_then_variadic_args_t@1@@Z
	??$?0$$V@?$_Compressed_pair@V?$allocator@U?$_Tree_node@VStripPtL@@PEAX@std@@@std@@V?$_Tree_val@U?$_Tree_simple_types@VStripPtL@@@std@@@2@$00@std@@QEAA@U_Zero_then_variadic_args_t@1@@Z
	??$?0$$V@?$_Compressed_pair@V?$allocator@U?$pair@VInterPtType@@V1@@std@@@std@@V?$_Vector_val@U?$_Simple_types@U?$pair@VInterPtType@@V1@@std@@@std@@@2@$00@std@@QEAA@U_Zero_then_variadic_args_t@1@@Z
	??$?0$$V@?$_Compressed_pair@V?$allocator@V?$deque@VStripPtR@@V?$allocator@VStripPtR@@@std@@@std@@@std@@V?$_Vector_val@U?$_Simple_types@V?$deque@VStripPtR@@V?$allocator@VStripPtR@@@std@@@std@@@std@@@2@$00@std@@QEAA@U_Zero_then_variadic_args_t@1@@Z
	??$?0$$V@?$_Compressed_pair@V?$allocator@V?$reference_wrapper@VStripPt@@@std@@@std@@V?$_Vector_val@U?$_Simple_types@V?$reference_wrapper@VStripPt@@@std@@@std@@@2@$00@std@@QEAA@U_Zero_then_variadic_args_t@1@@Z
	??$?0$$V@?$_Compressed_pair@V?$allocator@V?$reference_wrapper@VStripPtR@@@std@@@std@@V?$_Vector_val@U?$_Simple_types@V?$reference_wrapper@VStripPtR@@@std@@@std@@@2@$00@std@@QEAA@U_Zero_then_variadic_args_t@1@@Z
	??$?0$$V@?$_Compressed_pair@V?$allocator@V?$shared_ptr@VLine@@@std@@@std@@V?$_Vector_val@U?$_Simple_types@V?$shared_ptr@VLine@@@std@@@std@@@2@$00@std@@QEAA@U_Zero_then_variadic_args_t@1@@Z
	??$?0$$V@?$_Compressed_pair@V?$allocator@V?$shared_ptr@VObj@@@std@@@std@@V?$_Vector_val@U?$_Simple_types@V?$shared_ptr@VObj@@@std@@@std@@@2@$00@std@@QEAA@U_Zero_then_variadic_args_t@1@@Z
	??$?0$$V@?$_Compressed_pair@V?$allocator@V?$vector@HV?$allocator@H@std@@@std@@@std@@V?$_Deque_val@U?$_Deque_simple_types@V?$vector@HV?$allocator@H@std@@@std@@@std@@@2@$00@std@@QEAA@U_Zero_then_variadic_args_t@1@@Z
	??$?0$$V@?$_Compressed_pair@V?$allocator@V?$vector@HV?$allocator@H@std@@@std@@@std@@V?$_Vector_val@U?$_Simple_types@V?$vector@HV?$allocator@H@std@@@std@@@std@@@2@$00@std@@QEAA@U_Zero_then_variadic_args_t@1@@Z
	??$?0$$V@?$_Compressed_pair@V?$allocator@V?$vector@VPoint@@V?$allocator@VPoint@@@std@@@std@@@std@@V?$_Vector_val@U?$_Simple_types@V?$vector@VPoint@@V?$allocator@VPoint@@@std@@@std@@@std@@@2@$00@std@@QEAA@U_Zero_then_variadic_args_t@1@@Z
	??$?0$$V@?$_Compressed_pair@V?$allocator@VInterPtType@@@std@@V?$_Vector_val@U?$_Simple_types@VInterPtType@@@std@@@2@$00@std@@QEAA@U_Zero_then_variadic_args_t@1@@Z
	??$?0$$V@?$_Compressed_pair@V?$allocator@VMergePt@@@std@@V?$_Vector_val@U?$_Simple_types@VMergePt@@@std@@@2@$00@std@@QEAA@U_Zero_then_variadic_args_t@1@@Z
	??$?0$$V@?$_Compressed_pair@V?$allocator@VNode@@@std@@V?$_Vector_val@U?$_Simple_types@VNode@@@std@@@2@$00@std@@QEAA@U_Zero_then_variadic_args_t@1@@Z
	??$?0$$V@?$_Compressed_pair@V?$allocator@VPair@@@std@@V?$_Vector_val@U?$_Simple_types@VPair@@@std@@@2@$00@std@@QEAA@U_Zero_then_variadic_args_t@1@@Z
	??$?0$$V@?$_Compressed_pair@V?$allocator@VPoint@@@std@@V?$_Vector_val@U?$_Simple_types@VPoint@@@std@@@2@$00@std@@QEAA@U_Zero_then_variadic_args_t@1@@Z
	??$?0$$V@?$_Compressed_pair@V?$allocator@VPolyAtEdge@@@std@@V?$_Vector_val@U?$_Simple_types@VPolyAtEdge@@@std@@@2@$00@std@@QEAA@U_Zero_then_variadic_args_t@1@@Z
	??$?0$$V@?$_Compressed_pair@V?$allocator@VStripPtL2@@@std@@V?$_Vector_val@U?$_Simple_types@VStripPtL2@@@std@@@2@$00@std@@QEAA@U_Zero_then_variadic_args_t@1@@Z
	??$?0$$V@?$_Compressed_pair@V?$allocator@VStripPtL@@@std@@V?$_Vector_val@U?$_Simple_types@VStripPtL@@@std@@@2@$00@std@@QEAA@U_Zero_then_variadic_args_t@1@@Z
	??$?0$$V@?$_Compressed_pair@V?$allocator@VStripPtR@@@std@@V?$_Deque_val@U?$_Deque_simple_types@VStripPtR@@@std@@@2@$00@std@@QEAA@U_Zero_then_variadic_args_t@1@@Z
	??$?0AEAH@?$_Tree_temp_node@V?$allocator@U?$_Tree_node@HPEAX@std@@@std@@@std@@QEAA@AEAV?$allocator@U?$_Tree_node@HPEAX@std@@@1@PEAU?$_Tree_node@HPEAX@1@AEAH@Z
	??$?0AEAPEAU?$_Tree_node@HPEAX@std@@_N$0A@@?$pair@PEAU?$_Tree_node@HPEAX@std@@_N@std@@QEAA@AEAPEAU?$_Tree_node@HPEAX@1@$$QEA_N@Z
	??$?0AEAPEAU?$_Tree_node@U?$pair@$$CBHVStripPt@@@std@@PEAX@std@@AEAPEAU01@$0A@@?$pair@PEAU?$_Tree_node@U?$pair@$$CBHVStripPt@@@std@@PEAX@std@@PEAU12@@std@@QEAA@AEAPEAU?$_Tree_node@U?$pair@$$CBHVStripPt@@@std@@PEAX@1@0@Z
	??$?0AEAPEAU?$_Tree_node@V?$reference_wrapper@VStripPt@@@std@@PEAX@std@@_N$0A@@?$pair@PEAU?$_Tree_node@V?$reference_wrapper@VStripPt@@@std@@PEAX@std@@_N@std@@QEAA@AEAPEAU?$_Tree_node@V?$reference_wrapper@VStripPt@@@std@@PEAX@1@$$QEA_N@Z
	??$?0AEAPEAU?$_Tree_node@VPair@@PEAX@std@@_N$0A@@?$pair@PEAU?$_Tree_node@VPair@@PEAX@std@@_N@std@@QEAA@AEAPEAU?$_Tree_node@VPair@@PEAX@1@$$QEA_N@Z
	??$?0AEAPEAU?$_Tree_node@VStripPtL3@@PEAX@std@@_N$0A@@?$pair@PEAU?$_Tree_node@VStripPtL3@@PEAX@std@@_N@std@@QEAA@AEAPEAU?$_Tree_node@VStripPtL3@@PEAX@1@$$QEA_N@Z
	??$?0AEAPEAU?$_Tree_node@VStripPtL@@PEAX@std@@_N$0A@@?$pair@PEAU?$_Tree_node@VStripPtL@@PEAX@std@@_N@std@@QEAA@AEAPEAU?$_Tree_node@VStripPtL@@PEAX@1@$$QEA_N@Z
	??$?0AEAPEAV?$reference_wrapper@VStripPtR@@@std@@AEAPEAV01@$0A@@?$pair@PEAV?$reference_wrapper@VStripPtR@@@std@@PEAV12@@std@@QEAA@AEAPEAV?$reference_wrapper@VStripPtR@@@1@0@Z
	??$?0AEAPEAVInterPtType@@AEAPEAV0@$0A@@?$pair@PEAVInterPtType@@PEAV1@@std@@QEAA@AEAPEAVInterPtType@@0@Z
	??$?0AEAPEAV_Facet_base@std@@@?$_Compressed_pair@U?$default_delete@V_Facet_base@std@@@std@@PEAV_Facet_base@2@$00@std@@QEAA@U_Zero_then_variadic_args_t@1@AEAPEAV_Facet_base@1@@Z
	??$?0AEAV?$reverse_iterator@PEAVStripPtL3@@@std@@AEAV01@$0A@@?$pair@V?$reverse_iterator@PEAVStripPtL3@@@std@@V12@@std@@QEAA@AEAV?$reverse_iterator@PEAVStripPtL3@@@1@0@Z
	??$?0AEAVInterPtType@@AEAV0@$0A@@?$pair@VInterPtType@@V1@@std@@QEAA@AEAVInterPtType@@0@Z
	??$?0AEAVStripPt@@$0A@@?$reference_wrapper@VStripPt@@@std@@QEAA@AEAVStripPt@@@Z
	??$?0AEAVStripPtR@@$0A@@?$reference_wrapper@VStripPtR@@@std@@QEAA@AEAVStripPtR@@@Z
	??$?0AEBH$$Z$$V@?$pair@$$CBHH@std@@QEAA@Upiecewise_construct_t@1@V?$tuple@AEBH@1@V?$tuple@$$V@1@@Z
	??$?0AEBH$$Z$$V@?$pair@$$CBHV?$set@HU?$less@H@std@@V?$allocator@H@2@@std@@@std@@QEAA@Upiecewise_construct_t@1@V?$tuple@AEBH@1@V?$tuple@$$V@1@@Z
	??$?0AEBH$$Z$$V@?$pair@$$CBHV?$vector@HV?$allocator@H@std@@@std@@@std@@QEAA@Upiecewise_construct_t@1@V?$tuple@AEBH@1@V?$tuple@$$V@1@@Z
	??$?0AEBH$$Z$$V@?$pair@$$CBHV?$vector@V?$reference_wrapper@VStripPtR@@@std@@V?$allocator@V?$reference_wrapper@VStripPtR@@@std@@@2@@std@@@std@@QEAA@Upiecewise_construct_t@1@V?$tuple@AEBH@1@V?$tuple@$$V@1@@Z
	??$?0AEBH$$Z$$V@?$pair@$$CBHVPStrips@@@std@@QEAA@Upiecewise_construct_t@1@V?$tuple@AEBH@1@V?$tuple@$$V@1@@Z
	??$?0AEBH$$Z$$V@?$pair@$$CBHVStripPt@@@std@@QEAA@Upiecewise_construct_t@1@V?$tuple@AEBH@1@V?$tuple@$$V@1@@Z
	??$?0AEBH$$Z$$V@?$pair@$$CBHW4Rel@@@std@@QEAA@Upiecewise_construct_t@1@V?$tuple@AEBH@1@V?$tuple@$$V@1@@Z
	??$?0AEBH$0A@@?$tuple@AEBH@std@@QEAA@AEBH@Z
	??$?0AEBH$0A@@?$tuple@AEBHAEBH@std@@QEAA@AEBH0@Z
	??$?0AEBH$0A@@?$tuple@AEBHAEBHAEBH@std@@QEAA@AEBH00@Z
	??$?0AEBH@?$_Tree_temp_node@V?$allocator@U?$_Tree_node@HPEAX@std@@@std@@@std@@QEAA@AEAV?$allocator@U?$_Tree_node@HPEAX@std@@@1@PEAU?$_Tree_node@HPEAX@1@AEBH@Z
	??$?0AEBH@?$_Tuple_val@AEBH@std@@QEAA@AEBH@Z
	??$?0AEBNAEBNAEBNAEBN@?$_Ref_count_obj@VBB@@@std@@QEAA@AEBN000@Z
	??$?0AEBQEAU?$_Tree_node@U?$pair@$$CBHH@std@@PEAX@std@@_N$0A@@?$pair@PEAU?$_Tree_node@U?$pair@$$CBHH@std@@PEAX@std@@_N@std@@QEAA@AEBQEAU?$_Tree_node@U?$pair@$$CBHH@std@@PEAX@1@$$QEA_N@Z
	??$?0AEBQEAU?$_Tree_node@U?$pair@$$CBHV?$set@HU?$less@H@std@@V?$allocator@H@2@@std@@@std@@PEAX@std@@_N$0A@@?$pair@PEAU?$_Tree_node@U?$pair@$$CBHV?$set@HU?$less@H@std@@V?$allocator@H@2@@std@@@std@@PEAX@std@@_N@std@@QEAA@AEBQEAU?$_Tree_node@U?$pair@$$CBHV?$set@HU?$less@H@std@@V?$allocator@H@2@@std@@@std@@PEAX@1@$$QEA_N@Z
	??$?0AEBQEAU?$_Tree_node@U?$pair@$$CBHV?$vector@HV?$allocator@H@std@@@std@@@std@@PEAX@std@@_N$0A@@?$pair@PEAU?$_Tree_node@U?$pair@$$CBHV?$vector@HV?$allocator@H@std@@@std@@@std@@PEAX@std@@_N@std@@QEAA@AEBQEAU?$_Tree_node@U?$pair@$$CBHV?$vector@HV?$allocator@H@std@@@std@@@std@@PEAX@1@$$QEA_N@Z
	??$?0AEBQEAU?$_Tree_node@U?$pair@$$CBHV?$vector@V?$reference_wrapper@VStripPtR@@@std@@V?$allocator@V?$reference_wrapper@VStripPtR@@@std@@@2@@std@@@std@@PEAX@std@@_N$0A@@?$pair@PEAU?$_Tree_node@U?$pair@$$CBHV?$vector@V?$reference_wrapper@VStripPtR@@@std@@V?$allocator@V?$reference_wrapper@VStripPtR@@@std@@@2@@std@@@std@@PEAX@std@@_N@std@@QEAA@AEBQEAU?$_Tree_node@U?$pair@$$CBHV?$vector@V?$reference_wrapper@VStripPtR@@@std@@V?$allocator@V?$reference_wrapper@VStripPtR@@@std@@@2@@std@@@std@@PEAX@1@$$QEA_N@Z
	??$?0AEBQEAU?$_Tree_node@U?$pair@$$CBHVPStrips@@@std@@PEAX@std@@_N$0A@@?$pair@PEAU?$_Tree_node@U?$pair@$$CBHVPStrips@@@std@@PEAX@std@@_N@std@@QEAA@AEBQEAU?$_Tree_node@U?$pair@$$CBHVPStrips@@@std@@PEAX@1@$$QEA_N@Z
	??$?0AEBQEAU?$_Tree_node@U?$pair@$$CBHVStripPt@@@std@@PEAX@std@@_N$0A@@?$pair@PEAU?$_Tree_node@U?$pair@$$CBHVStripPt@@@std@@PEAX@std@@_N@std@@QEAA@AEBQEAU?$_Tree_node@U?$pair@$$CBHVStripPt@@@std@@PEAX@1@$$QEA_N@Z
	??$?0AEBQEAU?$_Tree_node@U?$pair@$$CBHW4Rel@@@std@@PEAX@std@@_N$0A@@?$pair@PEAU?$_Tree_node@U?$pair@$$CBHW4Rel@@@std@@PEAX@std@@_N@std@@QEAA@AEBQEAU?$_Tree_node@U?$pair@$$CBHW4Rel@@@std@@PEAX@1@$$QEA_N@Z
	??$?0AEBQEAU?$_Tree_node@U?$pair@$$CBVPair@@V?$map@HHU?$less@H@std@@V?$allocator@U?$pair@$$CBHH@std@@@2@@std@@@std@@PEAX@std@@_N$0A@@?$pair@PEAU?$_Tree_node@U?$pair@$$CBVPair@@V?$map@HHU?$less@H@std@@V?$allocator@U?$pair@$$CBHH@std@@@2@@std@@@std@@PEAX@std@@_N@std@@QEAA@AEBQEAU?$_Tree_node@U?$pair@$$CBVPair@@V?$map@HHU?$less@H@std@@V?$allocator@U?$pair@$$CBHH@std@@@2@@std@@@std@@PEAX@1@$$QEA_N@Z
	??$?0AEBU?$less@H@std@@U_Zero_then_variadic_args_t@1@@?$_Compressed_pair@U?$less@H@std@@V?$_Compressed_pair@V?$allocator@U?$_Tree_node@HPEAX@std@@@std@@V?$_Tree_val@U?$_Tree_simple_types@H@std@@@2@$00@2@$00@std@@QEAA@U_One_then_variadic_args_t@1@AEBU?$less@H@1@$$QEAU_Zero_then_variadic_args_t@1@@Z
	??$?0AEBU?$less@H@std@@U_Zero_then_variadic_args_t@1@@?$_Compressed_pair@U?$less@H@std@@V?$_Compressed_pair@V?$allocator@U?$_Tree_node@U?$pair@$$CBHH@std@@PEAX@std@@@std@@V?$_Tree_val@U?$_Tree_simple_types@U?$pair@$$CBHH@std@@@std@@@2@$00@2@$00@std@@QEAA@U_One_then_variadic_args_t@1@AEBU?$less@H@1@$$QEAU_Zero_then_variadic_args_t@1@@Z
	??$?0AEBU?$less@H@std@@U_Zero_then_variadic_args_t@1@@?$_Compressed_pair@U?$less@H@std@@V?$_Compressed_pair@V?$allocator@U?$_Tree_node@U?$pair@$$CBHV?$set@HU?$less@H@std@@V?$allocator@H@2@@std@@@std@@PEAX@std@@@std@@V?$_Tree_val@U?$_Tree_simple_types@U?$pair@$$CBHV?$set@HU?$less@H@std@@V?$allocator@H@2@@std@@@std@@@std@@@2@$00@2@$00@std@@QEAA@U_One_then_variadic_args_t@1@AEBU?$less@H@1@$$QEAU_Zero_then_variadic_args_t@1@@Z
	??$?0AEBU?$less@H@std@@U_Zero_then_variadic_args_t@1@@?$_Compressed_pair@U?$less@H@std@@V?$_Compressed_pair@V?$allocator@U?$_Tree_node@U?$pair@$$CBHV?$vector@HV?$allocator@H@std@@@std@@@std@@PEAX@std@@@std@@V?$_Tree_val@U?$_Tree_simple_types@U?$pair@$$CBHV?$vector@HV?$allocator@H@std@@@std@@@std@@@std@@@2@$00@2@$00@std@@QEAA@U_One_then_variadic_args_t@1@AEBU?$less@H@1@$$QEAU_Zero_then_variadic_args_t@1@@Z
	??$?0AEBU?$less@H@std@@U_Zero_then_variadic_args_t@1@@?$_Compressed_pair@U?$less@H@std@@V?$_Compressed_pair@V?$allocator@U?$_Tree_node@U?$pair@$$CBHV?$vector@V?$reference_wrapper@VStripPtR@@@std@@V?$allocator@V?$reference_wrapper@VStripPtR@@@std@@@2@@std@@@std@@PEAX@std@@@std@@V?$_Tree_val@U?$_Tree_simple_types@U?$pair@$$CBHV?$vector@V?$reference_wrapper@VStripPtR@@@std@@V?$allocator@V?$reference_wrapper@VStripPtR@@@std@@@2@@std@@@std@@@std@@@2@$00@2@$00@std@@QEAA@U_One_then_variadic_args_t@1@AEBU?$less@H@1@$$QEAU_Zero_then_variadic_args_t@1@@Z
	??$?0AEBU?$less@H@std@@U_Zero_then_variadic_args_t@1@@?$_Compressed_pair@U?$less@H@std@@V?$_Compressed_pair@V?$allocator@U?$_Tree_node@U?$pair@$$CBHVPStrips@@@std@@PEAX@std@@@std@@V?$_Tree_val@U?$_Tree_simple_types@U?$pair@$$CBHVPStrips@@@std@@@std@@@2@$00@2@$00@std@@QEAA@U_One_then_variadic_args_t@1@AEBU?$less@H@1@$$QEAU_Zero_then_variadic_args_t@1@@Z
	??$?0AEBU?$less@H@std@@U_Zero_then_variadic_args_t@1@@?$_Compressed_pair@U?$less@H@std@@V?$_Compressed_pair@V?$allocator@U?$_Tree_node@U?$pair@$$CBHVStripPt@@@std@@PEAX@std@@@std@@V?$_Tree_val@U?$_Tree_simple_types@U?$pair@$$CBHVStripPt@@@std@@@std@@@2@$00@2@$00@std@@QEAA@U_One_then_variadic_args_t@1@AEBU?$less@H@1@$$QEAU_Zero_then_variadic_args_t@1@@Z
	??$?0AEBU?$less@H@std@@U_Zero_then_variadic_args_t@1@@?$_Compressed_pair@U?$less@H@std@@V?$_Compressed_pair@V?$allocator@U?$_Tree_node@U?$pair@$$CBHW4Rel@@@std@@PEAX@std@@@std@@V?$_Tree_val@U?$_Tree_simple_types@U?$pair@$$CBHW4Rel@@@std@@@std@@@2@$00@2@$00@std@@QEAA@U_One_then_variadic_args_t@1@AEBU?$less@H@1@$$QEAU_Zero_then_variadic_args_t@1@@Z
	??$?0AEBU?$less@VPair@@@std@@U_Zero_then_variadic_args_t@1@@?$_Compressed_pair@U?$less@VPair@@@std@@V?$_Compressed_pair@V?$allocator@U?$_Tree_node@U?$pair@$$CBVPair@@V?$map@HHU?$less@H@std@@V?$allocator@U?$pair@$$CBHH@std@@@2@@std@@@std@@PEAX@std@@@std@@V?$_Tree_val@U?$_Tree_simple_types@U?$pair@$$CBVPair@@V?$map@HHU?$less@H@std@@V?$allocator@U?$pair@$$CBHH@std@@@2@@std@@@std@@@std@@@2@$00@2@$00@std@@QEAA@U_One_then_variadic_args_t@1@AEBU?$less@VPair@@@1@$$QEAU_Zero_then_variadic_args_t@1@@Z
	??$?0AEBU?$less@VPair@@@std@@U_Zero_then_variadic_args_t@1@@?$_Compressed_pair@U?$less@VPair@@@std@@V?$_Compressed_pair@V?$allocator@U?$_Tree_node@VPair@@PEAX@std@@@std@@V?$_Tree_val@U?$_Tree_simple_types@VPair@@@std@@@2@$00@2@$00@std@@QEAA@U_One_then_variadic_args_t@1@AEBU?$less@VPair@@@1@$$QEAU_Zero_then_variadic_args_t@1@@Z
	??$?0AEBU?$less@VStripPtL@@@std@@U_Zero_then_variadic_args_t@1@@?$_Compressed_pair@U?$less@VStripPtL@@@std@@V?$_Compressed_pair@V?$allocator@U?$_Tree_node@VStripPtL@@PEAX@std@@@std@@V?$_Tree_val@U?$_Tree_simple_types@VStripPtL@@@std@@@2@$00@2@$00@std@@QEAA@U_One_then_variadic_args_t@1@AEBU?$less@VStripPtL@@@1@$$QEAU_Zero_then_variadic_args_t@1@@Z
	??$?0AEBUpiecewise_construct_t@std@@V?$tuple@$$QEAVPair@@@1@V?$tuple@$$V@1@@?$_Tree_temp_node@V?$allocator@U?$_Tree_node@U?$pair@$$CBVPair@@V?$map@HHU?$less@H@std@@V?$allocator@U?$pair@$$CBHH@std@@@2@@std@@@std@@PEAX@std@@@std@@@std@@QEAA@AEAV?$allocator@U?$_Tree_node@U?$pair@$$CBVPair@@V?$map@HHU?$less@H@std@@V?$allocator@U?$pair@$$CBHH@std@@@2@@std@@@std@@PEAX@std@@@1@PEAU?$_Tree_node@U?$pair@$$CBVPair@@V?$map@HHU?$less@H@std@@V?$allocator@U?$pair@$$CBHH@std@@@2@@std@@@std@@PEAX@1@AEBUpiecewise_construct_t@1@$$QEAV?$tuple@$$QEAVPair@@@1@$$QEAV?$tuple@$$V@1@@Z
	??$?0AEBUpiecewise_construct_t@std@@V?$tuple@AEBH@1@V?$tuple@$$V@1@@?$_Tree_temp_node@V?$allocator@U?$_Tree_node@U?$pair@$$CBHH@std@@PEAX@std@@@std@@@std@@QEAA@AEAV?$allocator@U?$_Tree_node@U?$pair@$$CBHH@std@@PEAX@std@@@1@PEAU?$_Tree_node@U?$pair@$$CBHH@std@@PEAX@1@AEBUpiecewise_construct_t@1@$$QEAV?$tuple@AEBH@1@$$QEAV?$tuple@$$V@1@@Z
	??$?0AEBUpiecewise_construct_t@std@@V?$tuple@AEBH@1@V?$tuple@$$V@1@@?$_Tree_temp_node@V?$allocator@U?$_Tree_node@U?$pair@$$CBHV?$set@HU?$less@H@std@@V?$allocator@H@2@@std@@@std@@PEAX@std@@@std@@@std@@QEAA@AEAV?$allocator@U?$_Tree_node@U?$pair@$$CBHV?$set@HU?$less@H@std@@V?$allocator@H@2@@std@@@std@@PEAX@std@@@1@PEAU?$_Tree_node@U?$pair@$$CBHV?$set@HU?$less@H@std@@V?$allocator@H@2@@std@@@std@@PEAX@1@AEBUpiecewise_construct_t@1@$$QEAV?$tuple@AEBH@1@$$QEAV?$tuple@$$V@1@@Z
	??$?0AEBUpiecewise_construct_t@std@@V?$tuple@AEBH@1@V?$tuple@$$V@1@@?$_Tree_temp_node@V?$allocator@U?$_Tree_node@U?$pair@$$CBHV?$vector@HV?$allocator@H@std@@@std@@@std@@PEAX@std@@@std@@@std@@QEAA@AEAV?$allocator@U?$_Tree_node@U?$pair@$$CBHV?$vector@HV?$allocator@H@std@@@std@@@std@@PEAX@std@@@1@PEAU?$_Tree_node@U?$pair@$$CBHV?$vector@HV?$allocator@H@std@@@std@@@std@@PEAX@1@AEBUpiecewise_construct_t@1@$$QEAV?$tuple@AEBH@1@$$QEAV?$tuple@$$V@1@@Z
	??$?0AEBUpiecewise_construct_t@std@@V?$tuple@AEBH@1@V?$tuple@$$V@1@@?$_Tree_temp_node@V?$allocator@U?$_Tree_node@U?$pair@$$CBHV?$vector@V?$reference_wrapper@VStripPtR@@@std@@V?$allocator@V?$reference_wrapper@VStripPtR@@@std@@@2@@std@@@std@@PEAX@std@@@std@@@std@@QEAA@AEAV?$allocator@U?$_Tree_node@U?$pair@$$CBHV?$vector@V?$reference_wrapper@VStripPtR@@@std@@V?$allocator@V?$reference_wrapper@VStripPtR@@@std@@@2@@std@@@std@@PEAX@std@@@1@PEAU?$_Tree_node@U?$pair@$$CBHV?$vector@V?$reference_wrapper@VStripPtR@@@std@@V?$allocator@V?$reference_wrapper@VStripPtR@@@std@@@2@@std@@@std@@PEAX@1@AEBUpiecewise_construct_t@1@$$QEAV?$tuple@AEBH@1@$$QEAV?$tuple@$$V@1@@Z
	??$?0AEBUpiecewise_construct_t@std@@V?$tuple@AEBH@1@V?$tuple@$$V@1@@?$_Tree_temp_node@V?$allocator@U?$_Tree_node@U?$pair@$$CBHVPStrips@@@std@@PEAX@std@@@std@@@std@@QEAA@AEAV?$allocator@U?$_Tree_node@U?$pair@$$CBHVPStrips@@@std@@PEAX@std@@@1@PEAU?$_Tree_node@U?$pair@$$CBHVPStrips@@@std@@PEAX@1@AEBUpiecewise_construct_t@1@$$QEAV?$tuple@AEBH@1@$$QEAV?$tuple@$$V@1@@Z
	??$?0AEBUpiecewise_construct_t@std@@V?$tuple@AEBH@1@V?$tuple@$$V@1@@?$_Tree_temp_node@V?$allocator@U?$_Tree_node@U?$pair@$$CBHVStripPt@@@std@@PEAX@std@@@std@@@std@@QEAA@AEAV?$allocator@U?$_Tree_node@U?$pair@$$CBHVStripPt@@@std@@PEAX@std@@@1@PEAU?$_Tree_node@U?$pair@$$CBHVStripPt@@@std@@PEAX@1@AEBUpiecewise_construct_t@1@$$QEAV?$tuple@AEBH@1@$$QEAV?$tuple@$$V@1@@Z
	??$?0AEBUpiecewise_construct_t@std@@V?$tuple@AEBH@1@V?$tuple@$$V@1@@?$_Tree_temp_node@V?$allocator@U?$_Tree_node@U?$pair@$$CBHW4Rel@@@std@@PEAX@std@@@std@@@std@@QEAA@AEAV?$allocator@U?$_Tree_node@U?$pair@$$CBHW4Rel@@@std@@PEAX@std@@@1@PEAU?$_Tree_node@U?$pair@$$CBHW4Rel@@@std@@PEAX@1@AEBUpiecewise_construct_t@1@$$QEAV?$tuple@AEBH@1@$$QEAV?$tuple@$$V@1@@Z
	??$?0AEBV?$allocator@H@std@@$$V@?$_Compressed_pair@V?$allocator@H@std@@V?$_Deque_val@U?$_Deque_simple_types@H@std@@@2@$00@std@@QEAA@U_One_then_variadic_args_t@1@AEBV?$allocator@H@1@@Z
	??$?0AEBV?$allocator@V?$reference_wrapper@VStripPtR@@@std@@@std@@$$V@?$_Compressed_pair@V?$allocator@V?$reference_wrapper@VStripPtR@@@std@@@std@@V?$_Vector_val@U?$_Simple_types@V?$reference_wrapper@VStripPtR@@@std@@@std@@@2@$00@std@@QEAA@U_One_then_variadic_args_t@1@AEBV?$allocator@V?$reference_wrapper@VStripPtR@@@std@@@1@@Z
	??$?0AEBV?$allocator@V?$vector@HV?$allocator@H@std@@@std@@@std@@$$V@?$_Compressed_pair@V?$allocator@V?$vector@HV?$allocator@H@std@@@std@@@std@@V?$_Vector_val@U?$_Simple_types@V?$vector@HV?$allocator@H@std@@@std@@@std@@@2@$00@std@@QEAA@U_One_then_variadic_args_t@1@AEBV?$allocator@V?$vector@HV?$allocator@H@std@@@std@@@1@@Z
	??$?0AEBV?$allocator@VStripPtL3@@@std@@$$V@?$_Compressed_pair@V?$allocator@VStripPtL3@@@std@@V?$_Vector_val@U?$_Simple_types@VStripPtL3@@@std@@@2@$00@std@@QEAA@U_One_then_variadic_args_t@1@AEBV?$allocator@VStripPtL3@@@1@@Z
	??$?0AEBVStripPt@@$0A@@?$tuple@AEBVStripPt@@@std@@QEAA@AEBVStripPt@@@Z
	??$?0AEBVStripPt@@@?$_Tuple_val@AEBVStripPt@@@std@@QEAA@AEBVStripPt@@@Z
	??$?0D@?$allocator@U_Container_proxy@std@@@std@@QEAA@AEBV?$allocator@D@1@@Z
	??$?0H@?$_Tree_temp_node@V?$allocator@U?$_Tree_node@HPEAX@std@@@std@@@std@@QEAA@AEAV?$allocator@U?$_Tree_node@HPEAX@std@@@1@PEAU?$_Tree_node@HPEAX@1@$$QEAH@Z
	??$?0H@?$allocator@PEAH@std@@QEAA@AEBV?$allocator@H@1@@Z
	??$?0H@?$allocator@U_Container_proxy@std@@@std@@QEAA@AEBV?$allocator@H@1@@Z
	??$?0PEAU?$_Tree_node@HPEAX@std@@_N$0A@@?$pair@PEAU?$_Tree_node@HPEAX@std@@_N@std@@QEAA@$$QEAPEAU?$_Tree_node@HPEAX@1@$$QEA_N@Z
	??$?0PEAU?$_Tree_node@U?$pair@$$CBHH@std@@PEAX@std@@_N$0A@@?$pair@PEAU?$_Tree_node@U?$pair@$$CBHH@std@@PEAX@std@@_N@std@@QEAA@$$QEAPEAU?$_Tree_node@U?$pair@$$CBHH@std@@PEAX@1@$$QEA_N@Z
	??$?0PEAU?$_Tree_node@U?$pair@$$CBHV?$set@HU?$less@H@std@@V?$allocator@H@2@@std@@@std@@PEAX@std@@_N$0A@@?$pair@PEAU?$_Tree_node@U?$pair@$$CBHV?$set@HU?$less@H@std@@V?$allocator@H@2@@std@@@std@@PEAX@std@@_N@std@@QEAA@$$QEAPEAU?$_Tree_node@U?$pair@$$CBHV?$set@HU?$less@H@std@@V?$allocator@H@2@@std@@@std@@PEAX@1@$$QEA_N@Z
	??$?0PEAU?$_Tree_node@U?$pair@$$CBHV?$vector@HV?$allocator@H@std@@@std@@@std@@PEAX@std@@_N$0A@@?$pair@PEAU?$_Tree_node@U?$pair@$$CBHV?$vector@HV?$allocator@H@std@@@std@@@std@@PEAX@std@@_N@std@@QEAA@$$QEAPEAU?$_Tree_node@U?$pair@$$CBHV?$vector@HV?$allocator@H@std@@@std@@@std@@PEAX@1@$$QEA_N@Z
	??$?0PEAU?$_Tree_node@U?$pair@$$CBHV?$vector@V?$reference_wrapper@VStripPtR@@@std@@V?$allocator@V?$reference_wrapper@VStripPtR@@@std@@@2@@std@@@std@@PEAX@std@@_N$0A@@?$pair@PEAU?$_Tree_node@U?$pair@$$CBHV?$vector@V?$reference_wrapper@VStripPtR@@@std@@V?$allocator@V?$reference_wrapper@VStripPtR@@@std@@@2@@std@@@std@@PEAX@std@@_N@std@@QEAA@$$QEAPEAU?$_Tree_node@U?$pair@$$CBHV?$vector@V?$reference_wrapper@VStripPtR@@@std@@V?$allocator@V?$reference_wrapper@VStripPtR@@@std@@@2@@std@@@std@@PEAX@1@$$QEA_N@Z
	??$?0PEAU?$_Tree_node@U?$pair@$$CBHVPStrips@@@std@@PEAX@std@@_N$0A@@?$pair@PEAU?$_Tree_node@U?$pair@$$CBHVPStrips@@@std@@PEAX@std@@_N@std@@QEAA@$$QEAPEAU?$_Tree_node@U?$pair@$$CBHVPStrips@@@std@@PEAX@1@$$QEA_N@Z
	??$?0PEAU?$_Tree_node@U?$pair@$$CBHVStripPt@@@std@@PEAX@std@@_N$0A@@?$pair@PEAU?$_Tree_node@U?$pair@$$CBHVStripPt@@@std@@PEAX@std@@_N@std@@QEAA@$$QEAPEAU?$_Tree_node@U?$pair@$$CBHVStripPt@@@std@@PEAX@1@$$QEA_N@Z
	??$?0PEAU?$_Tree_node@U?$pair@$$CBHW4Rel@@@std@@PEAX@std@@_N$0A@@?$pair@PEAU?$_Tree_node@U?$pair@$$CBHW4Rel@@@std@@PEAX@std@@_N@std@@QEAA@$$QEAPEAU?$_Tree_node@U?$pair@$$CBHW4Rel@@@std@@PEAX@1@$$QEA_N@Z
	??$?0PEAU?$_Tree_node@U?$pair@$$CBVPair@@V?$map@HHU?$less@H@std@@V?$allocator@U?$pair@$$CBHH@std@@@2@@std@@@std@@PEAX@std@@_N$0A@@?$pair@PEAU?$_Tree_node@U?$pair@$$CBVPair@@V?$map@HHU?$less@H@std@@V?$allocator@U?$pair@$$CBHH@std@@@2@@std@@@std@@PEAX@std@@_N@std@@QEAA@$$QEAPEAU?$_Tree_node@U?$pair@$$CBVPair@@V?$map@HHU?$less@H@std@@V?$allocator@U?$pair@$$CBHH@std@@@2@@std@@@std@@PEAX@1@$$QEA_N@Z
	??$?0PEAU?$_Tree_node@V?$reference_wrapper@VStripPt@@@std@@PEAX@std@@_N$0A@@?$pair@PEAU?$_Tree_node@V?$reference_wrapper@VStripPt@@@std@@PEAX@std@@_N@std@@QEAA@$$QEAPEAU?$_Tree_node@V?$reference_wrapper@VStripPt@@@std@@PEAX@1@$$QEA_N@Z
	??$?0PEAU?$_Tree_node@VPair@@PEAX@std@@_N$0A@@?$pair@PEAU?$_Tree_node@VPair@@PEAX@std@@_N@std@@QEAA@$$QEAPEAU?$_Tree_node@VPair@@PEAX@1@$$QEA_N@Z
	??$?0PEAU?$_Tree_node@VStripPtL3@@PEAX@std@@_N$0A@@?$pair@PEAU?$_Tree_node@VStripPtL3@@PEAX@std@@_N@std@@QEAA@$$QEAPEAU?$_Tree_node@VStripPtL3@@PEAX@1@$$QEA_N@Z
	??$?0PEAU?$_Tree_node@VStripPtL@@PEAX@std@@_N$0A@@?$pair@PEAU?$_Tree_node@VStripPtL@@PEAX@std@@_N@std@@QEAA@$$QEAPEAU?$_Tree_node@VStripPtL@@PEAX@1@$$QEA_N@Z
	??$?0PEBVInterPtType@@@?$allocator@U_Container_proxy@std@@@std@@QEAA@AEBV?$allocator@PEBVInterPtType@@@1@@Z
	??$?0U?$_List_node@U?$pair@$$CBVPair@@VSubP@@@std@@PEAX@std@@@?$allocator@U_Container_proxy@std@@@std@@QEAA@AEBV?$allocator@U?$_List_node@U?$pair@$$CBVPair@@VSubP@@@std@@PEAX@std@@@1@@Z
	??$?0U?$_List_node@VPair@@PEAX@std@@@?$allocator@U_Container_proxy@std@@@std@@QEAA@AEBV?$allocator@U?$_List_node@VPair@@PEAX@std@@@1@@Z
	??$?0U?$_Tree_node@HPEAX@std@@@?$allocator@U_Container_proxy@std@@@std@@QEAA@AEBV?$allocator@U?$_Tree_node@HPEAX@std@@@1@@Z
	??$?0U?$_Tree_node@U?$pair@$$CBHH@std@@PEAX@std@@@?$allocator@U_Container_proxy@std@@@std@@QEAA@AEBV?$allocator@U?$_Tree_node@U?$pair@$$CBHH@std@@PEAX@std@@@1@@Z
	??$?0U?$_Tree_node@U?$pair@$$CBHV?$set@HU?$less@H@std@@V?$allocator@H@2@@std@@@std@@PEAX@std@@@?$allocator@U_Container_proxy@std@@@std@@QEAA@AEBV?$allocator@U?$_Tree_node@U?$pair@$$CBHV?$set@HU?$less@H@std@@V?$allocator@H@2@@std@@@std@@PEAX@std@@@1@@Z
	??$?0U?$_Tree_node@U?$pair@$$CBHV?$vector@HV?$allocator@H@std@@@std@@@std@@PEAX@std@@@?$allocator@U_Container_proxy@std@@@std@@QEAA@AEBV?$allocator@U?$_Tree_node@U?$pair@$$CBHV?$vector@HV?$allocator@H@std@@@std@@@std@@PEAX@std@@@1@@Z
	??$?0U?$_Tree_node@U?$pair@$$CBHV?$vector@V?$reference_wrapper@VStripPtR@@@std@@V?$allocator@V?$reference_wrapper@VStripPtR@@@std@@@2@@std@@@std@@PEAX@std@@@?$allocator@U_Container_proxy@std@@@std@@QEAA@AEBV?$allocator@U?$_Tree_node@U?$pair@$$CBHV?$vector@V?$reference_wrapper@VStripPtR@@@std@@V?$allocator@V?$reference_wrapper@VStripPtR@@@std@@@2@@std@@@std@@PEAX@std@@@1@@Z
	??$?0U?$_Tree_node@U?$pair@$$CBHVPStrips@@@std@@PEAX@std@@@?$allocator@U_Container_proxy@std@@@std@@QEAA@AEBV?$allocator@U?$_Tree_node@U?$pair@$$CBHVPStrips@@@std@@PEAX@std@@@1@@Z
	??$?0U?$_Tree_node@U?$pair@$$CBHVStripPt@@@std@@PEAX@std@@@?$allocator@U_Container_proxy@std@@@std@@QEAA@AEBV?$allocator@U?$_Tree_node@U?$pair@$$CBHVStripPt@@@std@@PEAX@std@@@1@@Z
	??$?0U?$_Tree_node@U?$pair@$$CBHW4Rel@@@std@@PEAX@std@@@?$allocator@U_Container_proxy@std@@@std@@QEAA@AEBV?$allocator@U?$_Tree_node@U?$pair@$$CBHW4Rel@@@std@@PEAX@std@@@1@@Z
	??$?0U?$_Tree_node@U?$pair@$$CBVPair@@V?$map@HHU?$less@H@std@@V?$allocator@U?$pair@$$CBHH@std@@@2@@std@@@std@@PEAX@std@@@?$allocator@U_Container_proxy@std@@@std@@QEAA@AEBV?$allocator@U?$_Tree_node@U?$pair@$$CBVPair@@V?$map@HHU?$less@H@std@@V?$allocator@U?$pair@$$CBHH@std@@@2@@std@@@std@@PEAX@std@@@1@@Z
	??$?0U?$_Tree_node@V?$reference_wrapper@VStripPt@@@std@@PEAX@std@@@?$allocator@U_Container_proxy@std@@@std@@QEAA@AEBV?$allocator@U?$_Tree_node@V?$reference_wrapper@VStripPt@@@std@@PEAX@std@@@1@@Z
	??$?0U?$_Tree_node@VPair@@PEAX@std@@@?$allocator@U_Container_proxy@std@@@std@@QEAA@AEBV?$allocator@U?$_Tree_node@VPair@@PEAX@std@@@1@@Z
	??$?0U?$_Tree_node@VStripPtL3@@PEAX@std@@@?$allocator@U_Container_proxy@std@@@std@@QEAA@AEBV?$allocator@U?$_Tree_node@VStripPtL3@@PEAX@std@@@1@@Z
	??$?0U?$_Tree_node@VStripPtL@@PEAX@std@@@?$allocator@U_Container_proxy@std@@@std@@QEAA@AEBV?$allocator@U?$_Tree_node@VStripPtL@@PEAX@std@@@1@@Z
	??$?0U?$default_delete@V_Facet_base@std@@@std@@$0A@@?$unique_ptr@V_Facet_base@std@@U?$default_delete@V_Facet_base@std@@@2@@std@@QEAA@PEAV_Facet_base@1@@Z
	??$?0U?$less@H@std@@U_One_then_variadic_args_t@1@V?$allocator@U?$_Tree_node@U?$pair@$$CBHVStripPt@@@std@@PEAX@std@@@1@@?$_Compressed_pair@U?$less@H@std@@V?$_Compressed_pair@V?$allocator@U?$_Tree_node@U?$pair@$$CBHVStripPt@@@std@@PEAX@std@@@std@@V?$_Tree_val@U?$_Tree_simple_types@U?$pair@$$CBHVStripPt@@@std@@@std@@@2@$00@2@$00@std@@QEAA@U_One_then_variadic_args_t@1@$$QEAU?$less@H@1@$$QEAU21@$$QEAV?$allocator@U?$_Tree_node@U?$pair@$$CBHVStripPt@@@std@@PEAX@std@@@1@@Z
	??$?0U?$pair@VInterPtType@@V1@@std@@@?$allocator@U_Container_proxy@std@@@std@@QEAA@AEBV?$allocator@U?$pair@VInterPtType@@V1@@std@@@1@@Z
	??$?0U_Exact_args_t@std@@$0A@@?$tuple@$$V@std@@QEAA@U_Exact_args_t@1@@Z
	??$?0U_Exact_args_t@std@@AEBH$$V$0A@@?$tuple@AEBH@std@@QEAA@U_Exact_args_t@1@AEBH@Z
	??$?0U_Exact_args_t@std@@AEBHAEBH$0A@@?$tuple@AEBHAEBH@std@@QEAA@U_Exact_args_t@1@AEBH1@Z
	??$?0U_Exact_args_t@std@@AEBHAEBHAEBH$0A@@?$tuple@AEBHAEBHAEBH@std@@QEAA@U_Exact_args_t@1@AEBH11@Z
	??$?0U_Exact_args_t@std@@AEBVStripPt@@$$V$0A@@?$tuple@AEBVStripPt@@@std@@QEAA@U_Exact_args_t@1@AEBVStripPt@@@Z
	??$?0U_Exact_args_t@std@@VPair@@$$V$0A@@?$tuple@$$QEAVPair@@@std@@QEAA@U_Exact_args_t@1@$$QEAVPair@@@Z
	??$?0V?$_Deque_iterator@V?$_Deque_val@U?$_Deque_simple_types@VStripPtR@@@std@@@std@@@std@@X@?$vector@V?$reference_wrapper@VStripPtR@@@std@@V?$allocator@V?$reference_wrapper@VStripPtR@@@std@@@2@@std@@QEAA@V?$_Deque_iterator@V?$_Deque_val@U?$_Deque_simple_types@VStripPtR@@@std@@@std@@@1@0AEBV?$allocator@V?$reference_wrapper@VStripPtR@@@std@@@1@@Z
	??$?0V?$_List_unchecked_const_iterator@V?$_List_val@U?$_List_simple_types@VPair@@@std@@@std@@U_Iterator_base0@2@@std@@@?$allocator@U_Container_proxy@std@@@std@@QEAA@AEBV?$allocator@V?$_List_unchecked_const_iterator@V?$_List_val@U?$_List_simple_types@VPair@@@std@@@std@@U_Iterator_base0@2@@std@@@1@@Z
	??$?0V?$_List_unchecked_iterator@V?$_List_val@U?$_List_simple_types@U?$pair@$$CBVPair@@VSubP@@@std@@@std@@@std@@@std@@@?$allocator@U_Container_proxy@std@@@std@@QEAA@AEBV?$allocator@V?$_List_unchecked_iterator@V?$_List_val@U?$_List_simple_types@U?$pair@$$CBVPair@@VSubP@@@std@@@std@@@std@@@std@@@1@@Z
	??$?0V?$_Tree_const_iterator@V?$_Tree_val@U?$_Tree_simple_types@H@std@@@std@@@std@@AEB_N$0A@@?$pair@V?$_Tree_const_iterator@V?$_Tree_val@U?$_Tree_simple_types@H@std@@@std@@@std@@_N@std@@QEAA@$$QEAV?$_Tree_const_iterator@V?$_Tree_val@U?$_Tree_simple_types@H@std@@@std@@@1@AEB_N@Z
	??$?0V?$_Tree_const_iterator@V?$_Tree_val@U?$_Tree_simple_types@V?$reference_wrapper@VStripPt@@@std@@@std@@@std@@@std@@AEB_N$0A@@?$pair@V?$_Tree_const_iterator@V?$_Tree_val@U?$_Tree_simple_types@V?$reference_wrapper@VStripPt@@@std@@@std@@@std@@@std@@_N@std@@QEAA@$$QEAV?$_Tree_const_iterator@V?$_Tree_val@U?$_Tree_simple_types@V?$reference_wrapper@VStripPt@@@std@@@std@@@std@@@1@AEB_N@Z
	??$?0V?$_Tree_const_iterator@V?$_Tree_val@U?$_Tree_simple_types@VPair@@@std@@@std@@@std@@AEB_N$0A@@?$pair@V?$_Tree_const_iterator@V?$_Tree_val@U?$_Tree_simple_types@VPair@@@std@@@std@@@std@@_N@std@@QEAA@$$QEAV?$_Tree_const_iterator@V?$_Tree_val@U?$_Tree_simple_types@VPair@@@std@@@std@@@1@AEB_N@Z
	??$?0V?$_Tree_const_iterator@V?$_Tree_val@U?$_Tree_simple_types@VStripPtL3@@@std@@@std@@@std@@AEB_N$0A@@?$pair@V?$_Tree_const_iterator@V?$_Tree_val@U?$_Tree_simple_types@VStripPtL3@@@std@@@std@@@std@@_N@std@@QEAA@$$QEAV?$_Tree_const_iterator@V?$_Tree_val@U?$_Tree_simple_types@VStripPtL3@@@std@@@std@@@1@AEB_N@Z
	??$?0V?$_Tree_const_iterator@V?$_Tree_val@U?$_Tree_simple_types@VStripPtL3@@@std@@@std@@@std@@X@?$vector@VStripPtL3@@V?$allocator@VStripPtL3@@@std@@@std@@QEAA@V?$_Tree_const_iterator@V?$_Tree_val@U?$_Tree_simple_types@VStripPtL3@@@std@@@std@@@1@0AEBV?$allocator@VStripPtL3@@@1@@Z
	??$?0V?$_Tree_const_iterator@V?$_Tree_val@U?$_Tree_simple_types@VStripPtL@@@std@@@std@@@std@@AEB_N$0A@@?$pair@V?$_Tree_const_iterator@V?$_Tree_val@U?$_Tree_simple_types@VStripPtL@@@std@@@std@@@std@@_N@std@@QEAA@$$QEAV?$_Tree_const_iterator@V?$_Tree_val@U?$_Tree_simple_types@VStripPtL@@@std@@@std@@@1@AEB_N@Z
	??$?0V?$_Vector_iterator@V?$_Vector_val@U?$_Simple_types@H@std@@@std@@@std@@X@?$deque@HV?$allocator@H@std@@@std@@QEAA@V?$_Vector_iterator@V?$_Vector_val@U?$_Simple_types@H@std@@@std@@@1@0@Z
	??$?0V?$_Vector_iterator@V?$_Vector_val@U?$_Simple_types@VStripPtL3@@@std@@@std@@@std@@X@?$vector@VStripPtL3@@V?$allocator@VStripPtL3@@@std@@@std@@QEAA@V?$_Vector_iterator@V?$_Vector_val@U?$_Simple_types@VStripPtL3@@@std@@@std@@@1@0AEBV?$allocator@VStripPtL3@@@1@@Z
	??$?0V?$allocator@H@std@@$$V@?$_Compressed_pair@V?$allocator@H@std@@V?$_Vector_val@U?$_Simple_types@H@std@@@2@$00@std@@QEAA@U_One_then_variadic_args_t@1@$$QEAV?$allocator@H@1@@Z
	??$?0V?$allocator@U?$_Tree_node@U?$pair@$$CBHVStripPt@@@std@@PEAX@std@@@std@@$$V@?$_Compressed_pair@V?$allocator@U?$_Tree_node@U?$pair@$$CBHVStripPt@@@std@@PEAX@std@@@std@@V?$_Tree_val@U?$_Tree_simple_types@U?$pair@$$CBHVStripPt@@@std@@@std@@@2@$00@std@@QEAA@U_One_then_variadic_args_t@1@$$QEAV?$allocator@U?$_Tree_node@U?$pair@$$CBHVStripPt@@@std@@PEAX@std@@@1@@Z
	??$?0V?$allocator@U?$_Tree_node@U?$pair@$$CBHVStripPt@@@std@@PEAX@std@@@std@@@?$_Tree@V?$_Tmap_traits@HVStripPt@@U?$less@H@std@@V?$allocator@U?$pair@$$CBHVStripPt@@@std@@@3@$0A@@std@@@std@@QEAA@AEBV01@$$QEAV?$allocator@U?$_Tree_node@U?$pair@$$CBHVStripPt@@@std@@PEAX@std@@@1@@Z
	??$?0V?$allocator@U?$pair@VInterPtType@@V1@@std@@@std@@$$V@?$_Compressed_pair@V?$allocator@U?$pair@VInterPtType@@V1@@std@@@std@@V?$_Vector_val@U?$_Simple_types@U?$pair@VInterPtType@@V1@@std@@@std@@@2@$00@std@@QEAA@U_One_then_variadic_args_t@1@$$QEAV?$allocator@U?$pair@VInterPtType@@V1@@std@@@1@@Z
	??$?0V?$allocator@V?$deque@VStripPtR@@V?$allocator@VStripPtR@@@std@@@std@@@std@@$$V@?$_Compressed_pair@V?$allocator@V?$deque@VStripPtR@@V?$allocator@VStripPtR@@@std@@@std@@@std@@V?$_Vector_val@U?$_Simple_types@V?$deque@VStripPtR@@V?$allocator@VStripPtR@@@std@@@std@@@std@@@2@$00@std@@QEAA@U_One_then_variadic_args_t@1@$$QEAV?$allocator@V?$deque@VStripPtR@@V?$allocator@VStripPtR@@@std@@@std@@@1@@Z
	??$?0V?$allocator@V?$shared_ptr@VObj@@@std@@@std@@$$V@?$_Compressed_pair@V?$allocator@V?$shared_ptr@VObj@@@std@@@std@@V?$_Vector_val@U?$_Simple_types@V?$shared_ptr@VObj@@@std@@@std@@@2@$00@std@@QEAA@U_One_then_variadic_args_t@1@$$QEAV?$allocator@V?$shared_ptr@VObj@@@std@@@1@@Z
	??$?0V?$allocator@VInterPtType@@@std@@$$V@?$_Compressed_pair@V?$allocator@VInterPtType@@@std@@V?$_Vector_val@U?$_Simple_types@VInterPtType@@@std@@@2@$00@std@@QEAA@U_One_then_variadic_args_t@1@$$QEAV?$allocator@VInterPtType@@@1@@Z
	??$?0V?$allocator@VPair@@@std@@$$V@?$_Compressed_pair@V?$allocator@VPair@@@std@@V?$_Vector_val@U?$_Simple_types@VPair@@@std@@@2@$00@std@@QEAA@U_One_then_variadic_args_t@1@$$QEAV?$allocator@VPair@@@1@@Z
	??$?0V?$allocator@VStripPtR@@@std@@$$V@?$_Compressed_pair@V?$allocator@VStripPtR@@@std@@V?$_Deque_val@U?$_Deque_simple_types@VStripPtR@@@std@@@2@$00@std@@QEAA@U_One_then_variadic_args_t@1@$$QEAV?$allocator@VStripPtR@@@1@@Z
	??$?0V?$deque@VStripPtR@@V?$allocator@VStripPtR@@@std@@@std@@@?$allocator@U_Container_proxy@std@@@std@@QEAA@AEBV?$allocator@V?$deque@VStripPtR@@V?$allocator@VStripPtR@@@std@@@std@@@1@@Z
	??$?0V?$reference_wrapper@VStripPt@@@std@@@?$_Tree_temp_node@V?$allocator@U?$_Tree_node@V?$reference_wrapper@VStripPt@@@std@@PEAX@std@@@std@@@std@@QEAA@AEAV?$allocator@U?$_Tree_node@V?$reference_wrapper@VStripPt@@@std@@PEAX@std@@@1@PEAU?$_Tree_node@V?$reference_wrapper@VStripPt@@@std@@PEAX@1@$$QEAV?$reference_wrapper@VStripPt@@@1@@Z
	??$?0V?$reference_wrapper@VStripPt@@@std@@@?$allocator@U_Container_proxy@std@@@std@@QEAA@AEBV?$allocator@V?$reference_wrapper@VStripPt@@@std@@@1@@Z
	??$?0V?$reference_wrapper@VStripPtR@@@std@@@?$allocator@U_Container_proxy@std@@@std@@QEAA@AEBV?$allocator@V?$reference_wrapper@VStripPtR@@@std@@@1@@Z
	??$?0V?$reverse_iterator@V?$_Deque_iterator@V?$_Deque_val@U?$_Deque_simple_types@VStripPtR@@@std@@@std@@@std@@@std@@X@?$deque@VStripPtR@@V?$allocator@VStripPtR@@@std@@@std@@QEAA@V?$reverse_iterator@V?$_Deque_iterator@V?$_Deque_val@U?$_Deque_simple_types@VStripPtR@@@std@@@std@@@std@@@1@0@Z
	??$?0V?$shared_ptr@VLine@@@std@@@?$allocator@U_Container_proxy@std@@@std@@QEAA@AEBV?$allocator@V?$shared_ptr@VLine@@@std@@@1@@Z
	??$?0V?$shared_ptr@VObj@@@std@@@?$allocator@U_Container_proxy@std@@@std@@QEAA@AEBV?$allocator@V?$shared_ptr@VObj@@@std@@@1@@Z
	??$?0V?$tuple@$$QEAVPair@@@std@@V?$tuple@$$V@1@$0A@$$Z$S@?$pair@$$CBVPair@@V?$map@HHU?$less@H@std@@V?$allocator@U?$pair@$$CBHH@std@@@2@@std@@@std@@QEAA@AEAV?$tuple@$$QEAVPair@@@1@AEAV?$tuple@$$V@1@U?$integer_sequence@_K$0A@@1@U?$integer_sequence@_K$S@1@@Z
	??$?0V?$tuple@AEBH@std@@V?$tuple@$$V@1@$0A@$$Z$S@?$pair@$$CBHH@std@@QEAA@AEAV?$tuple@AEBH@1@AEAV?$tuple@$$V@1@U?$integer_sequence@_K$0A@@1@U?$integer_sequence@_K$S@1@@Z
	??$?0V?$tuple@AEBH@std@@V?$tuple@$$V@1@$0A@$$Z$S@?$pair@$$CBHV?$set@HU?$less@H@std@@V?$allocator@H@2@@std@@@std@@QEAA@AEAV?$tuple@AEBH@1@AEAV?$tuple@$$V@1@U?$integer_sequence@_K$0A@@1@U?$integer_sequence@_K$S@1@@Z
	??$?0V?$tuple@AEBH@std@@V?$tuple@$$V@1@$0A@$$Z$S@?$pair@$$CBHV?$vector@HV?$allocator@H@std@@@std@@@std@@QEAA@AEAV?$tuple@AEBH@1@AEAV?$tuple@$$V@1@U?$integer_sequence@_K$0A@@1@U?$integer_sequence@_K$S@1@@Z
	??$?0V?$tuple@AEBH@std@@V?$tuple@$$V@1@$0A@$$Z$S@?$pair@$$CBHV?$vector@V?$reference_wrapper@VStripPtR@@@std@@V?$allocator@V?$reference_wrapper@VStripPtR@@@std@@@2@@std@@@std@@QEAA@AEAV?$tuple@AEBH@1@AEAV?$tuple@$$V@1@U?$integer_sequence@_K$0A@@1@U?$integer_sequence@_K$S@1@@Z
	??$?0V?$tuple@AEBH@std@@V?$tuple@$$V@1@$0A@$$Z$S@?$pair@$$CBHVPStrips@@@std@@QEAA@AEAV?$tuple@AEBH@1@AEAV?$tuple@$$V@1@U?$integer_sequence@_K$0A@@1@U?$integer_sequence@_K$S@1@@Z
	??$?0V?$tuple@AEBH@std@@V?$tuple@$$V@1@$0A@$$Z$S@?$pair@$$CBHVStripPt@@@std@@QEAA@AEAV?$tuple@AEBH@1@AEAV?$tuple@$$V@1@U?$integer_sequence@_K$0A@@1@U?$integer_sequence@_K$S@1@@Z
	??$?0V?$tuple@AEBH@std@@V?$tuple@$$V@1@$0A@$$Z$S@?$pair@$$CBHW4Rel@@@std@@QEAA@AEAV?$tuple@AEBH@1@AEAV?$tuple@$$V@1@U?$integer_sequence@_K$0A@@1@U?$integer_sequence@_K$S@1@@Z
	??$?0V?$vector@HV?$allocator@H@std@@@std@@@?$allocator@PEAV?$vector@HV?$allocator@H@std@@@std@@@std@@QEAA@AEBV?$allocator@V?$vector@HV?$allocator@H@std@@@std@@@1@@Z
	??$?0V?$vector@HV?$allocator@H@std@@@std@@@?$allocator@U_Container_proxy@std@@@std@@QEAA@AEBV?$allocator@V?$vector@HV?$allocator@H@std@@@std@@@1@@Z
	??$?0V?$vector@VPoint@@V?$allocator@VPoint@@@std@@@std@@@?$allocator@U_Container_proxy@std@@@std@@QEAA@AEBV?$allocator@V?$vector@VPoint@@V?$allocator@VPoint@@@std@@@std@@@1@@Z
	??$?0VInterPtType@@@?$allocator@U_Container_proxy@std@@@std@@QEAA@AEBV?$allocator@VInterPtType@@@1@@Z
	??$?0VLine@@$0A@@?$shared_ptr@VLine@@@std@@QEAA@PEAVLine@@@Z
	??$?0VLine@@$0A@@?$shared_ptr@VObj@@@std@@QEAA@AEBV?$shared_ptr@VLine@@@1@@Z
	??$?0VMergePt@@@?$allocator@U_Container_proxy@std@@@std@@QEAA@AEBV?$allocator@VMergePt@@@1@@Z
	??$?0VNode@@@?$allocator@U_Container_proxy@std@@@std@@QEAA@AEBV?$allocator@VNode@@@1@@Z
	??$?0VPair@@$$V$0A@@?$tuple@$$QEAVPair@@@std@@QEAA@$$QEAVPair@@@Z
	??$?0VPair@@@?$_Tree_temp_node@V?$allocator@U?$_Tree_node@VPair@@PEAX@std@@@std@@@std@@QEAA@AEAV?$allocator@U?$_Tree_node@VPair@@PEAX@std@@@1@PEAU?$_Tree_node@VPair@@PEAX@1@$$QEAVPair@@@Z
	??$?0VPair@@@?$_Tuple_val@$$QEAVPair@@@std@@QEAA@$$QEAVPair@@@Z
	??$?0VPair@@@?$allocator@PEAVPair@@@std@@QEAA@AEBV?$allocator@VPair@@@1@@Z
	??$?0VPair@@@?$allocator@U_Container_proxy@std@@@std@@QEAA@AEBV?$allocator@VPair@@@1@@Z
	??$?0VPoint@@@?$allocator@U_Container_proxy@std@@@std@@QEAA@AEBV?$allocator@VPoint@@@1@@Z
	??$?0VPolyAtEdge@@@?$allocator@U_Container_proxy@std@@@std@@QEAA@AEBV?$allocator@VPolyAtEdge@@@1@@Z
	??$?0VStripPtL2@@@?$allocator@U_Container_proxy@std@@@std@@QEAA@AEBV?$allocator@VStripPtL2@@@1@@Z
	??$?0VStripPtL3@@@?$_Tree_temp_node@V?$allocator@U?$_Tree_node@VStripPtL3@@PEAX@std@@@std@@@std@@QEAA@AEAV?$allocator@U?$_Tree_node@VStripPtL3@@PEAX@std@@@1@PEAU?$_Tree_node@VStripPtL3@@PEAX@1@$$QEAVStripPtL3@@@Z
	??$?0VStripPtL3@@@?$allocator@U_Container_proxy@std@@@std@@QEAA@AEBV?$allocator@VStripPtL3@@@1@@Z
	??$?0VStripPtL@@@?$_Tree_temp_node@V?$allocator@U?$_Tree_node@VStripPtL@@PEAX@std@@@std@@@std@@QEAA@AEAV?$allocator@U?$_Tree_node@VStripPtL@@PEAX@std@@@1@PEAU?$_Tree_node@VStripPtL@@PEAX@1@$$QEAVStripPtL@@@Z
	??$?0VStripPtL@@@?$allocator@U_Container_proxy@std@@@std@@QEAA@AEBV?$allocator@VStripPtL@@@1@@Z
	??$?0VStripPtR@@@?$allocator@PEAVStripPtR@@@std@@QEAA@AEBV?$allocator@VStripPtR@@@1@@Z
	??$?0VStripPtR@@@?$allocator@U_Container_proxy@std@@@std@@QEAA@AEBV?$allocator@VStripPtR@@@1@@Z
	??$?0VVert6@@@?$allocator@U_Container_proxy@std@@@std@@QEAA@AEBV?$allocator@VVert6@@@1@@Z
	??$?6DU?$char_traits@D@std@@_J@std@@YAAEAV?$basic_ostream@DU?$char_traits@D@std@@@0@AEAV10@AEBU?$_Smanip@_J@0@@Z
	??$?6U?$char_traits@D@std@@@std@@YAAEAV?$basic_ostream@DU?$char_traits@D@std@@@0@AEAV10@PEBD@Z
	??$?8HH@std@@YA_NAEBV?$allocator@H@0@0@Z
	??$?8PEAVStripPtL3@@PEAV0@@std@@YA_NAEBV?$reverse_iterator@PEAVStripPtL3@@@0@0@Z
	??$?8V?$_Deque_iterator@V?$_Deque_val@U?$_Deque_simple_types@VStripPtR@@@std@@@std@@@std@@V01@@std@@YA_NAEBV?$reverse_iterator@V?$_Deque_iterator@V?$_Deque_val@U?$_Deque_simple_types@VStripPtR@@@std@@@std@@@std@@@0@0@Z
	??$?8V?$_Deque_unchecked_iterator@V?$_Deque_val@U?$_Deque_simple_types@VStripPtR@@@std@@@std@@@std@@V01@@std@@YA_NAEBV?$reverse_iterator@V?$_Deque_unchecked_iterator@V?$_Deque_val@U?$_Deque_simple_types@VStripPtR@@@std@@@std@@@std@@@0@0@Z
	??$?8V?$_Vector_const_iterator@V?$_Vector_val@U?$_Simple_types@VPair@@@std@@@std@@@std@@V01@@std@@YA_NAEBV?$reverse_iterator@V?$_Vector_const_iterator@V?$_Vector_val@U?$_Simple_types@VPair@@@std@@@std@@@std@@@0@0@Z
	??$?8V?$_Vector_iterator@V?$_Vector_val@U?$_Simple_types@V?$reference_wrapper@VStripPtR@@@std@@@std@@@std@@@std@@V01@@std@@YA_NAEBV?$reverse_iterator@V?$_Vector_iterator@V?$_Vector_val@U?$_Simple_types@V?$reference_wrapper@VStripPtR@@@std@@@std@@@std@@@std@@@0@0@Z
	??$?9PEAVStripPtL3@@PEAV0@@std@@YA_NAEBV?$reverse_iterator@PEAVStripPtL3@@@0@0@Z
	??$?9V?$_Deque_iterator@V?$_Deque_val@U?$_Deque_simple_types@VStripPtR@@@std@@@std@@@std@@V01@@std@@YA_NAEBV?$reverse_iterator@V?$_Deque_iterator@V?$_Deque_val@U?$_Deque_simple_types@VStripPtR@@@std@@@std@@@std@@@0@0@Z
	??$?9V?$_Deque_unchecked_iterator@V?$_Deque_val@U?$_Deque_simple_types@VStripPtR@@@std@@@std@@@std@@V01@@std@@YA_NAEBV?$reverse_iterator@V?$_Deque_unchecked_iterator@V?$_Deque_val@U?$_Deque_simple_types@VStripPtR@@@std@@@std@@@std@@@0@0@Z
	??$?9V?$_Vector_const_iterator@V?$_Vector_val@U?$_Simple_types@VPair@@@std@@@std@@@std@@V01@@std@@YA_NAEBV?$reverse_iterator@V?$_Vector_const_iterator@V?$_Vector_val@U?$_Simple_types@VPair@@@std@@@std@@@std@@@0@0@Z
	??$?9V?$_Vector_iterator@V?$_Vector_val@U?$_Simple_types@V?$reference_wrapper@VStripPtR@@@std@@@std@@@std@@@std@@V01@@std@@YA_NAEBV?$reverse_iterator@V?$_Vector_iterator@V?$_Vector_val@U?$_Simple_types@V?$reference_wrapper@VStripPtR@@@std@@@std@@@std@@@std@@@0@0@Z
	??$?CVObj@@$0A@@?$shared_ptr@VObj@@@std@@QEBAPEAVObj@@XZ
	??$?DVBB@@$0A@@?$shared_ptr@VBB@@@std@@QEBAAEAVBB@@XZ
	??$?DVLine@@$0A@@?$shared_ptr@VLine@@@std@@QEBAAEAVLine@@XZ
	??$?DVObj@@$0A@@?$shared_ptr@VObj@@@std@@QEBAAEAVObj@@XZ
	??$?GPEAVStripPtL3@@PEAV0@@std@@YA_JAEBV?$reverse_iterator@PEAVStripPtL3@@@0@0@Z
	??$?GV?$_Deque_unchecked_iterator@V?$_Deque_val@U?$_Deque_simple_types@VStripPtR@@@std@@@std@@@std@@V01@@std@@YA_JAEBV?$reverse_iterator@V?$_Deque_unchecked_iterator@V?$_Deque_val@U?$_Deque_simple_types@VStripPtR@@@std@@@std@@@std@@@0@0@Z
	??$?MAEBHAEBH$$ZAEBHAEBH@std@@YA_NAEBV?$tuple@AEBHAEBH@0@0@Z
	??$?MAEBHAEBHAEBH$$ZAEBHAEBHAEBH@std@@YA_NAEBV?$tuple@AEBHAEBHAEBH@0@0@Z
	??$?MPEAVStripPtL3@@PEAV0@@std@@YA_NAEBV?$reverse_iterator@PEAVStripPtL3@@@0@0@Z
	??$?RAEAVInterPtType@@AEAV0@@?$less@X@std@@QEBA_NAEAVInterPtType@@0@Z
	??$?RAEAVInterPtType@@AEBV0@@?$less@X@std@@QEBA_NAEAVInterPtType@@AEBV2@@Z
	??$?RAEAVStripPtL3@@AEAV0@@?$less@X@std@@QEBA_NAEAVStripPtL3@@0@Z
	??$_Adl_verify_range@PEAV?$deque@VStripPtR@@V?$allocator@VStripPtR@@@std@@@std@@PEAV12@@std@@YAXAEBQEAV?$deque@VStripPtR@@V?$allocator@VStripPtR@@@std@@@0@0@Z
	??$_Adl_verify_range@PEAVPair@@PEAV1@@std@@YAXAEBQEAVPair@@0@Z
	??$_Adl_verify_range@V?$_Deque_iterator@V?$_Deque_val@U?$_Deque_simple_types@H@std@@@std@@@std@@V12@@std@@YAXAEBV?$_Deque_iterator@V?$_Deque_val@U?$_Deque_simple_types@H@std@@@std@@@0@0@Z
	??$_Adl_verify_range@V?$_Deque_iterator@V?$_Deque_val@U?$_Deque_simple_types@VStripPtR@@@std@@@std@@@std@@V12@@std@@YAXAEBV?$_Deque_iterator@V?$_Deque_val@U?$_Deque_simple_types@VStripPtR@@@std@@@std@@@0@0@Z
	??$_Adl_verify_range@V?$_Deque_unchecked_iterator@V?$_Deque_val@U?$_Deque_simple_types@VStripPtR@@@std@@@std@@@std@@V12@@std@@YAXAEBV?$_Deque_unchecked_iterator@V?$_Deque_val@U?$_Deque_simple_types@VStripPtR@@@std@@@std@@@0@0@Z
	??$_Adl_verify_range@V?$_Tree_const_iterator@V?$_Tree_val@U?$_Tree_simple_types@H@std@@@std@@@std@@V12@@std@@YAXAEBV?$_Tree_const_iterator@V?$_Tree_val@U?$_Tree_simple_types@H@std@@@std@@@0@0@Z
	??$_Adl_verify_range@V?$_Tree_const_iterator@V?$_Tree_val@U?$_Tree_simple_types@VStripPtL3@@@std@@@std@@@std@@V12@@std@@YAXAEBV?$_Tree_const_iterator@V?$_Tree_val@U?$_Tree_simple_types@VStripPtL3@@@std@@@std@@@0@0@Z
	??$_Adl_verify_range@V?$_Tree_unchecked_const_iterator@V?$_Tree_val@U?$_Tree_simple_types@U?$pair@$$CBHVStripPt@@@std@@@std@@@std@@U_Iterator_base0@2@@std@@V12@@std@@YAXAEBV?$_Tree_unchecked_const_iterator@V?$_Tree_val@U?$_Tree_simple_types@U?$pair@$$CBHVStripPt@@@std@@@std@@@std@@U_Iterator_base0@2@@0@0@Z
	??$_Adl_verify_range@V?$_Tree_unchecked_const_iterator@V?$_Tree_val@U?$_Tree_simple_types@VStripPtL3@@@std@@@std@@U_Iterator_base0@2@@std@@V12@@std@@YAXAEBV?$_Tree_unchecked_const_iterator@V?$_Tree_val@U?$_Tree_simple_types@VStripPtL3@@@std@@@std@@U_Iterator_base0@2@@0@0@Z
	??$_Adl_verify_range@V?$_Vector_const_iterator@V?$_Vector_val@U?$_Simple_types@H@std@@@std@@@std@@V12@@std@@YAXAEBV?$_Vector_const_iterator@V?$_Vector_val@U?$_Simple_types@H@std@@@std@@@0@0@Z
	??$_Adl_verify_range@V?$_Vector_iterator@V?$_Vector_val@U?$_Simple_types@H@std@@@std@@@std@@V12@@std@@YAXAEBV?$_Vector_iterator@V?$_Vector_val@U?$_Simple_types@H@std@@@std@@@0@0@Z
	??$_Adl_verify_range@V?$_Vector_iterator@V?$_Vector_val@U?$_Simple_types@PEBVInterPtType@@@std@@@std@@@std@@V12@@std@@YAXAEBV?$_Vector_iterator@V?$_Vector_val@U?$_Simple_types@PEBVInterPtType@@@std@@@std@@@0@0@Z
	??$_Adl_verify_range@V?$_Vector_iterator@V?$_Vector_val@U?$_Simple_types@V?$deque@VStripPtR@@V?$allocator@VStripPtR@@@std@@@std@@@std@@@std@@@std@@V12@@std@@YAXAEBV?$_Vector_iterator@V?$_Vector_val@U?$_Simple_types@V?$deque@VStripPtR@@V?$allocator@VStripPtR@@@std@@@std@@@std@@@std@@@0@0@Z
	??$_Adl_verify_range@V?$_Vector_iterator@V?$_Vector_val@U?$_Simple_types@V?$reference_wrapper@VStripPtR@@@std@@@std@@@std@@@std@@V12@@std@@YAXAEBV?$_Vector_iterator@V?$_Vector_val@U?$_Simple_types@V?$reference_wrapper@VStripPtR@@@std@@@std@@@std@@@0@0@Z
	??$_Adl_verify_range@V?$_Vector_iterator@V?$_Vector_val@U?$_Simple_types@VInterPtType@@@std@@@std@@@std@@V12@@std@@YAXAEBV?$_Vector_iterator@V?$_Vector_val@U?$_Simple_types@VInterPtType@@@std@@@std@@@0@0@Z
	??$_Adl_verify_range@V?$_Vector_iterator@V?$_Vector_val@U?$_Simple_types@VPoint@@@std@@@std@@@std@@V12@@std@@YAXAEBV?$_Vector_iterator@V?$_Vector_val@U?$_Simple_types@VPoint@@@std@@@std@@@0@0@Z
	??$_Adl_verify_range@V?$_Vector_iterator@V?$_Vector_val@U?$_Simple_types@VStripPtL3@@@std@@@std@@@std@@V12@@std@@YAXAEBV?$_Vector_iterator@V?$_Vector_val@U?$_Simple_types@VStripPtL3@@@std@@@std@@@0@0@Z
	??$_Adl_verify_range@V?$reverse_iterator@V?$_Deque_iterator@V?$_Deque_val@U?$_Deque_simple_types@VStripPtR@@@std@@@std@@@std@@@std@@V12@@std@@YAXAEBV?$reverse_iterator@V?$_Deque_iterator@V?$_Deque_val@U?$_Deque_simple_types@VStripPtR@@@std@@@std@@@std@@@0@0@Z
	??$_Adl_verify_range@V?$reverse_iterator@V?$_Vector_iterator@V?$_Vector_val@U?$_Simple_types@VStripPtL3@@@std@@@std@@@std@@@std@@V12@@std@@YAXAEBV?$reverse_iterator@V?$_Vector_iterator@V?$_Vector_val@U?$_Simple_types@VStripPtL3@@@std@@@std@@@std@@@0@0@Z
	??$_Alloc_proxy@V?$allocator@U_Container_proxy@std@@@std@@@_Container_base12@std@@QEAAX$$QEAV?$allocator@U_Container_proxy@std@@@1@@Z
	??$_Allocate@$0BA@U_Default_allocate_traits@std@@$0A@@std@@YAPEAX_K@Z
	??$_Allocate_manually_vector_aligned@U_Default_allocate_traits@std@@@std@@YAPEAX_K@Z
	??$_Assign_range@PEAVPair@@@?$vector@VPair@@V?$allocator@VPair@@@std@@@std@@AEAAXPEAVPair@@0Uforward_iterator_tag@1@@Z
	??$_Buyheadnode@V?$allocator@U?$_Tree_node@HPEAX@std@@@std@@@?$_Tree_node@HPEAX@std@@SAPEAU01@AEAV?$allocator@U?$_Tree_node@HPEAX@std@@@1@@Z
	??$_Buyheadnode@V?$allocator@U?$_Tree_node@U?$pair@$$CBHH@std@@PEAX@std@@@std@@@?$_Tree_node@U?$pair@$$CBHH@std@@PEAX@std@@SAPEAU01@AEAV?$allocator@U?$_Tree_node@U?$pair@$$CBHH@std@@PEAX@std@@@1@@Z
	??$_Buyheadnode@V?$allocator@U?$_Tree_node@U?$pair@$$CBHV?$set@HU?$less@H@std@@V?$allocator@H@2@@std@@@std@@PEAX@std@@@std@@@?$_Tree_node@U?$pair@$$CBHV?$set@HU?$less@H@std@@V?$allocator@H@2@@std@@@std@@PEAX@std@@SAPEAU01@AEAV?$allocator@U?$_Tree_node@U?$pair@$$CBHV?$set@HU?$less@H@std@@V?$allocator@H@2@@std@@@std@@PEAX@std@@@1@@Z
	??$_Buyheadnode@V?$allocator@U?$_Tree_node@U?$pair@$$CBHV?$vector@HV?$allocator@H@std@@@std@@@std@@PEAX@std@@@std@@@?$_Tree_node@U?$pair@$$CBHV?$vector@HV?$allocator@H@std@@@std@@@std@@PEAX@std@@SAPEAU01@AEAV?$allocator@U?$_Tree_node@U?$pair@$$CBHV?$vector@HV?$allocator@H@std@@@std@@@std@@PEAX@std@@@1@@Z
	??$_Buyheadnode@V?$allocator@U?$_Tree_node@U?$pair@$$CBHV?$vector@V?$reference_wrapper@VStripPtR@@@std@@V?$allocator@V?$reference_wrapper@VStripPtR@@@std@@@2@@std@@@std@@PEAX@std@@@std@@@?$_Tree_node@U?$pair@$$CBHV?$vector@V?$reference_wrapper@VStripPtR@@@std@@V?$allocator@V?$reference_wrapper@VStripPtR@@@std@@@2@@std@@@std@@PEAX@std@@SAPEAU01@AEAV?$allocator@U?$_Tree_node@U?$pair@$$CBHV?$vector@V?$reference_wrapper@VStripPtR@@@std@@V?$allocator@V?$reference_wrapper@VStripPtR@@@std@@@2@@std@@@std@@PEAX@std@@@1@@Z
	??$_Buyheadnode@V?$allocator@U?$_Tree_node@U?$pair@$$CBHVPStrips@@@std@@PEAX@std@@@std@@@?$_Tree_node@U?$pair@$$CBHVPStrips@@@std@@PEAX@std@@SAPEAU01@AEAV?$allocator@U?$_Tree_node@U?$pair@$$CBHVPStrips@@@std@@PEAX@std@@@1@@Z
	??$_Buyheadnode@V?$allocator@U?$_Tree_node@U?$pair@$$CBHVStripPt@@@std@@PEAX@std@@@std@@@?$_Tree_node@U?$pair@$$CBHVStripPt@@@std@@PEAX@std@@SAPEAU01@AEAV?$allocator@U?$_Tree_node@U?$pair@$$CBHVStripPt@@@std@@PEAX@std@@@1@@Z
	??$_Buyheadnode@V?$allocator@U?$_Tree_node@U?$pair@$$CBHW4Rel@@@std@@PEAX@std@@@std@@@?$_Tree_node@U?$pair@$$CBHW4Rel@@@std@@PEAX@std@@SAPEAU01@AEAV?$allocator@U?$_Tree_node@U?$pair@$$CBHW4Rel@@@std@@PEAX@std@@@1@@Z
	??$_Buyheadnode@V?$allocator@U?$_Tree_node@U?$pair@$$CBVPair@@V?$map@HHU?$less@H@std@@V?$allocator@U?$pair@$$CBHH@std@@@2@@std@@@std@@PEAX@std@@@std@@@?$_Tree_node@U?$pair@$$CBVPair@@V?$map@HHU?$less@H@std@@V?$allocator@U?$pair@$$CBHH@std@@@2@@std@@@std@@PEAX@std@@SAPEAU01@AEAV?$allocator@U?$_Tree_node@U?$pair@$$CBVPair@@V?$map@HHU?$less@H@std@@V?$allocator@U?$pair@$$CBHH@std@@@2@@std@@@std@@PEAX@std@@@1@@Z
	??$_Buyheadnode@V?$allocator@U?$_Tree_node@V?$reference_wrapper@VStripPt@@@std@@PEAX@std@@@std@@@?$_Tree_node@V?$reference_wrapper@VStripPt@@@std@@PEAX@std@@SAPEAU01@AEAV?$allocator@U?$_Tree_node@V?$reference_wrapper@VStripPt@@@std@@PEAX@std@@@1@@Z
	??$_Buyheadnode@V?$allocator@U?$_Tree_node@VPair@@PEAX@std@@@std@@@?$_Tree_node@VPair@@PEAX@std@@SAPEAU01@AEAV?$allocator@U?$_Tree_node@VPair@@PEAX@std@@@1@@Z
	??$_Buyheadnode@V?$allocator@U?$_Tree_node@VStripPtL3@@PEAX@std@@@std@@@?$_Tree_node@VStripPtL3@@PEAX@std@@SAPEAU01@AEAV?$allocator@U?$_Tree_node@VStripPtL3@@PEAX@std@@@1@@Z
	??$_Buyheadnode@V?$allocator@U?$_Tree_node@VStripPtL@@PEAX@std@@@std@@@?$_Tree_node@VStripPtL@@PEAX@std@@SAPEAU01@AEAV?$allocator@U?$_Tree_node@VStripPtL@@PEAX@std@@@1@@Z
	??$_Buynode@AEAU?$pair@$$CBHVStripPt@@@std@@@?$_Tree@V?$_Tmap_traits@HVStripPt@@U?$less@H@std@@V?$allocator@U?$pair@$$CBHVStripPt@@@std@@@3@$0A@@std@@@std@@IEAAPEAU?$_Tree_node@U?$pair@$$CBHVStripPt@@@std@@PEAX@1@AEAU?$pair@$$CBHVStripPt@@@1@@Z
	??$_Buynode@V?$allocator@U?$_Tree_node@U?$pair@$$CBHVStripPt@@@std@@PEAX@std@@@std@@AEAU?$pair@$$CBHVStripPt@@@2@@?$_Tree_node@U?$pair@$$CBHVStripPt@@@std@@PEAX@std@@SAPEAU01@AEAV?$allocator@U?$_Tree_node@U?$pair@$$CBHVStripPt@@@std@@PEAX@std@@@1@PEAU01@AEAU?$pair@$$CBHVStripPt@@@1@@Z
	??$_Const_cast@$$CBH@std@@YA@PEBH@Z
	??$_Const_cast@$$CBV?$deque@VStripPtR@@V?$allocator@VStripPtR@@@std@@@std@@@std@@YA@PEBV?$deque@VStripPtR@@V?$allocator@VStripPtR@@@std@@@0@@Z
	??$_Const_cast@$$CBV?$reference_wrapper@VStripPtR@@@std@@@std@@YA@PEBV?$reference_wrapper@VStripPtR@@@0@@Z
	??$_Const_cast@$$CBVInterPtType@@@std@@YA@PEBVInterPtType@@@Z
	??$_Const_cast@$$CBVMergePt@@@std@@YA@PEBVMergePt@@@Z
	??$_Const_cast@$$CBVStripPtL3@@@std@@YA@PEBVStripPtL3@@@Z
	??$_Construct@PEBH@?$deque@HV?$allocator@H@std@@@std@@AEAAXPEBH0@Z
	??$_Construct@V?$_Deque_unchecked_const_iterator@V?$_Deque_val@U?$_Deque_simple_types@VStripPtR@@@std@@@std@@@std@@@?$deque@VStripPtR@@V?$allocator@VStripPtR@@@std@@@std@@AEAAXV?$_Deque_unchecked_const_iterator@V?$_Deque_val@U?$_Deque_simple_types@VStripPtR@@@std@@@std@@@1@0@Z
	??$_Construct@V?$_Vector_iterator@V?$_Vector_val@U?$_Simple_types@H@std@@@std@@@std@@@?$deque@HV?$allocator@H@std@@@std@@AEAAXV?$_Vector_iterator@V?$_Vector_val@U?$_Simple_types@H@std@@@std@@@1@0@Z
	??$_Construct@V?$reverse_iterator@V?$_Deque_iterator@V?$_Deque_val@U?$_Deque_simple_types@VStripPtR@@@std@@@std@@@std@@@std@@@?$deque@VStripPtR@@V?$allocator@VStripPtR@@@std@@@std@@AEAAXV?$reverse_iterator@V?$_Deque_iterator@V?$_Deque_val@U?$_Deque_simple_types@VStripPtR@@@std@@@std@@@std@@@1@0@Z
	??$_Construct_n_copies_of_ty@U_Value_init_tag@std@@@?$vector@V?$vector@HV?$allocator@H@std@@@std@@V?$allocator@V?$vector@HV?$allocator@H@std@@@std@@@2@@std@@AEAAX_KAEBU_Value_init_tag@1@@Z
	??$_Convert_size@_K@std@@YA_K_K@Z
	??$_Copy@U_Copy_tag@?$_Tree@V?$_Tmap_traits@HVStripPt@@U?$less@H@std@@V?$allocator@U?$pair@$$CBHVStripPt@@@std@@@3@$0A@@std@@@std@@@?$_Tree@V?$_Tmap_traits@HVStripPt@@U?$less@H@std@@V?$allocator@U?$pair@$$CBHVStripPt@@@std@@@3@$0A@@std@@@std@@IEAAXAEBV01@U_Copy_tag@01@@Z
	??$_Copy_backward_memmove@PEAV?$reference_wrapper@VStripPtR@@@std@@PEAV12@@std@@YAPEAV?$reference_wrapper@VStripPtR@@@0@PEAV10@00@Z
	??$_Copy_backward_memmove@PEAVInterPtType@@PEAV1@@std@@YAPEAVInterPtType@@PEAV1@00@Z
	??$_Copy_construct_from@VLine@@@?$_Ptr_base@VObj@@@std@@IEAAXAEBV?$shared_ptr@VLine@@@1@@Z
	??$_Copy_construct_from@VObj@@@?$_Ptr_base@VObj@@@std@@IEAAXAEBV?$shared_ptr@VObj@@@1@@Z
	??$_Copy_memmove@PEAHPEAH@std@@YAPEAHPEAH00@Z
	??$_Copy_memmove@PEAPEAHPEAPEAH@std@@YAPEAPEAHPEAPEAH00@Z
	??$_Copy_memmove@PEAPEAV?$vector@HV?$allocator@H@std@@@std@@PEAPEAV12@@std@@YAPEAPEAV?$vector@HV?$allocator@H@std@@@0@PEAPEAV10@00@Z
	??$_Copy_memmove@PEAPEAVStripPtR@@PEAPEAV1@@std@@YAPEAPEAVStripPtR@@PEAPEAV1@00@Z
	??$_Copy_memmove@PEAPEBVInterPtType@@PEAPEBV1@@std@@YAPEAPEBVInterPtType@@PEAPEBV1@00@Z
	??$_Copy_memmove@PEAV?$reference_wrapper@VStripPtR@@@std@@PEAV12@@std@@YAPEAV?$reference_wrapper@VStripPtR@@@0@PEAV10@00@Z
	??$_Copy_memmove@PEAVPair@@PEAV1@@std@@YAPEAVPair@@PEAV1@00@Z
	??$_Copy_memmove@PEBNPEAN@std@@YAPEANPEBN0PEAN@Z
	??$_Copy_nodes@U_Copy_tag@?$_Tree@V?$_Tmap_traits@HVStripPt@@U?$less@H@std@@V?$allocator@U?$pair@$$CBHVStripPt@@@std@@@3@$0A@@std@@@std@@@?$_Tree@V?$_Tmap_traits@HVStripPt@@U?$less@H@std@@V?$allocator@U?$pair@$$CBHVStripPt@@@std@@@3@$0A@@std@@@std@@IEAAPEAU?$_Tree_node@U?$pair@$$CBHVStripPt@@@std@@PEAX@1@PEAU21@0U_Copy_tag@01@@Z
	??$_Copy_or_move@U?$pair@$$CBHVStripPt@@@std@@U?$integral_constant@_N$0A@@2@@?$_Tree@V?$_Tmap_traits@HVStripPt@@U?$less@H@std@@V?$allocator@U?$pair@$$CBHVStripPt@@@std@@@3@$0A@@std@@@std@@IEAAPEAU?$_Tree_node@U?$pair@$$CBHVStripPt@@@std@@PEAX@1@AEAU?$pair@$$CBHVStripPt@@@1@U_Copy_tag@01@U?$integral_constant@_N$0A@@1@@Z
	??$_Deallocate@$0BA@$0A@@std@@YAXPEAX_K@Z
	??$_Deallocate_plain@V?$allocator@U_Container_proxy@std@@@std@@@std@@YAXAEAV?$allocator@U_Container_proxy@std@@@0@QEAU_Container_proxy@0@@Z
	??$_Debug_lt_pred@AEAU?$less@X@std@@AEAVInterPtType@@AEAV3@$0A@@std@@YA_NAEAU?$less@X@0@AEAVInterPtType@@1@Z
	??$_Debug_lt_pred@AEAU?$less@X@std@@AEAVStripPtL3@@AEAV3@$0A@@std@@YA_NAEAU?$less@X@0@AEAVStripPtL3@@1@Z
	??$_Debug_lt_pred@AEBU?$less@H@std@@AEBHAEBH$0A@@std@@YA_NAEBU?$less@H@0@AEBH1@Z
	??$_Debug_lt_pred@AEBU?$less@VPair@@@std@@AEBVPair@@AEBV3@$0A@@std@@YA_NAEBU?$less@VPair@@@0@AEBVPair@@1@Z
	??$_Debug_lt_pred@AEBU?$less@VStripPtL@@@std@@AEBVStripPtL@@AEBV3@$0A@@std@@YA_NAEBU?$less@VStripPtL@@@0@AEBVStripPtL@@1@Z
	??$_Delete_plain@V?$allocator@U_Container_proxy@std@@@std@@@std@@YAXAEAV?$allocator@U_Container_proxy@std@@@0@QEAU_Container_proxy@0@@Z
	??$_Destroy_range@V?$allocator@H@std@@@std@@YAXPEAHQEAHAEAV?$allocator@H@0@@Z
	??$_Destroy_range@V?$allocator@PEAH@std@@@std@@YAXPEAPEAHQEAPEAHAEAV?$allocator@PEAH@0@@Z
	??$_Destroy_range@V?$allocator@PEAV?$vector@HV?$allocator@H@std@@@std@@@std@@@std@@YAXPEAPEAV?$vector@HV?$allocator@H@std@@@0@QEAPEAV10@AEAV?$allocator@PEAV?$vector@HV?$allocator@H@std@@@std@@@0@@Z
	??$_Destroy_range@V?$allocator@PEAVStripPtR@@@std@@@std@@YAXPEAPEAVStripPtR@@QEAPEAV1@AEAV?$allocator@PEAVStripPtR@@@0@@Z
	??$_Destroy_range@V?$allocator@PEBVInterPtType@@@std@@@std@@YAXPEAPEBVInterPtType@@QEAPEBV1@AEAV?$allocator@PEBVInterPtType@@@0@@Z
	??$_Destroy_range@V?$allocator@U?$pair@VInterPtType@@V1@@std@@@std@@@std@@YAXPEAU?$pair@VInterPtType@@V1@@0@QEAU10@AEAV?$allocator@U?$pair@VInterPtType@@V1@@std@@@0@@Z
	??$_Destroy_range@V?$allocator@V?$_List_unchecked_const_iterator@V?$_List_val@U?$_List_simple_types@VPair@@@std@@@std@@U_Iterator_base0@2@@std@@@std@@@std@@YAXPEAV?$_List_unchecked_const_iterator@V?$_List_val@U?$_List_simple_types@VPair@@@std@@@std@@U_Iterator_base0@2@@0@QEAV10@AEAV?$allocator@V?$_List_unchecked_const_iterator@V?$_List_val@U?$_List_simple_types@VPair@@@std@@@std@@U_Iterator_base0@2@@std@@@0@@Z
	??$_Destroy_range@V?$allocator@V?$_List_unchecked_iterator@V?$_List_val@U?$_List_simple_types@U?$pair@$$CBVPair@@VSubP@@@std@@@std@@@std@@@std@@@std@@@std@@YAXPEAV?$_List_unchecked_iterator@V?$_List_val@U?$_List_simple_types@U?$pair@$$CBVPair@@VSubP@@@std@@@std@@@std@@@0@QEAV10@AEAV?$allocator@V?$_List_unchecked_iterator@V?$_List_val@U?$_List_simple_types@U?$pair@$$CBVPair@@VSubP@@@std@@@std@@@std@@@std@@@0@@Z
	??$_Destroy_range@V?$allocator@V?$deque@VStripPtR@@V?$allocator@VStripPtR@@@std@@@std@@@std@@@std@@YAXPEAV?$deque@VStripPtR@@V?$allocator@VStripPtR@@@std@@@0@QEAV10@AEAV?$allocator@V?$deque@VStripPtR@@V?$allocator@VStripPtR@@@std@@@std@@@0@@Z
	??$_Destroy_range@V?$allocator@V?$reference_wrapper@VStripPt@@@std@@@std@@@std@@YAXPEAV?$reference_wrapper@VStripPt@@@0@QEAV10@AEAV?$allocator@V?$reference_wrapper@VStripPt@@@std@@@0@@Z
	??$_Destroy_range@V?$allocator@V?$reference_wrapper@VStripPtR@@@std@@@std@@@std@@YAXPEAV?$reference_wrapper@VStripPtR@@@0@QEAV10@AEAV?$allocator@V?$reference_wrapper@VStripPtR@@@std@@@0@@Z
	??$_Destroy_range@V?$allocator@V?$shared_ptr@VLine@@@std@@@std@@@std@@YAXPEAV?$shared_ptr@VLine@@@0@QEAV10@AEAV?$allocator@V?$shared_ptr@VLine@@@std@@@0@@Z
	??$_Destroy_range@V?$allocator@V?$shared_ptr@VObj@@@std@@@std@@@std@@YAXPEAV?$shared_ptr@VObj@@@0@QEAV10@AEAV?$allocator@V?$shared_ptr@VObj@@@std@@@0@@Z
	??$_Destroy_range@V?$allocator@V?$vector@HV?$allocator@H@std@@@std@@@std@@@std@@YAXPEAV?$vector@HV?$allocator@H@std@@@0@QEAV10@AEAV?$allocator@V?$vector@HV?$allocator@H@std@@@std@@@0@@Z
	??$_Destroy_range@V?$allocator@V?$vector@VPoint@@V?$allocator@VPoint@@@std@@@std@@@std@@@std@@YAXPEAV?$vector@VPoint@@V?$allocator@VPoint@@@std@@@0@QEAV10@AEAV?$allocator@V?$vector@VPoint@@V?$allocator@VPoint@@@std@@@std@@@0@@Z
	??$_Destroy_range@V?$allocator@VInterPtType@@@std@@@std@@YAXPEAVInterPtType@@QEAV1@AEAV?$allocator@VInterPtType@@@0@@Z
	??$_Destroy_range@V?$allocator@VMergePt@@@std@@@std@@YAXPEAVMergePt@@QEAV1@AEAV?$allocator@VMergePt@@@0@@Z
	??$_Destroy_range@V?$allocator@VNode@@@std@@@std@@YAXPEAVNode@@QEAV1@AEAV?$allocator@VNode@@@0@@Z
	??$_Destroy_range@V?$allocator@VPair@@@std@@@std@@YAXPEAVPair@@QEAV1@AEAV?$allocator@VPair@@@0@@Z
	??$_Destroy_range@V?$allocator@VPoint@@@std@@@std@@YAXPEAVPoint@@QEAV1@AEAV?$allocator@VPoint@@@0@@Z
	??$_Destroy_range@V?$allocator@VPolyAtEdge@@@std@@@std@@YAXPEAVPolyAtEdge@@QEAV1@AEAV?$allocator@VPolyAtEdge@@@0@@Z
	??$_Destroy_range@V?$allocator@VStripPtL2@@@std@@@std@@YAXPEAVStripPtL2@@QEAV1@AEAV?$allocator@VStripPtL2@@@0@@Z
	??$_Destroy_range@V?$allocator@VStripPtL3@@@std@@@std@@YAXPEAVStripPtL3@@QEAV1@AEAV?$allocator@VStripPtL3@@@0@@Z
	??$_Destroy_range@V?$allocator@VStripPtL@@@std@@@std@@YAXPEAVStripPtL@@QEAV1@AEAV?$allocator@VStripPtL@@@0@@Z
	??$_Destroy_range@V?$allocator@VVert6@@@std@@@std@@YAXPEAVVert6@@QEAV1@AEAV?$allocator@VVert6@@@0@@Z
	??$_Emplace@AEBH@?$_Tree@V?$_Tset_traits@HU?$less@H@std@@V?$allocator@H@2@$0A@@std@@@std@@IEAA?AU?$pair@PEAU?$_Tree_node@HPEAX@std@@_N@1@AEBH@Z
	??$_Emplace@H@?$_Tree@V?$_Tset_traits@HU?$less@H@std@@V?$allocator@H@2@$0A@@std@@@std@@IEAA?AU?$pair@PEAU?$_Tree_node@HPEAX@std@@_N@1@$$QEAH@Z
	??$_Emplace@VPair@@@?$_Tree@V?$_Tset_traits@VPair@@U?$less@VPair@@@std@@V?$allocator@VPair@@@3@$0A@@std@@@std@@IEAA?AU?$pair@PEAU?$_Tree_node@VPair@@PEAX@std@@_N@1@$$QEAVPair@@@Z
	??$_Emplace@VStripPtL@@@?$_Tree@V?$_Tset_traits@VStripPtL@@U?$less@VStripPtL@@@std@@V?$allocator@VStripPtL@@@3@$0A@@std@@@std@@IEAA?AU?$pair@PEAU?$_Tree_node@VStripPtL@@PEAX@std@@_N@1@$$QEAVStripPtL@@@Z
	??$_Emplace_back@$$V@?$_Uninitialized_backout_al@V?$allocator@V?$vector@HV?$allocator@H@std@@@std@@@std@@@std@@QEAAXXZ
	??$_Emplace_back@AEAV?$deque@VStripPtR@@V?$allocator@VStripPtR@@@std@@@std@@@?$_Uninitialized_backout_al@V?$allocator@V?$deque@VStripPtR@@V?$allocator@VStripPtR@@@std@@@std@@@std@@@std@@QEAAXAEAV?$deque@VStripPtR@@V?$allocator@VStripPtR@@@std@@@1@@Z
	??$_Emplace_back@AEAVPair@@@?$_Uninitialized_backout_al@V?$allocator@VPair@@@std@@@std@@QEAAXAEAVPair@@@Z
	??$_Emplace_back@AEAVPoint@@@?$_Uninitialized_backout_al@V?$allocator@VPoint@@@std@@@std@@QEAAXAEAVPoint@@@Z
	??$_Emplace_back@AEAVStripPtL3@@@?$_Uninitialized_backout_al@V?$allocator@VStripPtL3@@@std@@@std@@QEAAXAEAVStripPtL3@@@Z
	??$_Emplace_back@AEAVStripPtR@@@?$_Uninitialized_backout_al@V?$allocator@V?$reference_wrapper@VStripPtR@@@std@@@std@@@std@@QEAAXAEAVStripPtR@@@Z
	??$_Emplace_back@AEBVStripPtL3@@@?$_Uninitialized_backout_al@V?$allocator@VStripPtL3@@@std@@@std@@QEAAXAEBVStripPtL3@@@Z
	??$_Emplace_back@U?$pair@VInterPtType@@V1@@std@@@?$_Uninitialized_backout_al@V?$allocator@U?$pair@VInterPtType@@V1@@std@@@std@@@std@@QEAAX$$QEAU?$pair@VInterPtType@@V1@@1@@Z
	??$_Emplace_back@V?$deque@VStripPtR@@V?$allocator@VStripPtR@@@std@@@std@@@?$_Uninitialized_backout_al@V?$allocator@V?$deque@VStripPtR@@V?$allocator@VStripPtR@@@std@@@std@@@std@@@std@@QEAAX$$QEAV?$deque@VStripPtR@@V?$allocator@VStripPtR@@@std@@@1@@Z
	??$_Emplace_back@V?$reference_wrapper@VStripPt@@@std@@@?$_Uninitialized_backout_al@V?$allocator@V?$reference_wrapper@VStripPt@@@std@@@std@@@std@@QEAAX$$QEAV?$reference_wrapper@VStripPt@@@1@@Z
	??$_Emplace_back@V?$reference_wrapper@VStripPtR@@@std@@@?$_Uninitialized_backout_al@V?$allocator@V?$reference_wrapper@VStripPtR@@@std@@@std@@@std@@QEAAX$$QEAV?$reference_wrapper@VStripPtR@@@1@@Z
	??$_Emplace_back@V?$shared_ptr@VLine@@@std@@@?$_Uninitialized_backout_al@V?$allocator@V?$shared_ptr@VLine@@@std@@@std@@@std@@QEAAX$$QEAV?$shared_ptr@VLine@@@1@@Z
	??$_Emplace_back@V?$shared_ptr@VObj@@@std@@@?$_Uninitialized_backout_al@V?$allocator@V?$shared_ptr@VObj@@@std@@@std@@@std@@QEAAX$$QEAV?$shared_ptr@VObj@@@1@@Z
	??$_Emplace_back@V?$vector@HV?$allocator@H@std@@@std@@@?$_Uninitialized_backout_al@V?$allocator@V?$vector@HV?$allocator@H@std@@@std@@@std@@@std@@QEAAX$$QEAV?$vector@HV?$allocator@H@std@@@1@@Z
	??$_Emplace_back@VInterPtType@@@?$_Uninitialized_backout_al@V?$allocator@VInterPtType@@@std@@@std@@QEAAX$$QEAVInterPtType@@@Z
	??$_Emplace_back@VMergePt@@@?$_Uninitialized_backout_al@V?$allocator@VMergePt@@@std@@@std@@QEAAX$$QEAVMergePt@@@Z
	??$_Emplace_back@VNode@@@?$_Uninitialized_backout_al@V?$allocator@VNode@@@std@@@std@@QEAAX$$QEAVNode@@@Z
	??$_Emplace_back@VPair@@@?$_Uninitialized_backout_al@V?$allocator@VPair@@@std@@@std@@QEAAX$$QEAVPair@@@Z
	??$_Emplace_back@VPoint@@@?$_Uninitialized_backout_al@V?$allocator@VPoint@@@std@@@std@@QEAAX$$QEAVPoint@@@Z
	??$_Emplace_back@VPolyAtEdge@@@?$_Uninitialized_backout_al@V?$allocator@VPolyAtEdge@@@std@@@std@@QEAAX$$QEAVPolyAtEdge@@@Z
	??$_Emplace_back@VStripPtL2@@@?$_Uninitialized_backout_al@V?$allocator@VStripPtL2@@@std@@@std@@QEAAX$$QEAVStripPtL2@@@Z
	??$_Emplace_back@VStripPtL3@@@?$_Uninitialized_backout_al@V?$allocator@VStripPtL3@@@std@@@std@@QEAAX$$QEAVStripPtL3@@@Z
	??$_Emplace_back@VStripPtL@@@?$_Uninitialized_backout_al@V?$allocator@VStripPtL@@@std@@@std@@QEAAX$$QEAVStripPtL@@@Z
	??$_Emplace_back_with_unused_capacity@AEAV?$shared_ptr@VObj@@@std@@@?$vector@V?$shared_ptr@VObj@@@std@@V?$allocator@V?$shared_ptr@VObj@@@std@@@2@@std@@AEAA@AEAV?$shared_ptr@VObj@@@1@@Z
	??$_Emplace_back_with_unused_capacity@AEAV?$shared_ptr@VObj@@@std@@@?$vector@VNode@@V?$allocator@VNode@@@std@@@std@@AEAA@AEAV?$shared_ptr@VObj@@@1@@Z
	??$_Emplace_back_with_unused_capacity@AEBH@?$vector@HV?$allocator@H@std@@@std@@AEAA@AEBH@Z
	??$_Emplace_back_with_unused_capacity@AEBV?$deque@VStripPtR@@V?$allocator@VStripPtR@@@std@@@std@@@?$vector@V?$deque@VStripPtR@@V?$allocator@VStripPtR@@@std@@@std@@V?$allocator@V?$deque@VStripPtR@@V?$allocator@VStripPtR@@@std@@@std@@@2@@std@@AEAA@AEBV?$deque@VStripPtR@@V?$allocator@VStripPtR@@@std@@@1@@Z
	??$_Emplace_back_with_unused_capacity@AEBV?$vector@HV?$allocator@H@std@@@std@@@?$vector@V?$vector@HV?$allocator@H@std@@@std@@V?$allocator@V?$vector@HV?$allocator@H@std@@@std@@@2@@std@@AEAA@AEBV?$vector@HV?$allocator@H@std@@@1@@Z
	??$_Emplace_back_with_unused_capacity@AEBVInterPtType@@@?$vector@VInterPtType@@V?$allocator@VInterPtType@@@std@@@std@@AEAA@AEBVInterPtType@@@Z
	??$_Emplace_back_with_unused_capacity@H@?$vector@HV?$allocator@H@std@@@std@@AEAA@$$QEAH@Z
	??$_Emplace_back_with_unused_capacity@PEAVLine@@@?$vector@V?$shared_ptr@VLine@@@std@@V?$allocator@V?$shared_ptr@VLine@@@std@@@2@@std@@AEAA@$$QEAPEAVLine@@@Z
	??$_Emplace_back_with_unused_capacity@PEBVInterPtType@@@?$vector@PEBVInterPtType@@V?$allocator@PEBVInterPtType@@@std@@@std@@AEAA@$$QEAPEBVInterPtType@@@Z
	??$_Emplace_back_with_unused_capacity@U?$pair@VInterPtType@@V1@@std@@@?$vector@U?$pair@VInterPtType@@V1@@std@@V?$allocator@U?$pair@VInterPtType@@V1@@std@@@2@@std@@AEAA@$$QEAU?$pair@VInterPtType@@V1@@1@@Z
	??$_Emplace_back_with_unused_capacity@V?$reference_wrapper@VStripPt@@@std@@@?$vector@V?$reference_wrapper@VStripPt@@@std@@V?$allocator@V?$reference_wrapper@VStripPt@@@std@@@2@@std@@AEAA@$$QEAV?$reference_wrapper@VStripPt@@@1@@Z
	??$_Emplace_back_with_unused_capacity@V?$reference_wrapper@VStripPtR@@@std@@@?$vector@V?$reference_wrapper@VStripPtR@@@std@@V?$allocator@V?$reference_wrapper@VStripPtR@@@std@@@2@@std@@AEAA@$$QEAV?$reference_wrapper@VStripPtR@@@1@@Z
	??$_Emplace_back_with_unused_capacity@V?$vector@HV?$allocator@H@std@@@std@@@?$vector@V?$vector@HV?$allocator@H@std@@@std@@V?$allocator@V?$vector@HV?$allocator@H@std@@@std@@@2@@std@@AEAA@$$QEAV?$vector@HV?$allocator@H@std@@@1@@Z
	??$_Emplace_back_with_unused_capacity@VMergePt@@@?$vector@VMergePt@@V?$allocator@VMergePt@@@std@@@std@@AEAA@$$QEAVMergePt@@@Z
	??$_Emplace_back_with_unused_capacity@VPair@@@?$vector@VPair@@V?$allocator@VPair@@@std@@@std@@AEAA@$$QEAVPair@@@Z
	??$_Emplace_back_with_unused_capacity@VPoint@@@?$vector@VPoint@@V?$allocator@VPoint@@@std@@@std@@AEAA@$$QEAVPoint@@@Z
	??$_Emplace_back_with_unused_capacity@VPolyAtEdge@@@?$vector@VPolyAtEdge@@V?$allocator@VPolyAtEdge@@@std@@@std@@AEAA@$$QEAVPolyAtEdge@@@Z
	??$_Emplace_back_with_unused_capacity@VStripPtL2@@@?$vector@VStripPtL2@@V?$allocator@VStripPtL2@@@std@@@std@@AEAA@$$QEAVStripPtL2@@@Z
	??$_Emplace_back_with_unused_capacity@VStripPtL3@@@?$vector@VStripPtL3@@V?$allocator@VStripPtL3@@@std@@@std@@AEAA@$$QEAVStripPtL3@@@Z
	??$_Emplace_back_with_unused_capacity@VStripPtL@@@?$vector@VStripPtL@@V?$allocator@VStripPtL@@@std@@@std@@AEAA@$$QEAVStripPtL@@@Z
	??$_Emplace_hint@AEAH@?$_Tree@V?$_Tset_traits@HU?$less@H@std@@V?$allocator@H@2@$0A@@std@@@std@@IEAAPEAU?$_Tree_node@HPEAX@1@QEAU21@AEAH@Z
	??$_Emplace_reallocate@AEAV?$shared_ptr@VObj@@@std@@@?$vector@V?$shared_ptr@VObj@@@std@@V?$allocator@V?$shared_ptr@VObj@@@std@@@2@@std@@QEAAPEAV?$shared_ptr@VObj@@@1@QEAV21@AEAV21@@Z
	??$_Emplace_reallocate@AEAV?$shared_ptr@VObj@@@std@@@?$vector@VNode@@V?$allocator@VNode@@@std@@@std@@QEAAPEAVNode@@QEAV2@AEAV?$shared_ptr@VObj@@@1@@Z
	??$_Emplace_reallocate@AEBH@?$vector@HV?$allocator@H@std@@@std@@QEAAPEAHQEAHAEBH@Z
	??$_Emplace_reallocate@AEBV?$deque@VStripPtR@@V?$allocator@VStripPtR@@@std@@@std@@@?$vector@V?$deque@VStripPtR@@V?$allocator@VStripPtR@@@std@@@std@@V?$allocator@V?$deque@VStripPtR@@V?$allocator@VStripPtR@@@std@@@std@@@2@@std@@QEAAPEAV?$deque@VStripPtR@@V?$allocator@VStripPtR@@@std@@@1@QEAV21@AEBV21@@Z
	??$_Emplace_reallocate@AEBV?$vector@HV?$allocator@H@std@@@std@@@?$vector@V?$vector@HV?$allocator@H@std@@@std@@V?$allocator@V?$vector@HV?$allocator@H@std@@@std@@@2@@std@@QEAAPEAV?$vector@HV?$allocator@H@std@@@1@QEAV21@AEBV21@@Z
	??$_Emplace_reallocate@AEBVInterPtType@@@?$vector@VInterPtType@@V?$allocator@VInterPtType@@@std@@@std@@QEAAPEAVInterPtType@@QEAV2@AEBV2@@Z
	??$_Emplace_reallocate@H@?$vector@HV?$allocator@H@std@@@std@@QEAAPEAHQEAH$$QEAH@Z
	??$_Emplace_reallocate@PEAVLine@@@?$vector@V?$shared_ptr@VLine@@@std@@V?$allocator@V?$shared_ptr@VLine@@@std@@@2@@std@@QEAAPEAV?$shared_ptr@VLine@@@1@QEAV21@$$QEAPEAVLine@@@Z
	??$_Emplace_reallocate@PEBVInterPtType@@@?$vector@PEBVInterPtType@@V?$allocator@PEBVInterPtType@@@std@@@std@@QEAAPEAPEBVInterPtType@@QEAPEBV2@$$QEAPEBV2@@Z
	??$_Emplace_reallocate@U?$pair@VInterPtType@@V1@@std@@@?$vector@U?$pair@VInterPtType@@V1@@std@@V?$allocator@U?$pair@VInterPtType@@V1@@std@@@2@@std@@QEAAPEAU?$pair@VInterPtType@@V1@@1@QEAU21@$$QEAU21@@Z
	??$_Emplace_reallocate@V?$reference_wrapper@VStripPt@@@std@@@?$vector@V?$reference_wrapper@VStripPt@@@std@@V?$allocator@V?$reference_wrapper@VStripPt@@@std@@@2@@std@@QEAAPEAV?$reference_wrapper@VStripPt@@@1@QEAV21@$$QEAV21@@Z
	??$_Emplace_reallocate@V?$reference_wrapper@VStripPtR@@@std@@@?$vector@V?$reference_wrapper@VStripPtR@@@std@@V?$allocator@V?$reference_wrapper@VStripPtR@@@std@@@2@@std@@QEAAPEAV?$reference_wrapper@VStripPtR@@@1@QEAV21@$$QEAV21@@Z
	??$_Emplace_reallocate@V?$vector@HV?$allocator@H@std@@@std@@@?$vector@V?$vector@HV?$allocator@H@std@@@std@@V?$allocator@V?$vector@HV?$allocator@H@std@@@std@@@2@@std@@QEAAPEAV?$vector@HV?$allocator@H@std@@@1@QEAV21@$$QEAV21@@Z
	??$_Emplace_reallocate@VMergePt@@@?$vector@VMergePt@@V?$allocator@VMergePt@@@std@@@std@@QEAAPEAVMergePt@@QEAV2@$$QEAV2@@Z
	??$_Emplace_reallocate@VPair@@@?$vector@VPair@@V?$allocator@VPair@@@std@@@std@@QEAAPEAVPair@@QEAV2@$$QEAV2@@Z
	??$_Emplace_reallocate@VPoint@@@?$vector@VPoint@@V?$allocator@VPoint@@@std@@@std@@QEAAPEAVPoint@@QEAV2@$$QEAV2@@Z
	??$_Emplace_reallocate@VPolyAtEdge@@@?$vector@VPolyAtEdge@@V?$allocator@VPolyAtEdge@@@std@@@std@@QEAAPEAVPolyAtEdge@@QEAV2@$$QEAV2@@Z
	??$_Emplace_reallocate@VStripPtL2@@@?$vector@VStripPtL2@@V?$allocator@VStripPtL2@@@std@@@std@@QEAAPEAVStripPtL2@@QEAV2@$$QEAV2@@Z
	??$_Emplace_reallocate@VStripPtL3@@@?$vector@VStripPtL3@@V?$allocator@VStripPtL3@@@std@@@std@@QEAAPEAVStripPtL3@@QEAV2@$$QEAV2@@Z
	??$_Emplace_reallocate@VStripPtL@@@?$vector@VStripPtL@@V?$allocator@VStripPtL@@@std@@@std@@QEAAPEAVStripPtL@@QEAV2@$$QEAV2@@Z
	??$_Eqrange@H@?$_Tree@V?$_Tmap_traits@HVStripPt@@U?$less@H@std@@V?$allocator@U?$pair@$$CBHVStripPt@@@std@@@3@$0A@@std@@@std@@IEBA?AU?$pair@PEAU?$_Tree_node@U?$pair@$$CBHVStripPt@@@std@@PEAX@std@@PEAU12@@1@AEBH@Z
	??$_Erase_head@V?$allocator@U?$_Tree_node@HPEAX@std@@@std@@@?$_Tree_val@U?$_Tree_simple_types@H@std@@@std@@QEAAXAEAV?$allocator@U?$_Tree_node@HPEAX@std@@@1@@Z
	??$_Erase_head@V?$allocator@U?$_Tree_node@U?$pair@$$CBHH@std@@PEAX@std@@@std@@@?$_Tree_val@U?$_Tree_simple_types@U?$pair@$$CBHH@std@@@std@@@std@@QEAAXAEAV?$allocator@U?$_Tree_node@U?$pair@$$CBHH@std@@PEAX@std@@@1@@Z
	??$_Erase_head@V?$allocator@U?$_Tree_node@U?$pair@$$CBHV?$set@HU?$less@H@std@@V?$allocator@H@2@@std@@@std@@PEAX@std@@@std@@@?$_Tree_val@U?$_Tree_simple_types@U?$pair@$$CBHV?$set@HU?$less@H@std@@V?$allocator@H@2@@std@@@std@@@std@@@std@@QEAAXAEAV?$allocator@U?$_Tree_node@U?$pair@$$CBHV?$set@HU?$less@H@std@@V?$allocator@H@2@@std@@@std@@PEAX@std@@@1@@Z
	??$_Erase_head@V?$allocator@U?$_Tree_node@U?$pair@$$CBHV?$vector@HV?$allocator@H@std@@@std@@@std@@PEAX@std@@@std@@@?$_Tree_val@U?$_Tree_simple_types@U?$pair@$$CBHV?$vector@HV?$allocator@H@std@@@std@@@std@@@std@@@std@@QEAAXAEAV?$allocator@U?$_Tree_node@U?$pair@$$CBHV?$vector@HV?$allocator@H@std@@@std@@@std@@PEAX@std@@@1@@Z
	??$_Erase_head@V?$allocator@U?$_Tree_node@U?$pair@$$CBHV?$vector@V?$reference_wrapper@VStripPtR@@@std@@V?$allocator@V?$reference_wrapper@VStripPtR@@@std@@@2@@std@@@std@@PEAX@std@@@std@@@?$_Tree_val@U?$_Tree_simple_types@U?$pair@$$CBHV?$vector@V?$reference_wrapper@VStripPtR@@@std@@V?$allocator@V?$reference_wrapper@VStripPtR@@@std@@@2@@std@@@std@@@std@@@std@@QEAAXAEAV?$allocator@U?$_Tree_node@U?$pair@$$CBHV?$vector@V?$reference_wrapper@VStripPtR@@@std@@V?$allocator@V?$reference_wrapper@VStripPtR@@@std@@@2@@std@@@std@@PEAX@std@@@1@@Z
	??$_Erase_head@V?$allocator@U?$_Tree_node@U?$pair@$$CBHVPStrips@@@std@@PEAX@std@@@std@@@?$_Tree_val@U?$_Tree_simple_types@U?$pair@$$CBHVPStrips@@@std@@@std@@@std@@QEAAXAEAV?$allocator@U?$_Tree_node@U?$pair@$$CBHVPStrips@@@std@@PEAX@std@@@1@@Z
	??$_Erase_head@V?$allocator@U?$_Tree_node@U?$pair@$$CBHVStripPt@@@std@@PEAX@std@@@std@@@?$_Tree_val@U?$_Tree_simple_types@U?$pair@$$CBHVStripPt@@@std@@@std@@@std@@QEAAXAEAV?$allocator@U?$_Tree_node@U?$pair@$$CBHVStripPt@@@std@@PEAX@std@@@1@@Z
	??$_Erase_head@V?$allocator@U?$_Tree_node@U?$pair@$$CBHW4Rel@@@std@@PEAX@std@@@std@@@?$_Tree_val@U?$_Tree_simple_types@U?$pair@$$CBHW4Rel@@@std@@@std@@@std@@QEAAXAEAV?$allocator@U?$_Tree_node@U?$pair@$$CBHW4Rel@@@std@@PEAX@std@@@1@@Z
	??$_Erase_head@V?$allocator@U?$_Tree_node@U?$pair@$$CBVPair@@V?$map@HHU?$less@H@std@@V?$allocator@U?$pair@$$CBHH@std@@@2@@std@@@std@@PEAX@std@@@std@@@?$_Tree_val@U?$_Tree_simple_types@U?$pair@$$CBVPair@@V?$map@HHU?$less@H@std@@V?$allocator@U?$pair@$$CBHH@std@@@2@@std@@@std@@@std@@@std@@QEAAXAEAV?$allocator@U?$_Tree_node@U?$pair@$$CBVPair@@V?$map@HHU?$less@H@std@@V?$allocator@U?$pair@$$CBHH@std@@@2@@std@@@std@@PEAX@std@@@1@@Z
	??$_Erase_head@V?$allocator@U?$_Tree_node@V?$reference_wrapper@VStripPt@@@std@@PEAX@std@@@std@@@?$_Tree_val@U?$_Tree_simple_types@V?$reference_wrapper@VStripPt@@@std@@@std@@@std@@QEAAXAEAV?$allocator@U?$_Tree_node@V?$reference_wrapper@VStripPt@@@std@@PEAX@std@@@1@@Z
	??$_Erase_head@V?$allocator@U?$_Tree_node@VPair@@PEAX@std@@@std@@@?$_Tree_val@U?$_Tree_simple_types@VPair@@@std@@@std@@QEAAXAEAV?$allocator@U?$_Tree_node@VPair@@PEAX@std@@@1@@Z
	??$_Erase_head@V?$allocator@U?$_Tree_node@VStripPtL3@@PEAX@std@@@std@@@?$_Tree_val@U?$_Tree_simple_types@VStripPtL3@@@std@@@std@@QEAAXAEAV?$allocator@U?$_Tree_node@VStripPtL3@@PEAX@std@@@1@@Z
	??$_Erase_head@V?$allocator@U?$_Tree_node@VStripPtL@@PEAX@std@@@std@@@?$_Tree_val@U?$_Tree_simple_types@VStripPtL@@@std@@@std@@QEAAXAEAV?$allocator@U?$_Tree_node@VStripPtL@@PEAX@std@@@1@@Z
	??$_Erase_tree@V?$allocator@U?$_Tree_node@HPEAX@std@@@std@@@?$_Tree_val@U?$_Tree_simple_types@H@std@@@std@@QEAAXAEAV?$allocator@U?$_Tree_node@HPEAX@std@@@1@PEAU?$_Tree_node@HPEAX@1@@Z
	??$_Erase_tree@V?$allocator@U?$_Tree_node@U?$pair@$$CBHH@std@@PEAX@std@@@std@@@?$_Tree_val@U?$_Tree_simple_types@U?$pair@$$CBHH@std@@@std@@@std@@QEAAXAEAV?$allocator@U?$_Tree_node@U?$pair@$$CBHH@std@@PEAX@std@@@1@PEAU?$_Tree_node@U?$pair@$$CBHH@std@@PEAX@1@@Z
	??$_Erase_tree@V?$allocator@U?$_Tree_node@U?$pair@$$CBHV?$set@HU?$less@H@std@@V?$allocator@H@2@@std@@@std@@PEAX@std@@@std@@@?$_Tree_val@U?$_Tree_simple_types@U?$pair@$$CBHV?$set@HU?$less@H@std@@V?$allocator@H@2@@std@@@std@@@std@@@std@@QEAAXAEAV?$allocator@U?$_Tree_node@U?$pair@$$CBHV?$set@HU?$less@H@std@@V?$allocator@H@2@@std@@@std@@PEAX@std@@@1@PEAU?$_Tree_node@U?$pair@$$CBHV?$set@HU?$less@H@std@@V?$allocator@H@2@@std@@@std@@PEAX@1@@Z
	??$_Erase_tree@V?$allocator@U?$_Tree_node@U?$pair@$$CBHV?$vector@HV?$allocator@H@std@@@std@@@std@@PEAX@std@@@std@@@?$_Tree_val@U?$_Tree_simple_types@U?$pair@$$CBHV?$vector@HV?$allocator@H@std@@@std@@@std@@@std@@@std@@QEAAXAEAV?$allocator@U?$_Tree_node@U?$pair@$$CBHV?$vector@HV?$allocator@H@std@@@std@@@std@@PEAX@std@@@1@PEAU?$_Tree_node@U?$pair@$$CBHV?$vector@HV?$allocator@H@std@@@std@@@std@@PEAX@1@@Z
	??$_Erase_tree@V?$allocator@U?$_Tree_node@U?$pair@$$CBHV?$vector@V?$reference_wrapper@VStripPtR@@@std@@V?$allocator@V?$reference_wrapper@VStripPtR@@@std@@@2@@std@@@std@@PEAX@std@@@std@@@?$_Tree_val@U?$_Tree_simple_types@U?$pair@$$CBHV?$vector@V?$reference_wrapper@VStripPtR@@@std@@V?$allocator@V?$reference_wrapper@VStripPtR@@@std@@@2@@std@@@std@@@std@@@std@@QEAAXAEAV?$allocator@U?$_Tree_node@U?$pair@$$CBHV?$vector@V?$reference_wrapper@VStripPtR@@@std@@V?$allocator@V?$reference_wrapper@VStripPtR@@@std@@@2@@std@@@std@@PEAX@std@@@1@PEAU?$_Tree_node@U?$pair@$$CBHV?$vector@V?$reference_wrapper@VStripPtR@@@std@@V?$allocator@V?$reference_wrapper@VStripPtR@@@std@@@2@@std@@@std@@PEAX@1@@Z
	??$_Erase_tree@V?$allocator@U?$_Tree_node@U?$pair@$$CBHVPStrips@@@std@@PEAX@std@@@std@@@?$_Tree_val@U?$_Tree_simple_types@U?$pair@$$CBHVPStrips@@@std@@@std@@@std@@QEAAXAEAV?$allocator@U?$_Tree_node@U?$pair@$$CBHVPStrips@@@std@@PEAX@std@@@1@PEAU?$_Tree_node@U?$pair@$$CBHVPStrips@@@std@@PEAX@1@@Z
	??$_Erase_tree@V?$allocator@U?$_Tree_node@U?$pair@$$CBHVStripPt@@@std@@PEAX@std@@@std@@@?$_Tree_val@U?$_Tree_simple_types@U?$pair@$$CBHVStripPt@@@std@@@std@@@std@@QEAAXAEAV?$allocator@U?$_Tree_node@U?$pair@$$CBHVStripPt@@@std@@PEAX@std@@@1@PEAU?$_Tree_node@U?$pair@$$CBHVStripPt@@@std@@PEAX@1@@Z
	??$_Erase_tree@V?$allocator@U?$_Tree_node@U?$pair@$$CBHW4Rel@@@std@@PEAX@std@@@std@@@?$_Tree_val@U?$_Tree_simple_types@U?$pair@$$CBHW4Rel@@@std@@@std@@@std@@QEAAXAEAV?$allocator@U?$_Tree_node@U?$pair@$$CBHW4Rel@@@std@@PEAX@std@@@1@PEAU?$_Tree_node@U?$pair@$$CBHW4Rel@@@std@@PEAX@1@@Z
	??$_Erase_tree@V?$allocator@U?$_Tree_node@U?$pair@$$CBVPair@@V?$map@HHU?$less@H@std@@V?$allocator@U?$pair@$$CBHH@std@@@2@@std@@@std@@PEAX@std@@@std@@@?$_Tree_val@U?$_Tree_simple_types@U?$pair@$$CBVPair@@V?$map@HHU?$less@H@std@@V?$allocator@U?$pair@$$CBHH@std@@@2@@std@@@std@@@std@@@std@@QEAAXAEAV?$allocator@U?$_Tree_node@U?$pair@$$CBVPair@@V?$map@HHU?$less@H@std@@V?$allocator@U?$pair@$$CBHH@std@@@2@@std@@@std@@PEAX@std@@@1@PEAU?$_Tree_node@U?$pair@$$CBVPair@@V?$map@HHU?$less@H@std@@V?$allocator@U?$pair@$$CBHH@std@@@2@@std@@@std@@PEAX@1@@Z
	??$_Erase_tree@V?$allocator@U?$_Tree_node@V?$reference_wrapper@VStripPt@@@std@@PEAX@std@@@std@@@?$_Tree_val@U?$_Tree_simple_types@V?$reference_wrapper@VStripPt@@@std@@@std@@@std@@QEAAXAEAV?$allocator@U?$_Tree_node@V?$reference_wrapper@VStripPt@@@std@@PEAX@std@@@1@PEAU?$_Tree_node@V?$reference_wrapper@VStripPt@@@std@@PEAX@1@@Z
	??$_Erase_tree@V?$allocator@U?$_Tree_node@VPair@@PEAX@std@@@std@@@?$_Tree_val@U?$_Tree_simple_types@VPair@@@std@@@std@@QEAAXAEAV?$allocator@U?$_Tree_node@VPair@@PEAX@std@@@1@PEAU?$_Tree_node@VPair@@PEAX@1@@Z
	??$_Erase_tree@V?$allocator@U?$_Tree_node@VStripPtL3@@PEAX@std@@@std@@@?$_Tree_val@U?$_Tree_simple_types@VStripPtL3@@@std@@@std@@QEAAXAEAV?$allocator@U?$_Tree_node@VStripPtL3@@PEAX@std@@@1@PEAU?$_Tree_node@VStripPtL3@@PEAX@1@@Z
	??$_Erase_tree@V?$allocator@U?$_Tree_node@VStripPtL@@PEAX@std@@@std@@@?$_Tree_val@U?$_Tree_simple_types@VStripPtL@@@std@@@std@@QEAAXAEAV?$allocator@U?$_Tree_node@VStripPtL@@PEAX@std@@@1@PEAU?$_Tree_node@VStripPtL@@PEAX@1@@Z
	??$_Erase_tree_and_orphan@V?$allocator@U?$_Tree_node@U?$pair@$$CBHVStripPt@@@std@@PEAX@std@@@std@@@?$_Tree_val@U?$_Tree_simple_types@U?$pair@$$CBHVStripPt@@@std@@@std@@@std@@QEAAXAEAV?$allocator@U?$_Tree_node@U?$pair@$$CBHVStripPt@@@std@@PEAX@std@@@1@PEAU?$_Tree_node@U?$pair@$$CBHVStripPt@@@std@@PEAX@1@@Z
	??$_Fgetc@D@std@@YA_NAEADPEAU_iobuf@@@Z
	??$_Find_hint@H@?$_Tree@V?$_Tset_traits@HU?$less@H@std@@V?$allocator@H@2@$0A@@std@@@std@@IEBA?AU?$_Tree_find_hint_result@PEAU?$_Tree_node@HPEAX@std@@@1@QEAU?$_Tree_node@HPEAX@1@AEBH@Z
	??$_Find_lower_bound@H@?$_Tree@V?$_Tmap_traits@HHU?$less@H@std@@V?$allocator@U?$pair@$$CBHH@std@@@2@$0A@@std@@@std@@IEBA?AU?$_Tree_find_result@PEAU?$_Tree_node@U?$pair@$$CBHH@std@@PEAX@std@@@1@AEBH@Z
	??$_Find_lower_bound@H@?$_Tree@V?$_Tmap_traits@HV?$set@HU?$less@H@std@@V?$allocator@H@2@@std@@U?$less@H@2@V?$allocator@U?$pair@$$CBHV?$set@HU?$less@H@std@@V?$allocator@H@2@@std@@@std@@@2@$0A@@std@@@std@@IEBA?AU?$_Tree_find_result@PEAU?$_Tree_node@U?$pair@$$CBHV?$set@HU?$less@H@std@@V?$allocator@H@2@@std@@@std@@PEAX@std@@@1@AEBH@Z
	??$_Find_lower_bound@H@?$_Tree@V?$_Tmap_traits@HV?$vector@HV?$allocator@H@std@@@std@@U?$less@H@2@V?$allocator@U?$pair@$$CBHV?$vector@HV?$allocator@H@std@@@std@@@std@@@2@$0A@@std@@@std@@IEBA?AU?$_Tree_find_result@PEAU?$_Tree_node@U?$pair@$$CBHV?$vector@HV?$allocator@H@std@@@std@@@std@@PEAX@std@@@1@AEBH@Z
	??$_Find_lower_bound@H@?$_Tree@V?$_Tmap_traits@HV?$vector@V?$reference_wrapper@VStripPtR@@@std@@V?$allocator@V?$reference_wrapper@VStripPtR@@@std@@@2@@std@@U?$less@H@2@V?$allocator@U?$pair@$$CBHV?$vector@V?$reference_wrapper@VStripPtR@@@std@@V?$allocator@V?$reference_wrapper@VStripPtR@@@std@@@2@@std@@@std@@@2@$0A@@std@@@std@@IEBA?AU?$_Tree_find_result@PEAU?$_Tree_node@U?$pair@$$CBHV?$vector@V?$reference_wrapper@VStripPtR@@@std@@V?$allocator@V?$reference_wrapper@VStripPtR@@@std@@@2@@std@@@std@@PEAX@std@@@1@AEBH@Z
	??$_Find_lower_bound@H@?$_Tree@V?$_Tmap_traits@HVPStrips@@U?$less@H@std@@V?$allocator@U?$pair@$$CBHVPStrips@@@std@@@3@$0A@@std@@@std@@IEBA?AU?$_Tree_find_result@PEAU?$_Tree_node@U?$pair@$$CBHVPStrips@@@std@@PEAX@std@@@1@AEBH@Z
	??$_Find_lower_bound@H@?$_Tree@V?$_Tmap_traits@HVStripPt@@U?$less@H@std@@V?$allocator@U?$pair@$$CBHVStripPt@@@std@@@3@$0A@@std@@@std@@IEBA?AU?$_Tree_find_result@PEAU?$_Tree_node@U?$pair@$$CBHVStripPt@@@std@@PEAX@std@@@1@AEBH@Z
	??$_Find_lower_bound@H@?$_Tree@V?$_Tmap_traits@HW4Rel@@U?$less@H@std@@V?$allocator@U?$pair@$$CBHW4Rel@@@std@@@3@$0A@@std@@@std@@IEBA?AU?$_Tree_find_result@PEAU?$_Tree_node@U?$pair@$$CBHW4Rel@@@std@@PEAX@std@@@1@AEBH@Z
	??$_Find_lower_bound@H@?$_Tree@V?$_Tset_traits@HU?$less@H@std@@V?$allocator@H@2@$0A@@std@@@std@@IEBA?AU?$_Tree_find_result@PEAU?$_Tree_node@HPEAX@std@@@1@AEBH@Z
	??$_Find_lower_bound@VPair@@@?$_Tree@V?$_Tmap_traits@VPair@@V?$map@HHU?$less@H@std@@V?$allocator@U?$pair@$$CBHH@std@@@2@@std@@U?$less@VPair@@@3@V?$allocator@U?$pair@$$CBVPair@@V?$map@HHU?$less@H@std@@V?$allocator@U?$pair@$$CBHH@std@@@2@@std@@@std@@@3@$0A@@std@@@std@@IEBA?AU?$_Tree_find_result@PEAU?$_Tree_node@U?$pair@$$CBVPair@@V?$map@HHU?$less@H@std@@V?$allocator@U?$pair@$$CBHH@std@@@2@@std@@@std@@PEAX@std@@@1@AEBVPair@@@Z
	??$_Find_lower_bound@VPair@@@?$_Tree@V?$_Tset_traits@VPair@@U?$less@VPair@@@std@@V?$allocator@VPair@@@3@$0A@@std@@@std@@IEBA?AU?$_Tree_find_result@PEAU?$_Tree_node@VPair@@PEAX@std@@@1@AEBVPair@@@Z
	??$_Find_lower_bound@VStripPtL@@@?$_Tree@V?$_Tset_traits@VStripPtL@@U?$less@VStripPtL@@@std@@V?$allocator@VStripPtL@@@3@$0A@@std@@@std@@IEBA?AU?$_Tree_find_result@PEAU?$_Tree_node@VStripPtL@@PEAX@std@@@1@AEBVStripPtL@@@Z
	??$_Find_unchecked1@PEAHH@std@@YAPEAHPEAHQEAHAEBHU?$integral_constant@_N$0A@@0@@Z
	??$_Find_unchecked1@PEBHH@std@@YAPEBHPEBHQEBHAEBHU?$integral_constant@_N$0A@@0@@Z
	??$_Find_unchecked@PEAHH@std@@YAPEAHQEAH0AEBH@Z
	??$_Find_unchecked@PEBHH@std@@YAPEBHQEBH0AEBH@Z
	??$_Fputc@D@std@@YA_NDPEAU_iobuf@@@Z
	??$_Free_non_head@V?$allocator@U?$_List_node@U?$pair@$$CBVPair@@VSubP@@@std@@PEAX@std@@@std@@@?$_List_node@U?$pair@$$CBVPair@@VSubP@@@std@@PEAX@std@@SAXAEAV?$allocator@U?$_List_node@U?$pair@$$CBVPair@@VSubP@@@std@@PEAX@std@@@1@PEAU01@@Z
	??$_Free_non_head@V?$allocator@U?$_List_node@VPair@@PEAX@std@@@std@@@?$_List_node@VPair@@PEAX@std@@SAXAEAV?$allocator@U?$_List_node@VPair@@PEAX@std@@@1@PEAU01@@Z
	??$_Freenode0@V?$allocator@U?$_List_node@U?$pair@$$CBVPair@@VSubP@@@std@@PEAX@std@@@std@@@?$_List_node@U?$pair@$$CBVPair@@VSubP@@@std@@PEAX@std@@SAXAEAV?$allocator@U?$_List_node@U?$pair@$$CBVPair@@VSubP@@@std@@PEAX@std@@@1@PEAU01@@Z
	??$_Freenode0@V?$allocator@U?$_List_node@VPair@@PEAX@std@@@std@@@?$_List_node@VPair@@PEAX@std@@SAXAEAV?$allocator@U?$_List_node@VPair@@PEAX@std@@@1@PEAU01@@Z
	??$_Freenode0@V?$allocator@U?$_Tree_node@HPEAX@std@@@std@@@?$_Tree_node@HPEAX@std@@SAXAEAV?$allocator@U?$_Tree_node@HPEAX@std@@@1@PEAU01@@Z
	??$_Freenode0@V?$allocator@U?$_Tree_node@U?$pair@$$CBHH@std@@PEAX@std@@@std@@@?$_Tree_node@U?$pair@$$CBHH@std@@PEAX@std@@SAXAEAV?$allocator@U?$_Tree_node@U?$pair@$$CBHH@std@@PEAX@std@@@1@PEAU01@@Z
	??$_Freenode0@V?$allocator@U?$_Tree_node@U?$pair@$$CBHV?$set@HU?$less@H@std@@V?$allocator@H@2@@std@@@std@@PEAX@std@@@std@@@?$_Tree_node@U?$pair@$$CBHV?$set@HU?$less@H@std@@V?$allocator@H@2@@std@@@std@@PEAX@std@@SAXAEAV?$allocator@U?$_Tree_node@U?$pair@$$CBHV?$set@HU?$less@H@std@@V?$allocator@H@2@@std@@@std@@PEAX@std@@@1@PEAU01@@Z
	??$_Freenode0@V?$allocator@U?$_Tree_node@U?$pair@$$CBHV?$vector@HV?$allocator@H@std@@@std@@@std@@PEAX@std@@@std@@@?$_Tree_node@U?$pair@$$CBHV?$vector@HV?$allocator@H@std@@@std@@@std@@PEAX@std@@SAXAEAV?$allocator@U?$_Tree_node@U?$pair@$$CBHV?$vector@HV?$allocator@H@std@@@std@@@std@@PEAX@std@@@1@PEAU01@@Z
	??$_Freenode0@V?$allocator@U?$_Tree_node@U?$pair@$$CBHV?$vector@V?$reference_wrapper@VStripPtR@@@std@@V?$allocator@V?$reference_wrapper@VStripPtR@@@std@@@2@@std@@@std@@PEAX@std@@@std@@@?$_Tree_node@U?$pair@$$CBHV?$vector@V?$reference_wrapper@VStripPtR@@@std@@V?$allocator@V?$reference_wrapper@VStripPtR@@@std@@@2@@std@@@std@@PEAX@std@@SAXAEAV?$allocator@U?$_Tree_node@U?$pair@$$CBHV?$vector@V?$reference_wrapper@VStripPtR@@@std@@V?$allocator@V?$reference_wrapper@VStripPtR@@@std@@@2@@std@@@std@@PEAX@std@@@1@PEAU01@@Z
	??$_Freenode0@V?$allocator@U?$_Tree_node@U?$pair@$$CBHVPStrips@@@std@@PEAX@std@@@std@@@?$_Tree_node@U?$pair@$$CBHVPStrips@@@std@@PEAX@std@@SAXAEAV?$allocator@U?$_Tree_node@U?$pair@$$CBHVPStrips@@@std@@PEAX@std@@@1@PEAU01@@Z
	??$_Freenode0@V?$allocator@U?$_Tree_node@U?$pair@$$CBHVStripPt@@@std@@PEAX@std@@@std@@@?$_Tree_node@U?$pair@$$CBHVStripPt@@@std@@PEAX@std@@SAXAEAV?$allocator@U?$_Tree_node@U?$pair@$$CBHVStripPt@@@std@@PEAX@std@@@1@PEAU01@@Z
	??$_Freenode0@V?$allocator@U?$_Tree_node@U?$pair@$$CBHW4Rel@@@std@@PEAX@std@@@std@@@?$_Tree_node@U?$pair@$$CBHW4Rel@@@std@@PEAX@std@@SAXAEAV?$allocator@U?$_Tree_node@U?$pair@$$CBHW4Rel@@@std@@PEAX@std@@@1@PEAU01@@Z
	??$_Freenode0@V?$allocator@U?$_Tree_node@U?$pair@$$CBVPair@@V?$map@HHU?$less@H@std@@V?$allocator@U?$pair@$$CBHH@std@@@2@@std@@@std@@PEAX@std@@@std@@@?$_Tree_node@U?$pair@$$CBVPair@@V?$map@HHU?$less@H@std@@V?$allocator@U?$pair@$$CBHH@std@@@2@@std@@@std@@PEAX@std@@SAXAEAV?$allocator@U?$_Tree_node@U?$pair@$$CBVPair@@V?$map@HHU?$less@H@std@@V?$allocator@U?$pair@$$CBHH@std@@@2@@std@@@std@@PEAX@std@@@1@PEAU01@@Z
	??$_Freenode0@V?$allocator@U?$_Tree_node@V?$reference_wrapper@VStripPt@@@std@@PEAX@std@@@std@@@?$_Tree_node@V?$reference_wrapper@VStripPt@@@std@@PEAX@std@@SAXAEAV?$allocator@U?$_Tree_node@V?$reference_wrapper@VStripPt@@@std@@PEAX@std@@@1@PEAU01@@Z
	??$_Freenode0@V?$allocator@U?$_Tree_node@VPair@@PEAX@std@@@std@@@?$_Tree_node@VPair@@PEAX@std@@SAXAEAV?$allocator@U?$_Tree_node@VPair@@PEAX@std@@@1@PEAU01@@Z
	??$_Freenode0@V?$allocator@U?$_Tree_node@VStripPtL3@@PEAX@std@@@std@@@?$_Tree_node@VStripPtL3@@PEAX@std@@SAXAEAV?$allocator@U?$_Tree_node@VStripPtL3@@PEAX@std@@@1@PEAU01@@Z
	??$_Freenode0@V?$allocator@U?$_Tree_node@VStripPtL@@PEAX@std@@@std@@@?$_Tree_node@VStripPtL@@PEAX@std@@SAXAEAV?$allocator@U?$_Tree_node@VStripPtL@@PEAX@std@@@1@PEAU01@@Z
	??$_Freenode@V?$allocator@U?$_List_node@U?$pair@$$CBVPair@@VSubP@@@std@@PEAX@std@@@std@@@?$_List_node@U?$pair@$$CBVPair@@VSubP@@@std@@PEAX@std@@SAXAEAV?$allocator@U?$_List_node@U?$pair@$$CBVPair@@VSubP@@@std@@PEAX@std@@@1@PEAU01@@Z
	??$_Freenode@V?$allocator@U?$_List_node@VPair@@PEAX@std@@@std@@@?$_List_node@VPair@@PEAX@std@@SAXAEAV?$allocator@U?$_List_node@VPair@@PEAX@std@@@1@PEAU01@@Z
	??$_Freenode@V?$allocator@U?$_Tree_node@HPEAX@std@@@std@@@?$_Tree_node@HPEAX@std@@SAXAEAV?$allocator@U?$_Tree_node@HPEAX@std@@@1@PEAU01@@Z
	??$_Freenode@V?$allocator@U?$_Tree_node@U?$pair@$$CBHH@std@@PEAX@std@@@std@@@?$_Tree_node@U?$pair@$$CBHH@std@@PEAX@std@@SAXAEAV?$allocator@U?$_Tree_node@U?$pair@$$CBHH@std@@PEAX@std@@@1@PEAU01@@Z
	??$_Freenode@V?$allocator@U?$_Tree_node@U?$pair@$$CBHV?$set@HU?$less@H@std@@V?$allocator@H@2@@std@@@std@@PEAX@std@@@std@@@?$_Tree_node@U?$pair@$$CBHV?$set@HU?$less@H@std@@V?$allocator@H@2@@std@@@std@@PEAX@std@@SAXAEAV?$allocator@U?$_Tree_node@U?$pair@$$CBHV?$set@HU?$less@H@std@@V?$allocator@H@2@@std@@@std@@PEAX@std@@@1@PEAU01@@Z
	??$_Freenode@V?$allocator@U?$_Tree_node@U?$pair@$$CBHV?$vector@HV?$allocator@H@std@@@std@@@std@@PEAX@std@@@std@@@?$_Tree_node@U?$pair@$$CBHV?$vector@HV?$allocator@H@std@@@std@@@std@@PEAX@std@@SAXAEAV?$allocator@U?$_Tree_node@U?$pair@$$CBHV?$vector@HV?$allocator@H@std@@@std@@@std@@PEAX@std@@@1@PEAU01@@Z
	??$_Freenode@V?$allocator@U?$_Tree_node@U?$pair@$$CBHV?$vector@V?$reference_wrapper@VStripPtR@@@std@@V?$allocator@V?$reference_wrapper@VStripPtR@@@std@@@2@@std@@@std@@PEAX@std@@@std@@@?$_Tree_node@U?$pair@$$CBHV?$vector@V?$reference_wrapper@VStripPtR@@@std@@V?$allocator@V?$reference_wrapper@VStripPtR@@@std@@@2@@std@@@std@@PEAX@std@@SAXAEAV?$allocator@U?$_Tree_node@U?$pair@$$CBHV?$vector@V?$reference_wrapper@VStripPtR@@@std@@V?$allocator@V?$reference_wrapper@VStripPtR@@@std@@@2@@std@@@std@@PEAX@std@@@1@PEAU01@@Z
	??$_Freenode@V?$allocator@U?$_Tree_node@U?$pair@$$CBHVPStrips@@@std@@PEAX@std@@@std@@@?$_Tree_node@U?$pair@$$CBHVPStrips@@@std@@PEAX@std@@SAXAEAV?$allocator@U?$_Tree_node@U?$pair@$$CBHVPStrips@@@std@@PEAX@std@@@1@PEAU01@@Z
	??$_Freenode@V?$allocator@U?$_Tree_node@U?$pair@$$CBHVStripPt@@@std@@PEAX@std@@@std@@@?$_Tree_node@U?$pair@$$CBHVStripPt@@@std@@PEAX@std@@SAXAEAV?$allocator@U?$_Tree_node@U?$pair@$$CBHVStripPt@@@std@@PEAX@std@@@1@PEAU01@@Z
	??$_Freenode@V?$allocator@U?$_Tree_node@U?$pair@$$CBHW4Rel@@@std@@PEAX@std@@@std@@@?$_Tree_node@U?$pair@$$CBHW4Rel@@@std@@PEAX@std@@SAXAEAV?$allocator@U?$_Tree_node@U?$pair@$$CBHW4Rel@@@std@@PEAX@std@@@1@PEAU01@@Z
	??$_Freenode@V?$allocator@U?$_Tree_node@U?$pair@$$CBVPair@@V?$map@HHU?$less@H@std@@V?$allocator@U?$pair@$$CBHH@std@@@2@@std@@@std@@PEAX@std@@@std@@@?$_Tree_node@U?$pair@$$CBVPair@@V?$map@HHU?$less@H@std@@V?$allocator@U?$pair@$$CBHH@std@@@2@@std@@@std@@PEAX@std@@SAXAEAV?$allocator@U?$_Tree_node@U?$pair@$$CBVPair@@V?$map@HHU?$less@H@std@@V?$allocator@U?$pair@$$CBHH@std@@@2@@std@@@std@@PEAX@std@@@1@PEAU01@@Z
	??$_Freenode@V?$allocator@U?$_Tree_node@V?$reference_wrapper@VStripPt@@@std@@PEAX@std@@@std@@@?$_Tree_node@V?$reference_wrapper@VStripPt@@@std@@PEAX@std@@SAXAEAV?$allocator@U?$_Tree_node@V?$reference_wrapper@VStripPt@@@std@@PEAX@std@@@1@PEAU01@@Z
	??$_Freenode@V?$allocator@U?$_Tree_node@VPair@@PEAX@std@@@std@@@?$_Tree_node@VPair@@PEAX@std@@SAXAEAV?$allocator@U?$_Tree_node@VPair@@PEAX@std@@@1@PEAU01@@Z
	??$_Freenode@V?$allocator@U?$_Tree_node@VStripPtL3@@PEAX@std@@@std@@@?$_Tree_node@VStripPtL3@@PEAX@std@@SAXAEAV?$allocator@U?$_Tree_node@VStripPtL3@@PEAX@std@@@1@PEAU01@@Z
	??$_Freenode@V?$allocator@U?$_Tree_node@VStripPtL@@PEAX@std@@@std@@@?$_Tree_node@VStripPtL@@PEAX@std@@SAXAEAV?$allocator@U?$_Tree_node@VStripPtL@@PEAX@std@@@1@PEAU01@@Z
	??$_Get_size_of_n@$00@std@@YA_K_K@Z
	??$_Get_size_of_n@$03@std@@YA_K_K@Z
	??$_Get_size_of_n@$07@std@@YA_K_K@Z
	??$_Get_size_of_n@$0BA@@std@@YA_K_K@Z
	??$_Get_size_of_n@$0BI@@std@@YA_K_K@Z
	??$_Get_size_of_n@$0CA@@std@@YA_K_K@Z
	??$_Get_size_of_n@$0CI@@std@@YA_K_K@Z
	??$_Get_size_of_n@$0DA@@std@@YA_K_K@Z
	??$_Get_size_of_n@$0DI@@std@@YA_K_K@Z
	??$_Get_size_of_n@$0EA@@std@@YA_K_K@Z
	??$_Get_size_of_n@$0EI@@std@@YA_K_K@Z
	??$_Get_size_of_n@$0FA@@std@@YA_K_K@Z
	??$_Get_size_of_n@$0FI@@std@@YA_K_K@Z
	??$_Get_size_of_n@$0GI@@std@@YA_K_K@Z
	??$_Get_size_of_n@$0JA@@std@@YA_K_K@Z
	??$_Get_size_of_n@$0JI@@std@@YA_K_K@Z
	??$_Get_size_of_n@$0MA@@std@@YA_K_K@Z
	??$_Get_size_of_n@$0NA@@std@@YA_K_K@Z
	??$_Get_unwrapped@H@std@@YAPEAHQEAH@Z
	??$_Get_unwrapped@PEAH@std@@YAPEAPEAHQEAPEAH@Z
	??$_Get_unwrapped@PEAV?$vector@HV?$allocator@H@std@@@std@@@std@@YAPEAPEAV?$vector@HV?$allocator@H@std@@@0@QEAPEAV10@@Z
	??$_Get_unwrapped@PEAVStripPtR@@@std@@YAPEAPEAVStripPtR@@QEAPEAV1@@Z
	??$_Get_unwrapped@PEBVInterPtType@@@std@@YAPEAPEBVInterPtType@@QEAPEBV1@@Z
	??$_Get_unwrapped@U?$pair@VInterPtType@@V1@@std@@@std@@YAPEAU?$pair@VInterPtType@@V1@@0@QEAU10@@Z
	??$_Get_unwrapped@V?$_Deque_iterator@V?$_Deque_val@U?$_Deque_simple_types@H@std@@@std@@@std@@$0A@@std@@YA@AEBV?$_Deque_iterator@V?$_Deque_val@U?$_Deque_simple_types@H@std@@@std@@@0@@Z
	??$_Get_unwrapped@V?$_Deque_iterator@V?$_Deque_val@U?$_Deque_simple_types@VStripPtR@@@std@@@std@@@std@@$0A@@std@@YA@AEBV?$_Deque_iterator@V?$_Deque_val@U?$_Deque_simple_types@VStripPtR@@@std@@@std@@@0@@Z
	??$_Get_unwrapped@V?$_Deque_unchecked_iterator@V?$_Deque_val@U?$_Deque_simple_types@VStripPtR@@@std@@@std@@@std@@$0A@@std@@YAAEBV?$_Deque_unchecked_iterator@V?$_Deque_val@U?$_Deque_simple_types@VStripPtR@@@std@@@std@@@0@AEBV10@@Z
	??$_Get_unwrapped@V?$_Tree_const_iterator@V?$_Tree_val@U?$_Tree_simple_types@H@std@@@std@@@std@@$0A@@std@@YA@AEBV?$_Tree_const_iterator@V?$_Tree_val@U?$_Tree_simple_types@H@std@@@std@@@0@@Z
	??$_Get_unwrapped@V?$_Tree_const_iterator@V?$_Tree_val@U?$_Tree_simple_types@VStripPtL3@@@std@@@std@@@std@@$0A@@std@@YA@AEBV?$_Tree_const_iterator@V?$_Tree_val@U?$_Tree_simple_types@VStripPtL3@@@std@@@std@@@0@@Z
	??$_Get_unwrapped@V?$_Tree_unchecked_const_iterator@V?$_Tree_val@U?$_Tree_simple_types@U?$pair@$$CBHVStripPt@@@std@@@std@@@std@@U_Iterator_base0@2@@std@@$0A@@std@@YAAEBV?$_Tree_unchecked_const_iterator@V?$_Tree_val@U?$_Tree_simple_types@U?$pair@$$CBHVStripPt@@@std@@@std@@@std@@U_Iterator_base0@2@@0@AEBV10@@Z
	??$_Get_unwrapped@V?$_Tree_unchecked_const_iterator@V?$_Tree_val@U?$_Tree_simple_types@VStripPtL3@@@std@@@std@@U_Iterator_base0@2@@std@@$0A@@std@@YAAEBV?$_Tree_unchecked_const_iterator@V?$_Tree_val@U?$_Tree_simple_types@VStripPtL3@@@std@@@std@@U_Iterator_base0@2@@0@AEBV10@@Z
	??$_Get_unwrapped@V?$_Vector_const_iterator@V?$_Vector_val@U?$_Simple_types@H@std@@@std@@@std@@$0A@@std@@YA@AEBV?$_Vector_const_iterator@V?$_Vector_val@U?$_Simple_types@H@std@@@std@@@0@@Z
	??$_Get_unwrapped@V?$_Vector_iterator@V?$_Vector_val@U?$_Simple_types@H@std@@@std@@@std@@$0A@@std@@YA@AEBV?$_Vector_iterator@V?$_Vector_val@U?$_Simple_types@H@std@@@std@@@0@@Z
	??$_Get_unwrapped@V?$_Vector_iterator@V?$_Vector_val@U?$_Simple_types@PEBVInterPtType@@@std@@@std@@@std@@$0A@@std@@YA@AEBV?$_Vector_iterator@V?$_Vector_val@U?$_Simple_types@PEBVInterPtType@@@std@@@std@@@0@@Z
	??$_Get_unwrapped@V?$_Vector_iterator@V?$_Vector_val@U?$_Simple_types@V?$deque@VStripPtR@@V?$allocator@VStripPtR@@@std@@@std@@@std@@@std@@@std@@$0A@@std@@YA@AEBV?$_Vector_iterator@V?$_Vector_val@U?$_Simple_types@V?$deque@VStripPtR@@V?$allocator@VStripPtR@@@std@@@std@@@std@@@std@@@0@@Z
	??$_Get_unwrapped@V?$_Vector_iterator@V?$_Vector_val@U?$_Simple_types@V?$reference_wrapper@VStripPtR@@@std@@@std@@@std@@@std@@$0A@@std@@YA@AEBV?$_Vector_iterator@V?$_Vector_val@U?$_Simple_types@V?$reference_wrapper@VStripPtR@@@std@@@std@@@std@@@0@@Z
	??$_Get_unwrapped@V?$_Vector_iterator@V?$_Vector_val@U?$_Simple_types@VInterPtType@@@std@@@std@@@std@@$0A@@std@@YA@AEBV?$_Vector_iterator@V?$_Vector_val@U?$_Simple_types@VInterPtType@@@std@@@std@@@0@@Z
	??$_Get_unwrapped@V?$_Vector_iterator@V?$_Vector_val@U?$_Simple_types@VPoint@@@std@@@std@@@std@@$0A@@std@@YA@AEBV?$_Vector_iterator@V?$_Vector_val@U?$_Simple_types@VPoint@@@std@@@std@@@0@@Z
	??$_Get_unwrapped@V?$_Vector_iterator@V?$_Vector_val@U?$_Simple_types@VStripPtL3@@@std@@@std@@@std@@$0A@@std@@YA@AEBV?$_Vector_iterator@V?$_Vector_val@U?$_Simple_types@VStripPtL3@@@std@@@std@@@0@@Z
	??$_Get_unwrapped@V?$deque@VStripPtR@@V?$allocator@VStripPtR@@@std@@@std@@@std@@YAPEAV?$deque@VStripPtR@@V?$allocator@VStripPtR@@@std@@@0@QEAV10@@Z
	??$_Get_unwrapped@V?$reference_wrapper@VStripPt@@@std@@@std@@YAPEAV?$reference_wrapper@VStripPt@@@0@QEAV10@@Z
	??$_Get_unwrapped@V?$reference_wrapper@VStripPtR@@@std@@@std@@YAPEAV?$reference_wrapper@VStripPtR@@@0@QEAV10@@Z
	??$_Get_unwrapped@V?$reverse_iterator@V?$_Deque_iterator@V?$_Deque_val@U?$_Deque_simple_types@VStripPtR@@@std@@@std@@@std@@@std@@$0A@@std@@YA@AEBV?$reverse_iterator@V?$_Deque_iterator@V?$_Deque_val@U?$_Deque_simple_types@VStripPtR@@@std@@@std@@@std@@@0@@Z
	??$_Get_unwrapped@V?$reverse_iterator@V?$_Deque_unchecked_iterator@V?$_Deque_val@U?$_Deque_simple_types@VStripPtR@@@std@@@std@@@std@@@std@@$0A@@std@@YAAEBV?$reverse_iterator@V?$_Deque_unchecked_iterator@V?$_Deque_val@U?$_Deque_simple_types@VStripPtR@@@std@@@std@@@std@@@0@AEBV10@@Z
	??$_Get_unwrapped@V?$reverse_iterator@V?$_Vector_iterator@V?$_Vector_val@U?$_Simple_types@VStripPtL3@@@std@@@std@@@std@@@std@@$0A@@std@@YA@AEBV?$reverse_iterator@V?$_Vector_iterator@V?$_Vector_val@U?$_Simple_types@VStripPtL3@@@std@@@std@@@std@@@0@@Z
	??$_Get_unwrapped@V?$shared_ptr@VLine@@@std@@@std@@YAPEAV?$shared_ptr@VLine@@@0@QEAV10@@Z
	??$_Get_unwrapped@V?$shared_ptr@VObj@@@std@@@std@@YAPEAV?$shared_ptr@VObj@@@0@QEAV10@@Z
	??$_Get_unwrapped@V?$vector@HV?$allocator@H@std@@@std@@@std@@YAPEAV?$vector@HV?$allocator@H@std@@@0@QEAV10@@Z
	??$_Get_unwrapped@VInterPtType@@@std@@YAPEAVInterPtType@@QEAV1@@Z
	??$_Get_unwrapped@VMergePt@@@std@@YAPEAVMergePt@@QEAV1@@Z
	??$_Get_unwrapped@VNode@@@std@@YAPEAVNode@@QEAV1@@Z
	??$_Get_unwrapped@VPair@@@std@@YAPEAVPair@@QEAV1@@Z
	??$_Get_unwrapped@VPoint@@@std@@YAPEAVPoint@@QEAV1@@Z
	??$_Get_unwrapped@VPolyAtEdge@@@std@@YAPEAVPolyAtEdge@@QEAV1@@Z
	??$_Get_unwrapped@VStripPtL2@@@std@@YAPEAVStripPtL2@@QEAV1@@Z
	??$_Get_unwrapped@VStripPtL3@@@std@@YAPEAVStripPtL3@@QEAV1@@Z
	??$_Get_unwrapped@VStripPtL@@@std@@YAPEAVStripPtL@@QEAV1@@Z
	??$_Get_unwrapped_n@$$CBNH$0A@@std@@YAPEBNQEBNH@Z
	??$_Get_unwrapped_n@NH$0A@@std@@YAPEANQEANH@Z
	??$_Get_unwrapped_n@V?$_Deque_iterator@V?$_Deque_val@U?$_Deque_simple_types@H@std@@@std@@@std@@_J$0A@@std@@YA@AEBV?$_Deque_iterator@V?$_Deque_val@U?$_Deque_simple_types@H@std@@@std@@@0@_J@Z
	??$_Getvals@_W@?$time_get@DV?$istreambuf_iterator@DU?$char_traits@D@std@@@std@@@std@@IEAAX_WAEBV_Locinfo@1@@Z
	??$_Getvals@_W@?$time_get@_WV?$istreambuf_iterator@_WU?$char_traits@_W@std@@@std@@@std@@IEAAX_WAEBV_Locinfo@1@@Z
	??$_Guess_median_unchecked@PEAVInterPtType@@U?$less@X@std@@@std@@YAXPEAVInterPtType@@00U?$less@X@0@@Z
	??$_Guess_median_unchecked@V?$reverse_iterator@PEAVStripPtL3@@@std@@U?$less@X@2@@std@@YAXV?$reverse_iterator@PEAVStripPtL3@@@0@00U?$less@X@0@@Z
	??$_Idl_distance@V?$_Deque_iterator@V?$_Deque_val@U?$_Deque_simple_types@H@std@@@std@@@std@@V?$_Deque_unchecked_iterator@V?$_Deque_val@U?$_Deque_simple_types@H@std@@@std@@@2@@std@@YA@AEBV?$_Deque_unchecked_iterator@V?$_Deque_val@U?$_Deque_simple_types@H@std@@@std@@@0@0@Z
	??$_Insert_range@V?$_Deque_unchecked_iterator@V?$_Deque_val@U?$_Deque_simple_types@VStripPtR@@@std@@@std@@@std@@@?$vector@V?$reference_wrapper@VStripPtR@@@std@@V?$allocator@V?$reference_wrapper@VStripPtR@@@std@@@2@@std@@AEAAXV?$_Vector_const_iterator@V?$_Vector_val@U?$_Simple_types@V?$reference_wrapper@VStripPtR@@@std@@@std@@@std@@@1@V?$_Deque_unchecked_iterator@V?$_Deque_val@U?$_Deque_simple_types@VStripPtR@@@std@@@std@@@1@1Uforward_iterator_tag@1@@Z
	??$_Insert_range@V?$reverse_iterator@V?$_Deque_unchecked_iterator@V?$_Deque_val@U?$_Deque_simple_types@VStripPtR@@@std@@@std@@@std@@@std@@@?$vector@V?$reference_wrapper@VStripPtR@@@std@@V?$allocator@V?$reference_wrapper@VStripPtR@@@std@@@2@@std@@AEAAXV?$_Vector_const_iterator@V?$_Vector_val@U?$_Simple_types@V?$reference_wrapper@VStripPtR@@@std@@@std@@@std@@@1@V?$reverse_iterator@V?$_Deque_unchecked_iterator@V?$_Deque_val@U?$_Deque_simple_types@VStripPtR@@@std@@@std@@@std@@@1@1Uforward_iterator_tag@1@@Z
	??$_Insertion_sort_unchecked@PEAVInterPtType@@U?$less@X@std@@@std@@YAPEAVInterPtType@@PEAV1@QEAV1@U?$less@X@0@@Z
	??$_Insertion_sort_unchecked@V?$reverse_iterator@PEAVStripPtL3@@@std@@U?$less@X@2@@std@@YA?AV?$reverse_iterator@PEAVStripPtL3@@@0@V10@V10@U?$less@X@0@@Z
	??$_Kfn@$$CBHH@?$_Tmap_traits@HHU?$less@H@std@@V?$allocator@U?$pair@$$CBHH@std@@@2@$0A@@std@@SAAEBHAEBU?$pair@$$CBHH@1@@Z
	??$_Kfn@$$CBHV?$set@HU?$less@H@std@@V?$allocator@H@2@@std@@@?$_Tmap_traits@HV?$set@HU?$less@H@std@@V?$allocator@H@2@@std@@U?$less@H@2@V?$allocator@U?$pair@$$CBHV?$set@HU?$less@H@std@@V?$allocator@H@2@@std@@@std@@@2@$0A@@std@@SAAEBHAEBU?$pair@$$CBHV?$set@HU?$less@H@std@@V?$allocator@H@2@@std@@@1@@Z
	??$_Kfn@$$CBHV?$vector@HV?$allocator@H@std@@@std@@@?$_Tmap_traits@HV?$vector@HV?$allocator@H@std@@@std@@U?$less@H@2@V?$allocator@U?$pair@$$CBHV?$vector@HV?$allocator@H@std@@@std@@@std@@@2@$0A@@std@@SAAEBHAEBU?$pair@$$CBHV?$vector@HV?$allocator@H@std@@@std@@@1@@Z
	??$_Kfn@$$CBHV?$vector@V?$reference_wrapper@VStripPtR@@@std@@V?$allocator@V?$reference_wrapper@VStripPtR@@@std@@@2@@std@@@?$_Tmap_traits@HV?$vector@V?$reference_wrapper@VStripPtR@@@std@@V?$allocator@V?$reference_wrapper@VStripPtR@@@std@@@2@@std@@U?$less@H@2@V?$allocator@U?$pair@$$CBHV?$vector@V?$reference_wrapper@VStripPtR@@@std@@V?$allocator@V?$reference_wrapper@VStripPtR@@@std@@@2@@std@@@std@@@2@$0A@@std@@SAAEBHAEBU?$pair@$$CBHV?$vector@V?$reference_wrapper@VStripPtR@@@std@@V?$allocator@V?$reference_wrapper@VStripPtR@@@std@@@2@@std@@@1@@Z
	??$_Kfn@$$CBHVPStrips@@@?$_Tmap_traits@HVPStrips@@U?$less@H@std@@V?$allocator@U?$pair@$$CBHVPStrips@@@std@@@3@$0A@@std@@SAAEBHAEBU?$pair@$$CBHVPStrips@@@1@@Z
	??$_Kfn@$$CBHVStripPt@@@?$_Tmap_traits@HVStripPt@@U?$less@H@std@@V?$allocator@U?$pair@$$CBHVStripPt@@@std@@@3@$0A@@std@@SAAEBHAEBU?$pair@$$CBHVStripPt@@@1@@Z
	??$_Kfn@$$CBHW4Rel@@@?$_Tmap_traits@HW4Rel@@U?$less@H@std@@V?$allocator@U?$pair@$$CBHW4Rel@@@std@@@3@$0A@@std@@SAAEBHAEBU?$pair@$$CBHW4Rel@@@1@@Z
	??$_Kfn@$$CBVPair@@V?$map@HHU?$less@H@std@@V?$allocator@U?$pair@$$CBHH@std@@@2@@std@@@?$_Tmap_traits@VPair@@V?$map@HHU?$less@H@std@@V?$allocator@U?$pair@$$CBHH@std@@@2@@std@@U?$less@VPair@@@3@V?$allocator@U?$pair@$$CBVPair@@V?$map@HHU?$less@H@std@@V?$allocator@U?$pair@$$CBHH@std@@@2@@std@@@std@@@3@$0A@@std@@SAAEBVPair@@AEBU?$pair@$$CBVPair@@V?$map@HHU?$less@H@std@@V?$allocator@U?$pair@$$CBHH@std@@@2@@std@@@1@@Z
	??$_Less@AEBH@?$tuple@AEBH@std@@QEBA_NAEBV01@@Z
	??$_Less@AEBHAEBH@?$tuple@AEBHAEBH@std@@QEBA_NAEBV01@@Z
	??$_Less@AEBHAEBHAEBH@?$tuple@AEBHAEBHAEBH@std@@QEBA_NAEBV01@@Z
	??$_Lower_bound_duplicate@H@?$_Tree@V?$_Tmap_traits@HHU?$less@H@std@@V?$allocator@U?$pair@$$CBHH@std@@@2@$0A@@std@@@std@@IEBA_NQEAU?$_Tree_node@U?$pair@$$CBHH@std@@PEAX@1@AEBH@Z
	??$_Lower_bound_duplicate@H@?$_Tree@V?$_Tmap_traits@HV?$set@HU?$less@H@std@@V?$allocator@H@2@@std@@U?$less@H@2@V?$allocator@U?$pair@$$CBHV?$set@HU?$less@H@std@@V?$allocator@H@2@@std@@@std@@@2@$0A@@std@@@std@@IEBA_NQEAU?$_Tree_node@U?$pair@$$CBHV?$set@HU?$less@H@std@@V?$allocator@H@2@@std@@@std@@PEAX@1@AEBH@Z
	??$_Lower_bound_duplicate@H@?$_Tree@V?$_Tmap_traits@HV?$vector@HV?$allocator@H@std@@@std@@U?$less@H@2@V?$allocator@U?$pair@$$CBHV?$vector@HV?$allocator@H@std@@@std@@@std@@@2@$0A@@std@@@std@@IEBA_NQEAU?$_Tree_node@U?$pair@$$CBHV?$vector@HV?$allocator@H@std@@@std@@@std@@PEAX@1@AEBH@Z
	??$_Lower_bound_duplicate@H@?$_Tree@V?$_Tmap_traits@HV?$vector@V?$reference_wrapper@VStripPtR@@@std@@V?$allocator@V?$reference_wrapper@VStripPtR@@@std@@@2@@std@@U?$less@H@2@V?$allocator@U?$pair@$$CBHV?$vector@V?$reference_wrapper@VStripPtR@@@std@@V?$allocator@V?$reference_wrapper@VStripPtR@@@std@@@2@@std@@@std@@@2@$0A@@std@@@std@@IEBA_NQEAU?$_Tree_node@U?$pair@$$CBHV?$vector@V?$reference_wrapper@VStripPtR@@@std@@V?$allocator@V?$reference_wrapper@VStripPtR@@@std@@@2@@std@@@std@@PEAX@1@AEBH@Z
	??$_Lower_bound_duplicate@H@?$_Tree@V?$_Tmap_traits@HVPStrips@@U?$less@H@std@@V?$allocator@U?$pair@$$CBHVPStrips@@@std@@@3@$0A@@std@@@std@@IEBA_NQEAU?$_Tree_node@U?$pair@$$CBHVPStrips@@@std@@PEAX@1@AEBH@Z
	??$_Lower_bound_duplicate@H@?$_Tree@V?$_Tmap_traits@HVStripPt@@U?$less@H@std@@V?$allocator@U?$pair@$$CBHVStripPt@@@std@@@3@$0A@@std@@@std@@IEBA_NQEAU?$_Tree_node@U?$pair@$$CBHVStripPt@@@std@@PEAX@1@AEBH@Z
	??$_Lower_bound_duplicate@H@?$_Tree@V?$_Tmap_traits@HW4Rel@@U?$less@H@std@@V?$allocator@U?$pair@$$CBHW4Rel@@@std@@@3@$0A@@std@@@std@@IEBA_NQEAU?$_Tree_node@U?$pair@$$CBHW4Rel@@@std@@PEAX@1@AEBH@Z
	??$_Lower_bound_duplicate@H@?$_Tree@V?$_Tset_traits@HU?$less@H@std@@V?$allocator@H@2@$0A@@std@@@std@@IEBA_NQEAU?$_Tree_node@HPEAX@1@AEBH@Z
	??$_Lower_bound_duplicate@VPair@@@?$_Tree@V?$_Tmap_traits@VPair@@V?$map@HHU?$less@H@std@@V?$allocator@U?$pair@$$CBHH@std@@@2@@std@@U?$less@VPair@@@3@V?$allocator@U?$pair@$$CBVPair@@V?$map@HHU?$less@H@std@@V?$allocator@U?$pair@$$CBHH@std@@@2@@std@@@std@@@3@$0A@@std@@@std@@IEBA_NQEAU?$_Tree_node@U?$pair@$$CBVPair@@V?$map@HHU?$less@H@std@@V?$allocator@U?$pair@$$CBHH@std@@@2@@std@@@std@@PEAX@1@AEBVPair@@@Z
	??$_Lower_bound_duplicate@VPair@@@?$_Tree@V?$_Tset_traits@VPair@@U?$less@VPair@@@std@@V?$allocator@VPair@@@3@$0A@@std@@@std@@IEBA_NQEAU?$_Tree_node@VPair@@PEAX@1@AEBVPair@@@Z
	??$_Lower_bound_duplicate@VStripPtL@@@?$_Tree@V?$_Tset_traits@VStripPtL@@U?$less@VStripPtL@@@std@@V?$allocator@VStripPtL@@@3@$0A@@std@@@std@@IEBA_NQEAU?$_Tree_node@VStripPtL@@PEAX@1@AEBVStripPtL@@@Z
	??$_Make_heap_unchecked@PEAVInterPtType@@U?$less@X@std@@@std@@YAXPEAVInterPtType@@0U?$less@X@0@@Z
	??$_Make_heap_unchecked@V?$reverse_iterator@PEAVStripPtL3@@@std@@U?$less@X@2@@std@@YAXV?$reverse_iterator@PEAVStripPtL3@@@0@0U?$less@X@0@@Z
	??$_Maklocstr@D@std@@YAPEADPEBDPEADAEBU_Cvtvec@@@Z
	??$_Maklocstr@_W@std@@YAPEA_WPEBDPEA_WAEBU_Cvtvec@@@Z
	??$_Max_value@_K@std@@YAAEB_KAEB_K0@Z
	??$_Med3_unchecked@PEAVInterPtType@@U?$less@X@std@@@std@@YAXPEAVInterPtType@@00U?$less@X@0@@Z
	??$_Med3_unchecked@V?$reverse_iterator@PEAVStripPtL3@@@std@@U?$less@X@2@@std@@YAXV?$reverse_iterator@PEAVStripPtL3@@@0@00U?$less@X@0@@Z
	??$_Min_value@_K@std@@YAAEB_KAEB_K0@Z
	??$_Move_backward_unchecked@PEAV?$reference_wrapper@VStripPtR@@@std@@PEAV12@@std@@YAPEAV?$reference_wrapper@VStripPtR@@@0@PEAV10@00@Z
	??$_Move_backward_unchecked@PEAVInterPtType@@PEAV1@@std@@YAPEAVInterPtType@@PEAV1@00@Z
	??$_Move_backward_unchecked@V?$_Deque_unchecked_iterator@V?$_Deque_val@U?$_Deque_simple_types@H@std@@@std@@@std@@V12@@std@@YA?AV?$_Deque_unchecked_iterator@V?$_Deque_val@U?$_Deque_simple_types@H@std@@@std@@@0@V10@00@Z
	??$_Move_backward_unchecked@V?$reverse_iterator@PEAVStripPtL3@@@std@@V12@@std@@YA?AV?$reverse_iterator@PEAVStripPtL3@@@0@V10@00@Z
	??$_Move_construct_from@VBB@@@?$_Ptr_base@VBB@@@std@@IEAAX$$QEAV01@@Z
	??$_Move_construct_from@VLine@@@?$_Ptr_base@VLine@@@std@@IEAAX$$QEAV01@@Z
	??$_Move_construct_from@VObj@@@?$_Ptr_base@VObj@@@std@@IEAAX$$QEAV01@@Z
	??$_Move_unchecked@PEAV?$deque@VStripPtR@@V?$allocator@VStripPtR@@@std@@@std@@PEAV12@@std@@YAPEAV?$deque@VStripPtR@@V?$allocator@VStripPtR@@@std@@@0@PEAV10@00@Z
	??$_Move_unchecked@PEAV?$reference_wrapper@VStripPtR@@@std@@PEAV12@@std@@YAPEAV?$reference_wrapper@VStripPtR@@@0@PEAV10@00@Z
	??$_Move_unchecked@PEAVPair@@PEAV1@@std@@YAPEAVPair@@PEAV1@00@Z
	??$_Move_unchecked@V?$_Deque_unchecked_iterator@V?$_Deque_val@U?$_Deque_simple_types@H@std@@@std@@@std@@V12@@std@@YA?AV?$_Deque_unchecked_iterator@V?$_Deque_val@U?$_Deque_simple_types@H@std@@@std@@@0@V10@00@Z
	??$_Next_iter@PEAVInterPtType@@@std@@YAPEAVInterPtType@@PEAV1@@Z
	??$_Operator_arrow@AEAV?$_Deque_iterator@V?$_Deque_val@U?$_Deque_simple_types@VStripPtR@@@std@@@std@@@std@@@std@@YA@AEAV?$_Deque_iterator@V?$_Deque_val@U?$_Deque_simple_types@VStripPtR@@@std@@@std@@@0@U?$integral_constant@_N$0A@@0@@Z
	??$_Operator_arrow@AEAV?$_Vector_const_iterator@V?$_Vector_val@U?$_Simple_types@VPair@@@std@@@std@@@std@@@std@@YA@AEAV?$_Vector_const_iterator@V?$_Vector_val@U?$_Simple_types@VPair@@@std@@@std@@@0@U?$integral_constant@_N$0A@@0@@Z
	??$_Partition_by_median_guess_unchecked@PEAVInterPtType@@U?$less@X@std@@@std@@YA?AU?$pair@PEAVInterPtType@@PEAV1@@0@PEAVInterPtType@@0U?$less@X@0@@Z
	??$_Partition_by_median_guess_unchecked@V?$reverse_iterator@PEAVStripPtL3@@@std@@U?$less@X@2@@std@@YA?AU?$pair@V?$reverse_iterator@PEAVStripPtL3@@@std@@V12@@0@V?$reverse_iterator@PEAVStripPtL3@@@0@0U?$less@X@0@@Z
	??$_Pass_fn@U?$less@X@std@@$0A@@std@@YA?AU?$less@X@0@U10@@Z
	??$_Pocca@V?$allocator@VPair@@@std@@@std@@YAXAEAV?$allocator@VPair@@@0@AEBV10@@Z
	??$_Pocma@V?$allocator@H@std@@@std@@YAXAEAV?$allocator@H@0@0@Z
	??$_Pocma@V?$allocator@VStripPtR@@@std@@@std@@YAXAEAV?$allocator@VStripPtR@@@0@0@Z
	??$_Pocs@V?$allocator@H@std@@@std@@YAXAEAV?$allocator@H@0@0@Z
	??$_Pop_heap_hole_by_index@PEAVInterPtType@@V1@U?$less@X@std@@@std@@YAXPEAVInterPtType@@_J1$$QEAV1@U?$less@X@0@@Z
	??$_Pop_heap_hole_by_index@V?$reverse_iterator@PEAVStripPtL3@@@std@@VStripPtL3@@U?$less@X@2@@std@@YAXV?$reverse_iterator@PEAVStripPtL3@@@0@_J1$$QEAVStripPtL3@@U?$less@X@0@@Z
	??$_Pop_heap_hole_unchecked@PEAVInterPtType@@V1@U?$less@X@std@@@std@@YAXPEAVInterPtType@@00$$QEAV1@U?$less@X@0@@Z
	??$_Pop_heap_hole_unchecked@V?$reverse_iterator@PEAVStripPtL3@@@std@@VStripPtL3@@U?$less@X@2@@std@@YAXV?$reverse_iterator@PEAVStripPtL3@@@0@00$$QEAVStripPtL3@@U?$less@X@0@@Z
	??$_Pop_heap_unchecked@PEAVInterPtType@@U?$less@X@std@@@std@@YAXPEAVInterPtType@@0U?$less@X@0@@Z
	??$_Pop_heap_unchecked@V?$reverse_iterator@PEAVStripPtL3@@@std@@U?$less@X@2@@std@@YAXV?$reverse_iterator@PEAVStripPtL3@@@0@0U?$less@X@0@@Z
	??$_Push_heap_by_index@PEAVInterPtType@@V1@U?$less@X@std@@@std@@YAXPEAVInterPtType@@_J1$$QEAV1@U?$less@X@0@@Z
	??$_Push_heap_by_index@V?$reverse_iterator@PEAVStripPtL3@@@std@@VStripPtL3@@U?$less@X@2@@std@@YAXV?$reverse_iterator@PEAVStripPtL3@@@0@_J1$$QEAVStripPtL3@@U?$less@X@0@@Z
	??$_Range_construct_or_tidy@PEAVStripPtL3@@@?$vector@VStripPtL3@@V?$allocator@VStripPtL3@@@std@@@std@@AEAAXPEAVStripPtL3@@0Uforward_iterator_tag@1@@Z
	??$_Range_construct_or_tidy@V?$_Deque_unchecked_iterator@V?$_Deque_val@U?$_Deque_simple_types@VStripPtR@@@std@@@std@@@std@@@?$vector@V?$reference_wrapper@VStripPtR@@@std@@V?$allocator@V?$reference_wrapper@VStripPtR@@@std@@@2@@std@@AEAAXV?$_Deque_unchecked_iterator@V?$_Deque_val@U?$_Deque_simple_types@VStripPtR@@@std@@@std@@@1@0Uforward_iterator_tag@1@@Z
	??$_Range_construct_or_tidy@V?$_Tree_unchecked_const_iterator@V?$_Tree_val@U?$_Tree_simple_types@VStripPtL3@@@std@@@std@@U_Iterator_base0@2@@std@@@?$vector@VStripPtL3@@V?$allocator@VStripPtL3@@@std@@@std@@AEAAXV?$_Tree_unchecked_const_iterator@V?$_Tree_val@U?$_Tree_simple_types@VStripPtL3@@@std@@@std@@U_Iterator_base0@2@@1@0Uforward_iterator_tag@1@@Z
	??$_Reallocate_grow_by@V<lambda_319d5e083f45f90dcdce5dce53cbb275>@@D@?$basic_string@DU?$char_traits@D@std@@V?$allocator@D@2@@std@@AEAAAEAV01@_KV<lambda_319d5e083f45f90dcdce5dce53cbb275>@@D@Z
	??$_Refancy@PEAVPair@@$0A@@std@@YAPEAVPair@@PEAV1@@Z
	??$_Seek_wrapped@N@std@@YAXAEAPEANQEAN@Z
	??$_Seek_wrapped@V?$_Deque_iterator@V?$_Deque_val@U?$_Deque_simple_types@H@std@@@std@@@std@@V?$_Deque_unchecked_iterator@V?$_Deque_val@U?$_Deque_simple_types@H@std@@@std@@@2@@std@@YAXAEAV?$_Deque_iterator@V?$_Deque_val@U?$_Deque_simple_types@H@std@@@std@@@0@AEBV?$_Deque_unchecked_iterator@V?$_Deque_val@U?$_Deque_simple_types@H@std@@@std@@@0@@Z
	??$_Seek_wrapped@V?$_Deque_iterator@V?$_Deque_val@U?$_Deque_simple_types@VStripPtR@@@std@@@std@@@std@@V?$_Deque_unchecked_iterator@V?$_Deque_val@U?$_Deque_simple_types@VStripPtR@@@std@@@std@@@2@@std@@YAXAEAV?$_Deque_iterator@V?$_Deque_val@U?$_Deque_simple_types@VStripPtR@@@std@@@std@@@0@AEBV?$_Deque_unchecked_iterator@V?$_Deque_val@U?$_Deque_simple_types@VStripPtR@@@std@@@std@@@0@@Z
	??$_Seek_wrapped@V?$_Vector_const_iterator@V?$_Vector_val@U?$_Simple_types@H@std@@@std@@@std@@PEBH@std@@YAXAEAV?$_Vector_const_iterator@V?$_Vector_val@U?$_Simple_types@H@std@@@std@@@0@AEBQEBH@Z
	??$_Seek_wrapped@V?$_Vector_iterator@V?$_Vector_val@U?$_Simple_types@H@std@@@std@@@std@@PEAH@std@@YAXAEAV?$_Vector_iterator@V?$_Vector_val@U?$_Simple_types@H@std@@@std@@@0@AEBQEAH@Z
	??$_Seek_wrapped@V?$_Vector_iterator@V?$_Vector_val@U?$_Simple_types@V?$deque@VStripPtR@@V?$allocator@VStripPtR@@@std@@@std@@@std@@@std@@@std@@PEAV?$deque@VStripPtR@@V?$allocator@VStripPtR@@@std@@@2@@std@@YAXAEAV?$_Vector_iterator@V?$_Vector_val@U?$_Simple_types@V?$deque@VStripPtR@@V?$allocator@VStripPtR@@@std@@@std@@@std@@@std@@@0@AEBQEAV?$deque@VStripPtR@@V?$allocator@VStripPtR@@@std@@@0@@Z
	??$_Seek_wrapped@V?$_Vector_iterator@V?$_Vector_val@U?$_Simple_types@V?$reference_wrapper@VStripPtR@@@std@@@std@@@std@@@std@@PEAV?$reference_wrapper@VStripPtR@@@2@@std@@YAXAEAV?$_Vector_iterator@V?$_Vector_val@U?$_Simple_types@V?$reference_wrapper@VStripPtR@@@std@@@std@@@std@@@0@AEBQEAV?$reference_wrapper@VStripPtR@@@0@@Z
	??$_Seek_wrapped@V?$_Vector_iterator@V?$_Vector_val@U?$_Simple_types@VInterPtType@@@std@@@std@@@std@@PEAVInterPtType@@@std@@YAXAEAV?$_Vector_iterator@V?$_Vector_val@U?$_Simple_types@VInterPtType@@@std@@@std@@@0@AEBQEAVInterPtType@@@Z
	??$_Seek_wrapped@V?$deque@VStripPtR@@V?$allocator@VStripPtR@@@std@@@std@@@std@@YAXAEAPEAV?$deque@VStripPtR@@V?$allocator@VStripPtR@@@std@@@0@QEAV10@@Z
	??$_Set_ptr_rep_and_enable_shared@VBB@@@?$shared_ptr@VBB@@@std@@AEAAXQEAVBB@@QEAV_Ref_count_base@1@@Z
	??$_Set_ptr_rep_and_enable_shared@VLine@@@?$shared_ptr@VLine@@@std@@AEAAXQEAVLine@@QEAV_Ref_count_base@1@@Z
	??$_Sort_heap_unchecked@PEAVInterPtType@@U?$less@X@std@@@std@@YAXPEAVInterPtType@@0U?$less@X@0@@Z
	??$_Sort_heap_unchecked@V?$reverse_iterator@PEAVStripPtL3@@@std@@U?$less@X@2@@std@@YAXV?$reverse_iterator@PEAVStripPtL3@@@0@0U?$less@X@0@@Z
	??$_Sort_unchecked@PEAVInterPtType@@U?$less@X@std@@@std@@YAXPEAVInterPtType@@0_JU?$less@X@0@@Z
	??$_Sort_unchecked@V?$reverse_iterator@PEAVStripPtL3@@@std@@U?$less@X@2@@std@@YAXV?$reverse_iterator@PEAVStripPtL3@@@0@0_JU?$less@X@0@@Z
	??$_Swap_adl@PEAH@std@@YAXAEAPEAH0@Z
	??$_Try_emplace@AEBH$$V@?$map@HHU?$less@H@std@@V?$allocator@U?$pair@$$CBHH@std@@@2@@std@@AEAA?AU?$pair@PEAU?$_Tree_node@U?$pair@$$CBHH@std@@PEAX@std@@_N@1@AEBH@Z
	??$_Try_emplace@AEBH$$V@?$map@HV?$set@HU?$less@H@std@@V?$allocator@H@2@@std@@U?$less@H@2@V?$allocator@U?$pair@$$CBHV?$set@HU?$less@H@std@@V?$allocator@H@2@@std@@@std@@@2@@std@@AEAA?AU?$pair@PEAU?$_Tree_node@U?$pair@$$CBHV?$set@HU?$less@H@std@@V?$allocator@H@2@@std@@@std@@PEAX@std@@_N@1@AEBH@Z
	??$_Try_emplace@AEBH$$V@?$map@HV?$vector@HV?$allocator@H@std@@@std@@U?$less@H@2@V?$allocator@U?$pair@$$CBHV?$vector@HV?$allocator@H@std@@@std@@@std@@@2@@std@@AEAA?AU?$pair@PEAU?$_Tree_node@U?$pair@$$CBHV?$vector@HV?$allocator@H@std@@@std@@@std@@PEAX@std@@_N@1@AEBH@Z
	??$_Try_emplace@AEBH$$V@?$map@HV?$vector@V?$reference_wrapper@VStripPtR@@@std@@V?$allocator@V?$reference_wrapper@VStripPtR@@@std@@@2@@std@@U?$less@H@2@V?$allocator@U?$pair@$$CBHV?$vector@V?$reference_wrapper@VStripPtR@@@std@@V?$allocator@V?$reference_wrapper@VStripPtR@@@std@@@2@@std@@@std@@@2@@std@@AEAA?AU?$pair@PEAU?$_Tree_node@U?$pair@$$CBHV?$vector@V?$reference_wrapper@VStripPtR@@@std@@V?$allocator@V?$reference_wrapper@VStripPtR@@@std@@@2@@std@@@std@@PEAX@std@@_N@1@AEBH@Z
	??$_Try_emplace@AEBH$$V@?$map@HVPStrips@@U?$less@H@std@@V?$allocator@U?$pair@$$CBHVPStrips@@@std@@@3@@std@@AEAA?AU?$pair@PEAU?$_Tree_node@U?$pair@$$CBHVPStrips@@@std@@PEAX@std@@_N@1@AEBH@Z
	??$_Try_emplace@AEBH$$V@?$map@HVStripPt@@U?$less@H@std@@V?$allocator@U?$pair@$$CBHVStripPt@@@std@@@3@@std@@AEAA?AU?$pair@PEAU?$_Tree_node@U?$pair@$$CBHVStripPt@@@std@@PEAX@std@@_N@1@AEBH@Z
	??$_Try_emplace@AEBH$$V@?$map@HW4Rel@@U?$less@H@std@@V?$allocator@U?$pair@$$CBHW4Rel@@@std@@@3@@std@@AEAA?AU?$pair@PEAU?$_Tree_node@U?$pair@$$CBHW4Rel@@@std@@PEAX@std@@_N@1@AEBH@Z
	??$_Try_emplace@VPair@@$$V@?$map@VPair@@V?$map@HHU?$less@H@std@@V?$allocator@U?$pair@$$CBHH@std@@@2@@std@@U?$less@VPair@@@3@V?$allocator@U?$pair@$$CBVPair@@V?$map@HHU?$less@H@std@@V?$allocator@U?$pair@$$CBHH@std@@@2@@std@@@std@@@3@@std@@AEAA?AU?$pair@PEAU?$_Tree_node@U?$pair@$$CBVPair@@V?$map@HHU?$less@H@std@@V?$allocator@U?$pair@$$CBHH@std@@@2@@std@@@std@@PEAX@std@@_N@1@$$QEAVPair@@@Z
	??$_Ucopy@PEAH@?$vector@HV?$allocator@H@std@@@std@@AEAAPEAHPEAH00@Z
	??$_Ucopy@PEAV?$deque@VStripPtR@@V?$allocator@VStripPtR@@@std@@@std@@@?$vector@V?$deque@VStripPtR@@V?$allocator@VStripPtR@@@std@@@std@@V?$allocator@V?$deque@VStripPtR@@V?$allocator@VStripPtR@@@std@@@std@@@2@@std@@AEAAPEAV?$deque@VStripPtR@@V?$allocator@VStripPtR@@@std@@@1@PEAV21@00@Z
	??$_Ucopy@PEAVPair@@@?$vector@VPair@@V?$allocator@VPair@@@std@@@std@@AEAAPEAVPair@@PEAV2@00@Z
	??$_Ucopy@PEAVStripPtL3@@@?$vector@VStripPtL3@@V?$allocator@VStripPtL3@@@std@@@std@@AEAAPEAVStripPtL3@@PEAV2@00@Z
	??$_Ucopy@V?$_Deque_unchecked_iterator@V?$_Deque_val@U?$_Deque_simple_types@VStripPtR@@@std@@@std@@@std@@@?$vector@V?$reference_wrapper@VStripPtR@@@std@@V?$allocator@V?$reference_wrapper@VStripPtR@@@std@@@2@@std@@AEAAPEAV?$reference_wrapper@VStripPtR@@@1@V?$_Deque_unchecked_iterator@V?$_Deque_val@U?$_Deque_simple_types@VStripPtR@@@std@@@std@@@1@0PEAV21@@Z
	??$_Ucopy@V?$_Tree_unchecked_const_iterator@V?$_Tree_val@U?$_Tree_simple_types@VStripPtL3@@@std@@@std@@U_Iterator_base0@2@@std@@@?$vector@VStripPtL3@@V?$allocator@VStripPtL3@@@std@@@std@@AEAAPEAVStripPtL3@@V?$_Tree_unchecked_const_iterator@V?$_Tree_val@U?$_Tree_simple_types@VStripPtL3@@@std@@@std@@U_Iterator_base0@2@@1@0PEAV2@@Z
	??$_Ucopy@V?$reverse_iterator@V?$_Deque_unchecked_iterator@V?$_Deque_val@U?$_Deque_simple_types@VStripPtR@@@std@@@std@@@std@@@std@@@?$vector@V?$reference_wrapper@VStripPtR@@@std@@V?$allocator@V?$reference_wrapper@VStripPtR@@@std@@@2@@std@@AEAAPEAV?$reference_wrapper@VStripPtR@@@1@V?$reverse_iterator@V?$_Deque_unchecked_iterator@V?$_Deque_val@U?$_Deque_simple_types@VStripPtR@@@std@@@std@@@std@@@1@0PEAV21@@Z
	??$_Unfancy@D@std@@YAPEADPEAD@Z
	??$_Unfancy@H@std@@YAPEAHPEAH@Z
	??$_Unfancy@PEAH@std@@YAPEAPEAHPEAPEAH@Z
	??$_Unfancy@PEAV?$vector@HV?$allocator@H@std@@@std@@@std@@YAPEAPEAV?$vector@HV?$allocator@H@std@@@0@PEAPEAV10@@Z
	??$_Unfancy@PEAVStripPtR@@@std@@YAPEAPEAVStripPtR@@PEAPEAV1@@Z
	??$_Unfancy@PEBVInterPtType@@@std@@YAPEAPEBVInterPtType@@PEAPEBV1@@Z
	??$_Unfancy@U?$pair@VInterPtType@@V1@@std@@@std@@YAPEAU?$pair@VInterPtType@@V1@@0@PEAU10@@Z
	??$_Unfancy@U_Container_proxy@std@@@std@@YAPEAU_Container_proxy@0@PEAU10@@Z
	??$_Unfancy@V?$deque@VStripPtR@@V?$allocator@VStripPtR@@@std@@@std@@@std@@YAPEAV?$deque@VStripPtR@@V?$allocator@VStripPtR@@@std@@@0@PEAV10@@Z
	??$_Unfancy@V?$reference_wrapper@VStripPt@@@std@@@std@@YAPEAV?$reference_wrapper@VStripPt@@@0@PEAV10@@Z
	??$_Unfancy@V?$reference_wrapper@VStripPtR@@@std@@@std@@YAPEAV?$reference_wrapper@VStripPtR@@@0@PEAV10@@Z
	??$_Unfancy@V?$shared_ptr@VLine@@@std@@@std@@YAPEAV?$shared_ptr@VLine@@@0@PEAV10@@Z
	??$_Unfancy@V?$shared_ptr@VObj@@@std@@@std@@YAPEAV?$shared_ptr@VObj@@@0@PEAV10@@Z
	??$_Unfancy@V?$vector@HV?$allocator@H@std@@@std@@@std@@YAPEAV?$vector@HV?$allocator@H@std@@@0@PEAV10@@Z
	??$_Unfancy@V?$vector@VPoint@@V?$allocator@VPoint@@@std@@@std@@@std@@YAPEAV?$vector@VPoint@@V?$allocator@VPoint@@@std@@@0@PEAV10@@Z
	??$_Unfancy@VInterPtType@@@std@@YAPEAVInterPtType@@PEAV1@@Z
	??$_Unfancy@VMergePt@@@std@@YAPEAVMergePt@@PEAV1@@Z
	??$_Unfancy@VNode@@@std@@YAPEAVNode@@PEAV1@@Z
	??$_Unfancy@VPair@@@std@@YAPEAVPair@@PEAV1@@Z
	??$_Unfancy@VPoint@@@std@@YAPEAVPoint@@PEAV1@@Z
	??$_Unfancy@VPolyAtEdge@@@std@@YAPEAVPolyAtEdge@@PEAV1@@Z
	??$_Unfancy@VStripPtL2@@@std@@YAPEAVStripPtL2@@PEAV1@@Z
	??$_Unfancy@VStripPtL3@@@std@@YAPEAVStripPtL3@@PEAV1@@Z
	??$_Unfancy@VStripPtL@@@std@@YAPEAVStripPtL@@PEAV1@@Z
	??$_Unfancy@VStripPtR@@@std@@YAPEAVStripPtR@@PEAV1@@Z
	??$_Ungetc@D@std@@YA_NAEBDPEAU_iobuf@@@Z
	??$_Uninitialized_copy@PEAHV?$allocator@H@std@@@std@@YAPEAHQEAH0PEAHAEAV?$allocator@H@0@@Z
	??$_Uninitialized_copy@PEAPEAHV?$allocator@PEAH@std@@@std@@YAPEAPEAHQEAPEAH0PEAPEAHAEAV?$allocator@PEAH@0@@Z
	??$_Uninitialized_copy@PEAPEAV?$vector@HV?$allocator@H@std@@@std@@V?$allocator@PEAV?$vector@HV?$allocator@H@std@@@std@@@2@@std@@YAPEAPEAV?$vector@HV?$allocator@H@std@@@0@QEAPEAV10@0PEAPEAV10@AEAV?$allocator@PEAV?$vector@HV?$allocator@H@std@@@std@@@0@@Z
	??$_Uninitialized_copy@PEAPEAVStripPtR@@V?$allocator@PEAVStripPtR@@@std@@@std@@YAPEAPEAVStripPtR@@QEAPEAV1@0PEAPEAV1@AEAV?$allocator@PEAVStripPtR@@@0@@Z
	??$_Uninitialized_copy@PEAV?$deque@VStripPtR@@V?$allocator@VStripPtR@@@std@@@std@@V?$allocator@V?$deque@VStripPtR@@V?$allocator@VStripPtR@@@std@@@std@@@2@@std@@YAPEAV?$deque@VStripPtR@@V?$allocator@VStripPtR@@@std@@@0@QEAV10@0PEAV10@AEAV?$allocator@V?$deque@VStripPtR@@V?$allocator@VStripPtR@@@std@@@std@@@0@@Z
	??$_Uninitialized_copy@PEAVPair@@V?$allocator@VPair@@@std@@@std@@YAPEAVPair@@QEAV1@0PEAV1@AEAV?$allocator@VPair@@@0@@Z
	??$_Uninitialized_copy@PEAVPoint@@V?$allocator@VPoint@@@std@@@std@@YAPEAVPoint@@QEAV1@0PEAV1@AEAV?$allocator@VPoint@@@0@@Z
	??$_Uninitialized_copy@PEAVStripPtL3@@V?$allocator@VStripPtL3@@@std@@@std@@YAPEAVStripPtL3@@QEAV1@0PEAV1@AEAV?$allocator@VStripPtL3@@@0@@Z
	??$_Uninitialized_copy@V?$_Deque_unchecked_iterator@V?$_Deque_val@U?$_Deque_simple_types@VStripPtR@@@std@@@std@@@std@@V?$allocator@V?$reference_wrapper@VStripPtR@@@std@@@2@@std@@YAPEAV?$reference_wrapper@VStripPtR@@@0@V?$_Deque_unchecked_iterator@V?$_Deque_val@U?$_Deque_simple_types@VStripPtR@@@std@@@std@@@0@0PEAV10@AEAV?$allocator@V?$reference_wrapper@VStripPtR@@@std@@@0@@Z
	??$_Uninitialized_copy@V?$_Tree_unchecked_const_iterator@V?$_Tree_val@U?$_Tree_simple_types@VStripPtL3@@@std@@@std@@U_Iterator_base0@2@@std@@V?$allocator@VStripPtL3@@@2@@std@@YAPEAVStripPtL3@@V?$_Tree_unchecked_const_iterator@V?$_Tree_val@U?$_Tree_simple_types@VStripPtL3@@@std@@@std@@U_Iterator_base0@2@@0@0PEAV1@AEAV?$allocator@VStripPtL3@@@0@@Z
	??$_Uninitialized_copy@V?$reverse_iterator@V?$_Deque_unchecked_iterator@V?$_Deque_val@U?$_Deque_simple_types@VStripPtR@@@std@@@std@@@std@@@std@@V?$allocator@V?$reference_wrapper@VStripPtR@@@std@@@2@@std@@YAPEAV?$reference_wrapper@VStripPtR@@@0@V?$reverse_iterator@V?$_Deque_unchecked_iterator@V?$_Deque_val@U?$_Deque_simple_types@VStripPtR@@@std@@@std@@@std@@@0@0PEAV10@AEAV?$allocator@V?$reference_wrapper@VStripPtR@@@std@@@0@@Z
	??$_Uninitialized_move@PEAHV?$allocator@H@std@@@std@@YAPEAHQEAH0PEAHAEAV?$allocator@H@0@@Z
	??$_Uninitialized_move@PEAPEBVInterPtType@@V?$allocator@PEBVInterPtType@@@std@@@std@@YAPEAPEBVInterPtType@@QEAPEBV1@0PEAPEBV1@AEAV?$allocator@PEBVInterPtType@@@0@@Z
	??$_Uninitialized_move@PEAU?$pair@VInterPtType@@V1@@std@@V?$allocator@U?$pair@VInterPtType@@V1@@std@@@2@@std@@YAPEAU?$pair@VInterPtType@@V1@@0@QEAU10@0PEAU10@AEAV?$allocator@U?$pair@VInterPtType@@V1@@std@@@0@@Z
	??$_Uninitialized_move@PEAV?$deque@VStripPtR@@V?$allocator@VStripPtR@@@std@@@std@@V?$allocator@V?$deque@VStripPtR@@V?$allocator@VStripPtR@@@std@@@std@@@2@@std@@YAPEAV?$deque@VStripPtR@@V?$allocator@VStripPtR@@@std@@@0@QEAV10@0PEAV10@AEAV?$allocator@V?$deque@VStripPtR@@V?$allocator@VStripPtR@@@std@@@std@@@0@@Z
	??$_Uninitialized_move@PEAV?$reference_wrapper@VStripPt@@@std@@V?$allocator@V?$reference_wrapper@VStripPt@@@std@@@2@@std@@YAPEAV?$reference_wrapper@VStripPt@@@0@QEAV10@0PEAV10@AEAV?$allocator@V?$reference_wrapper@VStripPt@@@std@@@0@@Z
	??$_Uninitialized_move@PEAV?$reference_wrapper@VStripPtR@@@std@@V?$allocator@V?$reference_wrapper@VStripPtR@@@std@@@2@@std@@YAPEAV?$reference_wrapper@VStripPtR@@@0@QEAV10@0PEAV10@AEAV?$allocator@V?$reference_wrapper@VStripPtR@@@std@@@0@@Z
	??$_Uninitialized_move@PEAV?$shared_ptr@VLine@@@std@@V?$allocator@V?$shared_ptr@VLine@@@std@@@2@@std@@YAPEAV?$shared_ptr@VLine@@@0@QEAV10@0PEAV10@AEAV?$allocator@V?$shared_ptr@VLine@@@std@@@0@@Z
	??$_Uninitialized_move@PEAV?$shared_ptr@VObj@@@std@@V?$allocator@V?$shared_ptr@VObj@@@std@@@2@@std@@YAPEAV?$shared_ptr@VObj@@@0@QEAV10@0PEAV10@AEAV?$allocator@V?$shared_ptr@VObj@@@std@@@0@@Z
	??$_Uninitialized_move@PEAV?$vector@HV?$allocator@H@std@@@std@@V?$allocator@V?$vector@HV?$allocator@H@std@@@std@@@2@@std@@YAPEAV?$vector@HV?$allocator@H@std@@@0@QEAV10@0PEAV10@AEAV?$allocator@V?$vector@HV?$allocator@H@std@@@std@@@0@@Z
	??$_Uninitialized_move@PEAVInterPtType@@V?$allocator@VInterPtType@@@std@@@std@@YAPEAVInterPtType@@QEAV1@0PEAV1@AEAV?$allocator@VInterPtType@@@0@@Z
	??$_Uninitialized_move@PEAVMergePt@@V?$allocator@VMergePt@@@std@@@std@@YAPEAVMergePt@@QEAV1@0PEAV1@AEAV?$allocator@VMergePt@@@0@@Z
	??$_Uninitialized_move@PEAVNode@@V?$allocator@VNode@@@std@@@std@@YAPEAVNode@@QEAV1@0PEAV1@AEAV?$allocator@VNode@@@0@@Z
	??$_Uninitialized_move@PEAVPair@@V?$allocator@VPair@@@std@@@std@@YAPEAVPair@@QEAV1@0PEAV1@AEAV?$allocator@VPair@@@0@@Z
	??$_Uninitialized_move@PEAVPoint@@V?$allocator@VPoint@@@std@@@std@@YAPEAVPoint@@QEAV1@0PEAV1@AEAV?$allocator@VPoint@@@0@@Z
	??$_Uninitialized_move@PEAVPolyAtEdge@@V?$allocator@VPolyAtEdge@@@std@@@std@@YAPEAVPolyAtEdge@@QEAV1@0PEAV1@AEAV?$allocator@VPolyAtEdge@@@0@@Z
	??$_Uninitialized_move@PEAVStripPtL2@@V?$allocator@VStripPtL2@@@std@@@std@@YAPEAVStripPtL2@@QEAV1@0PEAV1@AEAV?$allocator@VStripPtL2@@@0@@Z
	??$_Uninitialized_move@PEAVStripPtL3@@V?$allocator@VStripPtL3@@@std@@@std@@YAPEAVStripPtL3@@QEAV1@0PEAV1@AEAV?$allocator@VStripPtL3@@@0@@Z
	??$_Uninitialized_move@PEAVStripPtL@@V?$allocator@VStripPtL@@@std@@@std@@YAPEAVStripPtL@@QEAV1@0PEAV1@AEAV?$allocator@VStripPtL@@@0@@Z
	??$_Uninitialized_value_construct_n@V?$allocator@PEAH@std@@@std@@YAPEAPEAHPEAPEAH_KAEAV?$allocator@PEAH@0@@Z
	??$_Uninitialized_value_construct_n@V?$allocator@PEAV?$vector@HV?$allocator@H@std@@@std@@@std@@@std@@YAPEAPEAV?$vector@HV?$allocator@H@std@@@0@PEAPEAV10@_KAEAV?$allocator@PEAV?$vector@HV?$allocator@H@std@@@std@@@0@@Z
	??$_Uninitialized_value_construct_n@V?$allocator@PEAVStripPtR@@@std@@@std@@YAPEAPEAVStripPtR@@PEAPEAV1@_KAEAV?$allocator@PEAVStripPtR@@@0@@Z
	??$_Uninitialized_value_construct_n@V?$allocator@V?$vector@HV?$allocator@H@std@@@std@@@std@@@std@@YAPEAV?$vector@HV?$allocator@H@std@@@0@PEAV10@_KAEAV?$allocator@V?$vector@HV?$allocator@H@std@@@std@@@0@@Z
	??$_Unwrapped@V?$_Deque_iterator@V?$_Deque_val@U?$_Deque_simple_types@VStripPtR@@@std@@@std@@@std@@$0A@@?$reverse_iterator@V?$_Deque_iterator@V?$_Deque_val@U?$_Deque_simple_types@VStripPtR@@@std@@@std@@@std@@@std@@QEBA?AV?$reverse_iterator@V?$_Deque_unchecked_iterator@V?$_Deque_val@U?$_Deque_simple_types@VStripPtR@@@std@@@std@@@std@@@1@XZ
	??$_Unwrapped@V?$_Vector_iterator@V?$_Vector_val@U?$_Simple_types@VStripPtL3@@@std@@@std@@@std@@$0A@@?$reverse_iterator@V?$_Vector_iterator@V?$_Vector_val@U?$_Simple_types@VStripPtL3@@@std@@@std@@@std@@@std@@QEBA?AV?$reverse_iterator@PEAVStripPtL3@@@1@XZ
	??$_Verify_range@V?$_Deque_iterator@V?$_Deque_val@U?$_Deque_simple_types@VStripPtR@@@std@@@std@@@std@@V12@$0A@@std@@YAXAEBV?$reverse_iterator@V?$_Deque_iterator@V?$_Deque_val@U?$_Deque_simple_types@VStripPtR@@@std@@@std@@@std@@@0@0@Z
	??$_Verify_range@V?$_Vector_iterator@V?$_Vector_val@U?$_Simple_types@VStripPtL3@@@std@@@std@@@std@@V12@$0A@@std@@YAXAEBV?$reverse_iterator@V?$_Vector_iterator@V?$_Vector_val@U?$_Simple_types@VStripPtL3@@@std@@@std@@@std@@@0@0@Z
	??$_Verify_range@V?$deque@VStripPtR@@V?$allocator@VStripPtR@@@std@@@std@@@std@@YAXQEBV?$deque@VStripPtR@@V?$allocator@VStripPtR@@@std@@@0@0@Z
	??$_Verify_range@VPair@@@std@@YAXQEBVPair@@0@Z
	??$_Zero_range@PEAPEAH@std@@YAPEAPEAHQEAPEAH0@Z
	??$_Zero_range@PEAPEAV?$vector@HV?$allocator@H@std@@@std@@@std@@YAPEAPEAV?$vector@HV?$allocator@H@std@@@0@QEAPEAV10@0@Z
	??$_Zero_range@PEAPEAVStripPtR@@@std@@YAPEAPEAVStripPtR@@QEAPEAV1@0@Z
	??$acos@HX@@YANH@Z
	??$addressof@$$CBU?$pair@$$CBHH@std@@@std@@YAPEBU?$pair@$$CBHH@0@AEBU10@@Z
	??$addressof@$$CBU?$pair@$$CBHV?$vector@HV?$allocator@H@std@@@std@@@std@@@std@@YAPEBU?$pair@$$CBHV?$vector@HV?$allocator@H@std@@@std@@@0@AEBU10@@Z
	??$addressof@$$CBU?$pair@$$CBHVPStrips@@@std@@@std@@YAPEBU?$pair@$$CBHVPStrips@@@0@AEBU10@@Z
	??$addressof@$$CBU?$pair@$$CBHW4Rel@@@std@@@std@@YAPEBU?$pair@$$CBHW4Rel@@@0@AEBU10@@Z
	??$addressof@$$CBV?$_Deque_val@U?$_Deque_simple_types@H@std@@@std@@@std@@YAPEBV?$_Deque_val@U?$_Deque_simple_types@H@std@@@0@AEBV10@@Z
	??$addressof@$$CBV?$_Deque_val@U?$_Deque_simple_types@VStripPtR@@@std@@@std@@@std@@YAPEBV?$_Deque_val@U?$_Deque_simple_types@VStripPtR@@@std@@@0@AEBV10@@Z
	??$addressof@$$CBV?$_Tree_val@U?$_Tree_simple_types@H@std@@@std@@@std@@YAPEBV?$_Tree_val@U?$_Tree_simple_types@H@std@@@0@AEBV10@@Z
	??$addressof@$$CBV?$_Tree_val@U?$_Tree_simple_types@U?$pair@$$CBHH@std@@@std@@@std@@@std@@YAPEBV?$_Tree_val@U?$_Tree_simple_types@U?$pair@$$CBHH@std@@@std@@@0@AEBV10@@Z
	??$addressof@$$CBV?$_Tree_val@U?$_Tree_simple_types@U?$pair@$$CBHV?$set@HU?$less@H@std@@V?$allocator@H@2@@std@@@std@@@std@@@std@@@std@@YAPEBV?$_Tree_val@U?$_Tree_simple_types@U?$pair@$$CBHV?$set@HU?$less@H@std@@V?$allocator@H@2@@std@@@std@@@std@@@0@AEBV10@@Z
	??$addressof@$$CBV?$_Tree_val@U?$_Tree_simple_types@U?$pair@$$CBHV?$vector@HV?$allocator@H@std@@@std@@@std@@@std@@@std@@@std@@YAPEBV?$_Tree_val@U?$_Tree_simple_types@U?$pair@$$CBHV?$vector@HV?$allocator@H@std@@@std@@@std@@@std@@@0@AEBV10@@Z
	??$addressof@$$CBV?$_Tree_val@U?$_Tree_simple_types@U?$pair@$$CBHV?$vector@V?$reference_wrapper@VStripPtR@@@std@@V?$allocator@V?$reference_wrapper@VStripPtR@@@std@@@2@@std@@@std@@@std@@@std@@@std@@YAPEBV?$_Tree_val@U?$_Tree_simple_types@U?$pair@$$CBHV?$vector@V?$reference_wrapper@VStripPtR@@@std@@V?$allocator@V?$reference_wrapper@VStripPtR@@@std@@@2@@std@@@std@@@std@@@0@AEBV10@@Z
	??$addressof@$$CBV?$_Tree_val@U?$_Tree_simple_types@U?$pair@$$CBHVPStrips@@@std@@@std@@@std@@@std@@YAPEBV?$_Tree_val@U?$_Tree_simple_types@U?$pair@$$CBHVPStrips@@@std@@@std@@@0@AEBV10@@Z
	??$addressof@$$CBV?$_Tree_val@U?$_Tree_simple_types@U?$pair@$$CBHVStripPt@@@std@@@std@@@std@@@std@@YAPEBV?$_Tree_val@U?$_Tree_simple_types@U?$pair@$$CBHVStripPt@@@std@@@std@@@0@AEBV10@@Z
	??$addressof@$$CBV?$_Tree_val@U?$_Tree_simple_types@U?$pair@$$CBHW4Rel@@@std@@@std@@@std@@@std@@YAPEBV?$_Tree_val@U?$_Tree_simple_types@U?$pair@$$CBHW4Rel@@@std@@@std@@@0@AEBV10@@Z
	??$addressof@$$CBV?$_Tree_val@U?$_Tree_simple_types@U?$pair@$$CBVPair@@V?$map@HHU?$less@H@std@@V?$allocator@U?$pair@$$CBHH@std@@@2@@std@@@std@@@std@@@std@@@std@@YAPEBV?$_Tree_val@U?$_Tree_simple_types@U?$pair@$$CBVPair@@V?$map@HHU?$less@H@std@@V?$allocator@U?$pair@$$CBHH@std@@@2@@std@@@std@@@std@@@0@AEBV10@@Z
	??$addressof@$$CBV?$_Tree_val@U?$_Tree_simple_types@V?$reference_wrapper@VStripPt@@@std@@@std@@@std@@@std@@YAPEBV?$_Tree_val@U?$_Tree_simple_types@V?$reference_wrapper@VStripPt@@@std@@@std@@@0@AEBV10@@Z
	??$addressof@$$CBV?$_Tree_val@U?$_Tree_simple_types@VPair@@@std@@@std@@@std@@YAPEBV?$_Tree_val@U?$_Tree_simple_types@VPair@@@std@@@0@AEBV10@@Z
	??$addressof@$$CBV?$_Tree_val@U?$_Tree_simple_types@VStripPtL3@@@std@@@std@@@std@@YAPEBV?$_Tree_val@U?$_Tree_simple_types@VStripPtL3@@@std@@@0@AEBV10@@Z
	??$addressof@$$CBV?$_Tree_val@U?$_Tree_simple_types@VStripPtL@@@std@@@std@@@std@@YAPEBV?$_Tree_val@U?$_Tree_simple_types@VStripPtL@@@std@@@0@AEBV10@@Z
	??$addressof@$$CBV?$_Vector_val@U?$_Simple_types@H@std@@@std@@@std@@YAPEBV?$_Vector_val@U?$_Simple_types@H@std@@@0@AEBV10@@Z
	??$addressof@$$CBV?$_Vector_val@U?$_Simple_types@V?$deque@VStripPtR@@V?$allocator@VStripPtR@@@std@@@std@@@std@@@std@@@std@@YAPEBV?$_Vector_val@U?$_Simple_types@V?$deque@VStripPtR@@V?$allocator@VStripPtR@@@std@@@std@@@std@@@0@AEBV10@@Z
	??$addressof@$$CBV?$_Vector_val@U?$_Simple_types@VPair@@@std@@@std@@@std@@YAPEBV?$_Vector_val@U?$_Simple_types@VPair@@@std@@@0@AEBV10@@Z
	??$addressof@$$CBV?$codecvt@DDU_Mbstatet@@@std@@@std@@YAPEBV?$codecvt@DDU_Mbstatet@@@0@AEBV10@@Z
	??$addressof@$$CBV?$vector@VPair@@V?$allocator@VPair@@@std@@@std@@@std@@YAPEBV?$vector@VPair@@V?$allocator@VPair@@@std@@@0@AEBV10@@Z
	??$addressof@$$CBVStripPtL@@@std@@YAPEBVStripPtL@@AEBV1@@Z
	??$addressof@$$CBVStripPtR@@@std@@YAPEBVStripPtR@@AEBV1@@Z
	??$addressof@H@std@@YAPEAHAEAH@Z
	??$addressof@PEAD@std@@YAPEAPEADAEAPEAD@Z
	??$addressof@PEAH@std@@YAPEAPEAHAEAPEAH@Z
	??$addressof@PEAU?$_List_node@U?$pair@$$CBVPair@@VSubP@@@std@@PEAX@std@@@std@@YAPEAPEAU?$_List_node@U?$pair@$$CBVPair@@VSubP@@@std@@PEAX@0@AEAPEAU10@@Z
	??$addressof@PEAU?$_List_node@VPair@@PEAX@std@@@std@@YAPEAPEAU?$_List_node@VPair@@PEAX@0@AEAPEAU10@@Z
	??$addressof@PEAU?$_Tree_node@HPEAX@std@@@std@@YAPEAPEAU?$_Tree_node@HPEAX@0@AEAPEAU10@@Z
	??$addressof@PEAU?$_Tree_node@U?$pair@$$CBHH@std@@PEAX@std@@@std@@YAPEAPEAU?$_Tree_node@U?$pair@$$CBHH@std@@PEAX@0@AEAPEAU10@@Z
	??$addressof@PEAU?$_Tree_node@U?$pair@$$CBHV?$set@HU?$less@H@std@@V?$allocator@H@2@@std@@@std@@PEAX@std@@@std@@YAPEAPEAU?$_Tree_node@U?$pair@$$CBHV?$set@HU?$less@H@std@@V?$allocator@H@2@@std@@@std@@PEAX@0@AEAPEAU10@@Z
	??$addressof@PEAU?$_Tree_node@U?$pair@$$CBHV?$vector@HV?$allocator@H@std@@@std@@@std@@PEAX@std@@@std@@YAPEAPEAU?$_Tree_node@U?$pair@$$CBHV?$vector@HV?$allocator@H@std@@@std@@@std@@PEAX@0@AEAPEAU10@@Z
	??$addressof@PEAU?$_Tree_node@U?$pair@$$CBHV?$vector@V?$reference_wrapper@VStripPtR@@@std@@V?$allocator@V?$reference_wrapper@VStripPtR@@@std@@@2@@std@@@std@@PEAX@std@@@std@@YAPEAPEAU?$_Tree_node@U?$pair@$$CBHV?$vector@V?$reference_wrapper@VStripPtR@@@std@@V?$allocator@V?$reference_wrapper@VStripPtR@@@std@@@2@@std@@@std@@PEAX@0@AEAPEAU10@@Z
	??$addressof@PEAU?$_Tree_node@U?$pair@$$CBHVPStrips@@@std@@PEAX@std@@@std@@YAPEAPEAU?$_Tree_node@U?$pair@$$CBHVPStrips@@@std@@PEAX@0@AEAPEAU10@@Z
	??$addressof@PEAU?$_Tree_node@U?$pair@$$CBHVStripPt@@@std@@PEAX@std@@@std@@YAPEAPEAU?$_Tree_node@U?$pair@$$CBHVStripPt@@@std@@PEAX@0@AEAPEAU10@@Z
	??$addressof@PEAU?$_Tree_node@U?$pair@$$CBHW4Rel@@@std@@PEAX@std@@@std@@YAPEAPEAU?$_Tree_node@U?$pair@$$CBHW4Rel@@@std@@PEAX@0@AEAPEAU10@@Z
	??$addressof@PEAU?$_Tree_node@U?$pair@$$CBVPair@@V?$map@HHU?$less@H@std@@V?$allocator@U?$pair@$$CBHH@std@@@2@@std@@@std@@PEAX@std@@@std@@YAPEAPEAU?$_Tree_node@U?$pair@$$CBVPair@@V?$map@HHU?$less@H@std@@V?$allocator@U?$pair@$$CBHH@std@@@2@@std@@@std@@PEAX@0@AEAPEAU10@@Z
	??$addressof@PEAU?$_Tree_node@V?$reference_wrapper@VStripPt@@@std@@PEAX@std@@@std@@YAPEAPEAU?$_Tree_node@V?$reference_wrapper@VStripPt@@@std@@PEAX@0@AEAPEAU10@@Z
	??$addressof@PEAU?$_Tree_node@VPair@@PEAX@std@@@std@@YAPEAPEAU?$_Tree_node@VPair@@PEAX@0@AEAPEAU10@@Z
	??$addressof@PEAU?$_Tree_node@VStripPtL3@@PEAX@std@@@std@@YAPEAPEAU?$_Tree_node@VStripPtL3@@PEAX@0@AEAPEAU10@@Z
	??$addressof@PEAU?$_Tree_node@VStripPtL@@PEAX@std@@@std@@YAPEAPEAU?$_Tree_node@VStripPtL@@PEAX@0@AEAPEAU10@@Z
	??$addressof@PEAV?$vector@HV?$allocator@H@std@@@std@@@std@@YAPEAPEAV?$vector@HV?$allocator@H@std@@@0@AEAPEAV10@@Z
	??$addressof@PEAVPair@@@std@@YAPEAPEAVPair@@AEAPEAV1@@Z
	??$addressof@PEAVStripPtR@@@std@@YAPEAPEAVStripPtR@@AEAPEAV1@@Z
	??$addressof@U?$pair@$$CBHH@std@@@std@@YAPEAU?$pair@$$CBHH@0@AEAU10@@Z
	??$addressof@U?$pair@$$CBHV?$set@HU?$less@H@std@@V?$allocator@H@2@@std@@@std@@@std@@YAPEAU?$pair@$$CBHV?$set@HU?$less@H@std@@V?$allocator@H@2@@std@@@0@AEAU10@@Z
	??$addressof@U?$pair@$$CBHV?$vector@HV?$allocator@H@std@@@std@@@std@@@std@@YAPEAU?$pair@$$CBHV?$vector@HV?$allocator@H@std@@@std@@@0@AEAU10@@Z
	??$addressof@U?$pair@$$CBHV?$vector@V?$reference_wrapper@VStripPtR@@@std@@V?$allocator@V?$reference_wrapper@VStripPtR@@@std@@@2@@std@@@std@@@std@@YAPEAU?$pair@$$CBHV?$vector@V?$reference_wrapper@VStripPtR@@@std@@V?$allocator@V?$reference_wrapper@VStripPtR@@@std@@@2@@std@@@0@AEAU10@@Z
	??$addressof@U?$pair@$$CBHVPStrips@@@std@@@std@@YAPEAU?$pair@$$CBHVPStrips@@@0@AEAU10@@Z
	??$addressof@U?$pair@$$CBHVStripPt@@@std@@@std@@YAPEAU?$pair@$$CBHVStripPt@@@0@AEAU10@@Z
	??$addressof@U?$pair@$$CBHW4Rel@@@std@@@std@@YAPEAU?$pair@$$CBHW4Rel@@@0@AEAU10@@Z
	??$addressof@U?$pair@$$CBVPair@@V?$map@HHU?$less@H@std@@V?$allocator@U?$pair@$$CBHH@std@@@2@@std@@@std@@@std@@YAPEAU?$pair@$$CBVPair@@V?$map@HHU?$less@H@std@@V?$allocator@U?$pair@$$CBHH@std@@@2@@std@@@0@AEAU10@@Z
	??$addressof@U?$pair@$$CBVPair@@VSubP@@@std@@@std@@YAPEAU?$pair@$$CBVPair@@VSubP@@@0@AEAU10@@Z
	??$addressof@U_Container_base12@std@@@std@@YAPEAU_Container_base12@0@AEAU10@@Z
	??$addressof@V?$_Deque_val@U?$_Deque_simple_types@H@std@@@std@@@std@@YAPEAV?$_Deque_val@U?$_Deque_simple_types@H@std@@@0@AEAV10@@Z
	??$addressof@V?$_Deque_val@U?$_Deque_simple_types@V?$vector@HV?$allocator@H@std@@@std@@@std@@@std@@@std@@YAPEAV?$_Deque_val@U?$_Deque_simple_types@V?$vector@HV?$allocator@H@std@@@std@@@std@@@0@AEAV10@@Z
	??$addressof@V?$_Deque_val@U?$_Deque_simple_types@VStripPtR@@@std@@@std@@@std@@YAPEAV?$_Deque_val@U?$_Deque_simple_types@VStripPtR@@@std@@@0@AEAV10@@Z
	??$addressof@V?$_Tree_val@U?$_Tree_simple_types@H@std@@@std@@@std@@YAPEAV?$_Tree_val@U?$_Tree_simple_types@H@std@@@0@AEAV10@@Z
	??$addressof@V?$_Tree_val@U?$_Tree_simple_types@U?$pair@$$CBHH@std@@@std@@@std@@@std@@YAPEAV?$_Tree_val@U?$_Tree_simple_types@U?$pair@$$CBHH@std@@@std@@@0@AEAV10@@Z
	??$addressof@V?$_Tree_val@U?$_Tree_simple_types@U?$pair@$$CBHV?$set@HU?$less@H@std@@V?$allocator@H@2@@std@@@std@@@std@@@std@@@std@@YAPEAV?$_Tree_val@U?$_Tree_simple_types@U?$pair@$$CBHV?$set@HU?$less@H@std@@V?$allocator@H@2@@std@@@std@@@std@@@0@AEAV10@@Z
	??$addressof@V?$_Tree_val@U?$_Tree_simple_types@U?$pair@$$CBHV?$vector@HV?$allocator@H@std@@@std@@@std@@@std@@@std@@@std@@YAPEAV?$_Tree_val@U?$_Tree_simple_types@U?$pair@$$CBHV?$vector@HV?$allocator@H@std@@@std@@@std@@@std@@@0@AEAV10@@Z
	??$addressof@V?$_Tree_val@U?$_Tree_simple_types@U?$pair@$$CBHV?$vector@V?$reference_wrapper@VStripPtR@@@std@@V?$allocator@V?$reference_wrapper@VStripPtR@@@std@@@2@@std@@@std@@@std@@@std@@@std@@YAPEAV?$_Tree_val@U?$_Tree_simple_types@U?$pair@$$CBHV?$vector@V?$reference_wrapper@VStripPtR@@@std@@V?$allocator@V?$reference_wrapper@VStripPtR@@@std@@@2@@std@@@std@@@std@@@0@AEAV10@@Z
	??$addressof@V?$_Tree_val@U?$_Tree_simple_types@U?$pair@$$CBHVPStrips@@@std@@@std@@@std@@@std@@YAPEAV?$_Tree_val@U?$_Tree_simple_types@U?$pair@$$CBHVPStrips@@@std@@@std@@@0@AEAV10@@Z
	??$addressof@V?$_Tree_val@U?$_Tree_simple_types@U?$pair@$$CBHVStripPt@@@std@@@std@@@std@@@std@@YAPEAV?$_Tree_val@U?$_Tree_simple_types@U?$pair@$$CBHVStripPt@@@std@@@std@@@0@AEAV10@@Z
	??$addressof@V?$_Tree_val@U?$_Tree_simple_types@U?$pair@$$CBHW4Rel@@@std@@@std@@@std@@@std@@YAPEAV?$_Tree_val@U?$_Tree_simple_types@U?$pair@$$CBHW4Rel@@@std@@@std@@@0@AEAV10@@Z
	??$addressof@V?$_Tree_val@U?$_Tree_simple_types@U?$pair@$$CBVPair@@V?$map@HHU?$less@H@std@@V?$allocator@U?$pair@$$CBHH@std@@@2@@std@@@std@@@std@@@std@@@std@@YAPEAV?$_Tree_val@U?$_Tree_simple_types@U?$pair@$$CBVPair@@V?$map@HHU?$less@H@std@@V?$allocator@U?$pair@$$CBHH@std@@@2@@std@@@std@@@std@@@0@AEAV10@@Z
	??$addressof@V?$_Tree_val@U?$_Tree_simple_types@V?$reference_wrapper@VStripPt@@@std@@@std@@@std@@@std@@YAPEAV?$_Tree_val@U?$_Tree_simple_types@V?$reference_wrapper@VStripPt@@@std@@@std@@@0@AEAV10@@Z
	??$addressof@V?$_Tree_val@U?$_Tree_simple_types@VPair@@@std@@@std@@@std@@YAPEAV?$_Tree_val@U?$_Tree_simple_types@VPair@@@std@@@0@AEAV10@@Z
	??$addressof@V?$_Tree_val@U?$_Tree_simple_types@VStripPtL3@@@std@@@std@@@std@@YAPEAV?$_Tree_val@U?$_Tree_simple_types@VStripPtL3@@@std@@@0@AEAV10@@Z
	??$addressof@V?$_Tree_val@U?$_Tree_simple_types@VStripPtL@@@std@@@std@@@std@@YAPEAV?$_Tree_val@U?$_Tree_simple_types@VStripPtL@@@std@@@0@AEAV10@@Z
	??$addressof@V?$_Vector_val@U?$_Simple_types@H@std@@@std@@@std@@YAPEAV?$_Vector_val@U?$_Simple_types@H@std@@@0@AEAV10@@Z
	??$addressof@V?$_Vector_val@U?$_Simple_types@PEBVInterPtType@@@std@@@std@@@std@@YAPEAV?$_Vector_val@U?$_Simple_types@PEBVInterPtType@@@std@@@0@AEAV10@@Z
	??$addressof@V?$_Vector_val@U?$_Simple_types@U?$pair@VInterPtType@@V1@@std@@@std@@@std@@@std@@YAPEAV?$_Vector_val@U?$_Simple_types@U?$pair@VInterPtType@@V1@@std@@@std@@@0@AEAV10@@Z
	??$addressof@V?$_Vector_val@U?$_Simple_types@V?$deque@VStripPtR@@V?$allocator@VStripPtR@@@std@@@std@@@std@@@std@@@std@@YAPEAV?$_Vector_val@U?$_Simple_types@V?$deque@VStripPtR@@V?$allocator@VStripPtR@@@std@@@std@@@std@@@0@AEAV10@@Z
	??$addressof@V?$_Vector_val@U?$_Simple_types@V?$reference_wrapper@VStripPtR@@@std@@@std@@@std@@@std@@YAPEAV?$_Vector_val@U?$_Simple_types@V?$reference_wrapper@VStripPtR@@@std@@@std@@@0@AEAV10@@Z
	??$addressof@V?$_Vector_val@U?$_Simple_types@V?$shared_ptr@VLine@@@std@@@std@@@std@@@std@@YAPEAV?$_Vector_val@U?$_Simple_types@V?$shared_ptr@VLine@@@std@@@std@@@0@AEAV10@@Z
	??$addressof@V?$_Vector_val@U?$_Simple_types@V?$shared_ptr@VObj@@@std@@@std@@@std@@@std@@YAPEAV?$_Vector_val@U?$_Simple_types@V?$shared_ptr@VObj@@@std@@@std@@@0@AEAV10@@Z
	??$addressof@V?$_Vector_val@U?$_Simple_types@V?$vector@HV?$allocator@H@std@@@std@@@std@@@std@@@std@@YAPEAV?$_Vector_val@U?$_Simple_types@V?$vector@HV?$allocator@H@std@@@std@@@std@@@0@AEAV10@@Z
	??$addressof@V?$_Vector_val@U?$_Simple_types@VInterPtType@@@std@@@std@@@std@@YAPEAV?$_Vector_val@U?$_Simple_types@VInterPtType@@@std@@@0@AEAV10@@Z
	??$addressof@V?$_Vector_val@U?$_Simple_types@VMergePt@@@std@@@std@@@std@@YAPEAV?$_Vector_val@U?$_Simple_types@VMergePt@@@std@@@0@AEAV10@@Z
	??$addressof@V?$_Vector_val@U?$_Simple_types@VPair@@@std@@@std@@@std@@YAPEAV?$_Vector_val@U?$_Simple_types@VPair@@@std@@@0@AEAV10@@Z
	??$addressof@V?$_Vector_val@U?$_Simple_types@VPoint@@@std@@@std@@@std@@YAPEAV?$_Vector_val@U?$_Simple_types@VPoint@@@std@@@0@AEAV10@@Z
	??$addressof@V?$_Vector_val@U?$_Simple_types@VStripPtL2@@@std@@@std@@@std@@YAPEAV?$_Vector_val@U?$_Simple_types@VStripPtL2@@@std@@@0@AEAV10@@Z
	??$addressof@V?$_Vector_val@U?$_Simple_types@VStripPtL3@@@std@@@std@@@std@@YAPEAV?$_Vector_val@U?$_Simple_types@VStripPtL3@@@std@@@0@AEAV10@@Z
	??$addressof@V?$_Vector_val@U?$_Simple_types@VStripPtL@@@std@@@std@@@std@@YAPEAV?$_Vector_val@U?$_Simple_types@VStripPtL@@@std@@@0@AEAV10@@Z
	??$addressof@V?$deque@VStripPtR@@V?$allocator@VStripPtR@@@std@@@std@@@std@@YAPEAV?$deque@VStripPtR@@V?$allocator@VStripPtR@@@std@@@0@AEAV10@@Z
	??$addressof@V?$reference_wrapper@VStripPt@@@std@@@std@@YAPEAV?$reference_wrapper@VStripPt@@@0@AEAV10@@Z
	??$addressof@V?$vector@HV?$allocator@H@std@@@std@@@std@@YAPEAV?$vector@HV?$allocator@H@std@@@0@AEAV10@@Z
	??$addressof@VPair@@@std@@YAPEAVPair@@AEAV1@@Z
	??$addressof@VStripPt@@@std@@YAPEAVStripPt@@AEAV1@@Z
	??$addressof@VStripPtL3@@@std@@YAPEAVStripPtL3@@AEAV1@@Z
	??$addressof@VStripPtL@@@std@@YAPEAVStripPtL@@AEAV1@@Z
	??$addressof@VStripPtR@@@std@@YAPEAVStripPtR@@AEAV1@@Z
	??$advance@PEAVInterPtType@@_J@std@@YAXAEAPEAVInterPtType@@_J@Z
	??$advance@V?$_Tree_const_iterator@V?$_Tree_val@U?$_Tree_simple_types@V?$reference_wrapper@VStripPt@@@std@@@std@@@std@@@std@@_J@std@@YAXAEAV?$_Tree_const_iterator@V?$_Tree_val@U?$_Tree_simple_types@V?$reference_wrapper@VStripPt@@@std@@@std@@@std@@@0@_J@Z
	??$assign@PEAVPair@@X@?$vector@VPair@@V?$allocator@VPair@@@std@@@std@@QEAAXPEAVPair@@0@Z
	??$construct@HAEAH@?$_Default_allocator_traits@V?$allocator@H@std@@@std@@SAXAEAV?$allocator@H@1@QEAHAEAH@Z
	??$construct@HAEAH@?$_Default_allocator_traits@V?$allocator@U?$_Tree_node@HPEAX@std@@@std@@@std@@SAXAEAV?$allocator@U?$_Tree_node@HPEAX@std@@@1@QEAHAEAH@Z
	??$construct@HAEBH@?$_Default_allocator_traits@V?$allocator@H@std@@@std@@SAXAEAV?$allocator@H@1@QEAHAEBH@Z
	??$construct@HAEBH@?$_Default_allocator_traits@V?$allocator@U?$_Tree_node@HPEAX@std@@@std@@@std@@SAXAEAV?$allocator@U?$_Tree_node@HPEAX@std@@@1@QEAHAEBH@Z
	??$construct@HH@?$_Default_allocator_traits@V?$allocator@H@std@@@std@@SAXAEAV?$allocator@H@1@QEAH$$QEAH@Z
	??$construct@HH@?$_Default_allocator_traits@V?$allocator@U?$_Tree_node@HPEAX@std@@@std@@@std@@SAXAEAV?$allocator@U?$_Tree_node@HPEAX@std@@@1@QEAH$$QEAH@Z
	??$construct@PEADAEBQEAD@?$_Default_allocator_traits@V?$allocator@D@std@@@std@@SAXAEAV?$allocator@D@1@QEAPEADAEBQEAD@Z
	??$construct@PEAU?$_Tree_node@HPEAX@std@@AEAPEAU12@@?$_Default_allocator_traits@V?$allocator@U?$_Tree_node@HPEAX@std@@@std@@@std@@SAXAEAV?$allocator@U?$_Tree_node@HPEAX@std@@@1@QEAPEAU?$_Tree_node@HPEAX@1@AEAPEAU31@@Z
	??$construct@PEAU?$_Tree_node@U?$pair@$$CBHH@std@@PEAX@std@@AEAPEAU12@@?$_Default_allocator_traits@V?$allocator@U?$_Tree_node@U?$pair@$$CBHH@std@@PEAX@std@@@std@@@std@@SAXAEAV?$allocator@U?$_Tree_node@U?$pair@$$CBHH@std@@PEAX@std@@@1@QEAPEAU?$_Tree_node@U?$pair@$$CBHH@std@@PEAX@1@AEAPEAU31@@Z
	??$construct@PEAU?$_Tree_node@U?$pair@$$CBHV?$set@HU?$less@H@std@@V?$allocator@H@2@@std@@@std@@PEAX@std@@AEAPEAU12@@?$_Default_allocator_traits@V?$allocator@U?$_Tree_node@U?$pair@$$CBHV?$set@HU?$less@H@std@@V?$allocator@H@2@@std@@@std@@PEAX@std@@@std@@@std@@SAXAEAV?$allocator@U?$_Tree_node@U?$pair@$$CBHV?$set@HU?$less@H@std@@V?$allocator@H@2@@std@@@std@@PEAX@std@@@1@QEAPEAU?$_Tree_node@U?$pair@$$CBHV?$set@HU?$less@H@std@@V?$allocator@H@2@@std@@@std@@PEAX@1@AEAPEAU31@@Z
	??$construct@PEAU?$_Tree_node@U?$pair@$$CBHV?$vector@HV?$allocator@H@std@@@std@@@std@@PEAX@std@@AEAPEAU12@@?$_Default_allocator_traits@V?$allocator@U?$_Tree_node@U?$pair@$$CBHV?$vector@HV?$allocator@H@std@@@std@@@std@@PEAX@std@@@std@@@std@@SAXAEAV?$allocator@U?$_Tree_node@U?$pair@$$CBHV?$vector@HV?$allocator@H@std@@@std@@@std@@PEAX@std@@@1@QEAPEAU?$_Tree_node@U?$pair@$$CBHV?$vector@HV?$allocator@H@std@@@std@@@std@@PEAX@1@AEAPEAU31@@Z
	??$construct@PEAU?$_Tree_node@U?$pair@$$CBHV?$vector@V?$reference_wrapper@VStripPtR@@@std@@V?$allocator@V?$reference_wrapper@VStripPtR@@@std@@@2@@std@@@std@@PEAX@std@@AEAPEAU12@@?$_Default_allocator_traits@V?$allocator@U?$_Tree_node@U?$pair@$$CBHV?$vector@V?$reference_wrapper@VStripPtR@@@std@@V?$allocator@V?$reference_wrapper@VStripPtR@@@std@@@2@@std@@@std@@PEAX@std@@@std@@@std@@SAXAEAV?$allocator@U?$_Tree_node@U?$pair@$$CBHV?$vector@V?$reference_wrapper@VStripPtR@@@std@@V?$allocator@V?$reference_wrapper@VStripPtR@@@std@@@2@@std@@@std@@PEAX@std@@@1@QEAPEAU?$_Tree_node@U?$pair@$$CBHV?$vector@V?$reference_wrapper@VStripPtR@@@std@@V?$allocator@V?$reference_wrapper@VStripPtR@@@std@@@2@@std@@@std@@PEAX@1@AEAPEAU31@@Z
	??$construct@PEAU?$_Tree_node@U?$pair@$$CBHVPStrips@@@std@@PEAX@std@@AEAPEAU12@@?$_Default_allocator_traits@V?$allocator@U?$_Tree_node@U?$pair@$$CBHVPStrips@@@std@@PEAX@std@@@std@@@std@@SAXAEAV?$allocator@U?$_Tree_node@U?$pair@$$CBHVPStrips@@@std@@PEAX@std@@@1@QEAPEAU?$_Tree_node@U?$pair@$$CBHVPStrips@@@std@@PEAX@1@AEAPEAU31@@Z
	??$construct@PEAU?$_Tree_node@U?$pair@$$CBHVStripPt@@@std@@PEAX@std@@AEAPEAU12@@?$_Default_allocator_traits@V?$allocator@U?$_Tree_node@U?$pair@$$CBHVStripPt@@@std@@PEAX@std@@@std@@@std@@SAXAEAV?$allocator@U?$_Tree_node@U?$pair@$$CBHVStripPt@@@std@@PEAX@std@@@1@QEAPEAU?$_Tree_node@U?$pair@$$CBHVStripPt@@@std@@PEAX@1@AEAPEAU31@@Z
	??$construct@PEAU?$_Tree_node@U?$pair@$$CBHW4Rel@@@std@@PEAX@std@@AEAPEAU12@@?$_Default_allocator_traits@V?$allocator@U?$_Tree_node@U?$pair@$$CBHW4Rel@@@std@@PEAX@std@@@std@@@std@@SAXAEAV?$allocator@U?$_Tree_node@U?$pair@$$CBHW4Rel@@@std@@PEAX@std@@@1@QEAPEAU?$_Tree_node@U?$pair@$$CBHW4Rel@@@std@@PEAX@1@AEAPEAU31@@Z
	??$construct@PEAU?$_Tree_node@U?$pair@$$CBVPair@@V?$map@HHU?$less@H@std@@V?$allocator@U?$pair@$$CBHH@std@@@2@@std@@@std@@PEAX@std@@AEAPEAU12@@?$_Default_allocator_traits@V?$allocator@U?$_Tree_node@U?$pair@$$CBVPair@@V?$map@HHU?$less@H@std@@V?$allocator@U?$pair@$$CBHH@std@@@2@@std@@@std@@PEAX@std@@@std@@@std@@SAXAEAV?$allocator@U?$_Tree_node@U?$pair@$$CBVPair@@V?$map@HHU?$less@H@std@@V?$allocator@U?$pair@$$CBHH@std@@@2@@std@@@std@@PEAX@std@@@1@QEAPEAU?$_Tree_node@U?$pair@$$CBVPair@@V?$map@HHU?$less@H@std@@V?$allocator@U?$pair@$$CBHH@std@@@2@@std@@@std@@PEAX@1@AEAPEAU31@@Z
	??$construct@PEAU?$_Tree_node@V?$reference_wrapper@VStripPt@@@std@@PEAX@std@@AEAPEAU12@@?$_Default_allocator_traits@V?$allocator@U?$_Tree_node@V?$reference_wrapper@VStripPt@@@std@@PEAX@std@@@std@@@std@@SAXAEAV?$allocator@U?$_Tree_node@V?$reference_wrapper@VStripPt@@@std@@PEAX@std@@@1@QEAPEAU?$_Tree_node@V?$reference_wrapper@VStripPt@@@std@@PEAX@1@AEAPEAU31@@Z
	??$construct@PEAU?$_Tree_node@VPair@@PEAX@std@@AEAPEAU12@@?$_Default_allocator_traits@V?$allocator@U?$_Tree_node@VPair@@PEAX@std@@@std@@@std@@SAXAEAV?$allocator@U?$_Tree_node@VPair@@PEAX@std@@@1@QEAPEAU?$_Tree_node@VPair@@PEAX@1@AEAPEAU31@@Z
	??$construct@PEAU?$_Tree_node@VStripPtL3@@PEAX@std@@AEAPEAU12@@?$_Default_allocator_traits@V?$allocator@U?$_Tree_node@VStripPtL3@@PEAX@std@@@std@@@std@@SAXAEAV?$allocator@U?$_Tree_node@VStripPtL3@@PEAX@std@@@1@QEAPEAU?$_Tree_node@VStripPtL3@@PEAX@1@AEAPEAU31@@Z
	??$construct@PEAU?$_Tree_node@VStripPtL@@PEAX@std@@AEAPEAU12@@?$_Default_allocator_traits@V?$allocator@U?$_Tree_node@VStripPtL@@PEAX@std@@@std@@@std@@SAXAEAV?$allocator@U?$_Tree_node@VStripPtL@@PEAX@std@@@1@QEAPEAU?$_Tree_node@VStripPtL@@PEAX@1@AEAPEAU31@@Z
	??$construct@PEBVInterPtType@@PEBV1@@?$_Default_allocator_traits@V?$allocator@PEBVInterPtType@@@std@@@std@@SAXAEAV?$allocator@PEBVInterPtType@@@1@QEAPEBVInterPtType@@$$QEAPEBV3@@Z
	??$construct@U?$pair@$$CBHH@std@@AEBUpiecewise_construct_t@2@V?$tuple@AEBH@2@V?$tuple@$$V@2@@?$_Default_allocator_traits@V?$allocator@U?$_Tree_node@U?$pair@$$CBHH@std@@PEAX@std@@@std@@@std@@SAXAEAV?$allocator@U?$_Tree_node@U?$pair@$$CBHH@std@@PEAX@std@@@1@QEAU?$pair@$$CBHH@1@AEBUpiecewise_construct_t@1@$$QEAV?$tuple@AEBH@1@$$QEAV?$tuple@$$V@1@@Z
	??$construct@U?$pair@$$CBHV?$set@HU?$less@H@std@@V?$allocator@H@2@@std@@@std@@AEBUpiecewise_construct_t@2@V?$tuple@AEBH@2@V?$tuple@$$V@2@@?$_Default_allocator_traits@V?$allocator@U?$_Tree_node@U?$pair@$$CBHV?$set@HU?$less@H@std@@V?$allocator@H@2@@std@@@std@@PEAX@std@@@std@@@std@@SAXAEAV?$allocator@U?$_Tree_node@U?$pair@$$CBHV?$set@HU?$less@H@std@@V?$allocator@H@2@@std@@@std@@PEAX@std@@@1@QEAU?$pair@$$CBHV?$set@HU?$less@H@std@@V?$allocator@H@2@@std@@@1@AEBUpiecewise_construct_t@1@$$QEAV?$tuple@AEBH@1@$$QEAV?$tuple@$$V@1@@Z
	??$construct@U?$pair@$$CBHV?$vector@HV?$allocator@H@std@@@std@@@std@@AEBUpiecewise_construct_t@2@V?$tuple@AEBH@2@V?$tuple@$$V@2@@?$_Default_allocator_traits@V?$allocator@U?$_Tree_node@U?$pair@$$CBHV?$vector@HV?$allocator@H@std@@@std@@@std@@PEAX@std@@@std@@@std@@SAXAEAV?$allocator@U?$_Tree_node@U?$pair@$$CBHV?$vector@HV?$allocator@H@std@@@std@@@std@@PEAX@std@@@1@QEAU?$pair@$$CBHV?$vector@HV?$allocator@H@std@@@std@@@1@AEBUpiecewise_construct_t@1@$$QEAV?$tuple@AEBH@1@$$QEAV?$tuple@$$V@1@@Z
	??$construct@U?$pair@$$CBHV?$vector@V?$reference_wrapper@VStripPtR@@@std@@V?$allocator@V?$reference_wrapper@VStripPtR@@@std@@@2@@std@@@std@@AEBUpiecewise_construct_t@2@V?$tuple@AEBH@2@V?$tuple@$$V@2@@?$_Default_allocator_traits@V?$allocator@U?$_Tree_node@U?$pair@$$CBHV?$vector@V?$reference_wrapper@VStripPtR@@@std@@V?$allocator@V?$reference_wrapper@VStripPtR@@@std@@@2@@std@@@std@@PEAX@std@@@std@@@std@@SAXAEAV?$allocator@U?$_Tree_node@U?$pair@$$CBHV?$vector@V?$reference_wrapper@VStripPtR@@@std@@V?$allocator@V?$reference_wrapper@VStripPtR@@@std@@@2@@std@@@std@@PEAX@std@@@1@QEAU?$pair@$$CBHV?$vector@V?$reference_wrapper@VStripPtR@@@std@@V?$allocator@V?$reference_wrapper@VStripPtR@@@std@@@2@@std@@@1@AEBUpiecewise_construct_t@1@$$QEAV?$tuple@AEBH@1@$$QEAV?$tuple@$$V@1@@Z
	??$construct@U?$pair@$$CBHVPStrips@@@std@@AEBUpiecewise_construct_t@2@V?$tuple@AEBH@2@V?$tuple@$$V@2@@?$_Default_allocator_traits@V?$allocator@U?$_Tree_node@U?$pair@$$CBHVPStrips@@@std@@PEAX@std@@@std@@@std@@SAXAEAV?$allocator@U?$_Tree_node@U?$pair@$$CBHVPStrips@@@std@@PEAX@std@@@1@QEAU?$pair@$$CBHVPStrips@@@1@AEBUpiecewise_construct_t@1@$$QEAV?$tuple@AEBH@1@$$QEAV?$tuple@$$V@1@@Z
	??$construct@U?$pair@$$CBHVStripPt@@@std@@AEAU12@@?$_Default_allocator_traits@V?$allocator@U?$_Tree_node@U?$pair@$$CBHVStripPt@@@std@@PEAX@std@@@std@@@std@@SAXAEAV?$allocator@U?$_Tree_node@U?$pair@$$CBHVStripPt@@@std@@PEAX@std@@@1@QEAU?$pair@$$CBHVStripPt@@@1@AEAU31@@Z
	??$construct@U?$pair@$$CBHVStripPt@@@std@@AEBUpiecewise_construct_t@2@V?$tuple@AEBH@2@V?$tuple@$$V@2@@?$_Default_allocator_traits@V?$allocator@U?$_Tree_node@U?$pair@$$CBHVStripPt@@@std@@PEAX@std@@@std@@@std@@SAXAEAV?$allocator@U?$_Tree_node@U?$pair@$$CBHVStripPt@@@std@@PEAX@std@@@1@QEAU?$pair@$$CBHVStripPt@@@1@AEBUpiecewise_construct_t@1@$$QEAV?$tuple@AEBH@1@$$QEAV?$tuple@$$V@1@@Z
	??$construct@U?$pair@$$CBHW4Rel@@@std@@AEBUpiecewise_construct_t@2@V?$tuple@AEBH@2@V?$tuple@$$V@2@@?$_Default_allocator_traits@V?$allocator@U?$_Tree_node@U?$pair@$$CBHW4Rel@@@std@@PEAX@std@@@std@@@std@@SAXAEAV?$allocator@U?$_Tree_node@U?$pair@$$CBHW4Rel@@@std@@PEAX@std@@@1@QEAU?$pair@$$CBHW4Rel@@@1@AEBUpiecewise_construct_t@1@$$QEAV?$tuple@AEBH@1@$$QEAV?$tuple@$$V@1@@Z
	??$construct@U?$pair@$$CBVPair@@V?$map@HHU?$less@H@std@@V?$allocator@U?$pair@$$CBHH@std@@@2@@std@@@std@@AEBUpiecewise_construct_t@2@V?$tuple@$$QEAVPair@@@2@V?$tuple@$$V@2@@?$_Default_allocator_traits@V?$allocator@U?$_Tree_node@U?$pair@$$CBVPair@@V?$map@HHU?$less@H@std@@V?$allocator@U?$pair@$$CBHH@std@@@2@@std@@@std@@PEAX@std@@@std@@@std@@SAXAEAV?$allocator@U?$_Tree_node@U?$pair@$$CBVPair@@V?$map@HHU?$less@H@std@@V?$allocator@U?$pair@$$CBHH@std@@@2@@std@@@std@@PEAX@std@@@1@QEAU?$pair@$$CBVPair@@V?$map@HHU?$less@H@std@@V?$allocator@U?$pair@$$CBHH@std@@@2@@std@@@1@AEBUpiecewise_construct_t@1@$$QEAV?$tuple@$$QEAVPair@@@1@$$QEAV?$tuple@$$V@1@@Z
	??$construct@U?$pair@VInterPtType@@V1@@std@@U12@@?$_Default_allocator_traits@V?$allocator@U?$pair@VInterPtType@@V1@@std@@@std@@@std@@SAXAEAV?$allocator@U?$pair@VInterPtType@@V1@@std@@@1@QEAU?$pair@VInterPtType@@V1@@1@$$QEAU31@@Z
	??$construct@U_Container_proxy@std@@PEAU_Container_base12@2@@?$_Default_allocator_traits@V?$allocator@U_Container_proxy@std@@@std@@@std@@SAXAEAV?$allocator@U_Container_proxy@std@@@1@QEAU_Container_proxy@1@$$QEAPEAU_Container_base12@1@@Z
	??$construct@V?$deque@VStripPtR@@V?$allocator@VStripPtR@@@std@@@std@@AEAV12@@?$_Default_allocator_traits@V?$allocator@V?$deque@VStripPtR@@V?$allocator@VStripPtR@@@std@@@std@@@std@@@std@@SAXAEAV?$allocator@V?$deque@VStripPtR@@V?$allocator@VStripPtR@@@std@@@std@@@1@QEAV?$deque@VStripPtR@@V?$allocator@VStripPtR@@@std@@@1@AEAV31@@Z
	??$construct@V?$deque@VStripPtR@@V?$allocator@VStripPtR@@@std@@@std@@AEBV12@@?$_Default_allocator_traits@V?$allocator@V?$deque@VStripPtR@@V?$allocator@VStripPtR@@@std@@@std@@@std@@@std@@SAXAEAV?$allocator@V?$deque@VStripPtR@@V?$allocator@VStripPtR@@@std@@@std@@@1@QEAV?$deque@VStripPtR@@V?$allocator@VStripPtR@@@std@@@1@AEBV31@@Z
	??$construct@V?$deque@VStripPtR@@V?$allocator@VStripPtR@@@std@@@std@@V12@@?$_Default_allocator_traits@V?$allocator@V?$deque@VStripPtR@@V?$allocator@VStripPtR@@@std@@@std@@@std@@@std@@SAXAEAV?$allocator@V?$deque@VStripPtR@@V?$allocator@VStripPtR@@@std@@@std@@@1@QEAV?$deque@VStripPtR@@V?$allocator@VStripPtR@@@std@@@1@$$QEAV31@@Z
	??$construct@V?$reference_wrapper@VStripPt@@@std@@V12@@?$_Default_allocator_traits@V?$allocator@U?$_Tree_node@V?$reference_wrapper@VStripPt@@@std@@PEAX@std@@@std@@@std@@SAXAEAV?$allocator@U?$_Tree_node@V?$reference_wrapper@VStripPt@@@std@@PEAX@std@@@1@QEAV?$reference_wrapper@VStripPt@@@1@$$QEAV31@@Z
	??$construct@V?$reference_wrapper@VStripPt@@@std@@V12@@?$_Default_allocator_traits@V?$allocator@V?$reference_wrapper@VStripPt@@@std@@@std@@@std@@SAXAEAV?$allocator@V?$reference_wrapper@VStripPt@@@std@@@1@QEAV?$reference_wrapper@VStripPt@@@1@$$QEAV31@@Z
	??$construct@V?$reference_wrapper@VStripPtR@@@std@@AEAVStripPtR@@@?$_Default_allocator_traits@V?$allocator@V?$reference_wrapper@VStripPtR@@@std@@@std@@@std@@SAXAEAV?$allocator@V?$reference_wrapper@VStripPtR@@@std@@@1@QEAV?$reference_wrapper@VStripPtR@@@1@AEAVStripPtR@@@Z
	??$construct@V?$reference_wrapper@VStripPtR@@@std@@V12@@?$_Default_allocator_traits@V?$allocator@V?$reference_wrapper@VStripPtR@@@std@@@std@@@std@@SAXAEAV?$allocator@V?$reference_wrapper@VStripPtR@@@std@@@1@QEAV?$reference_wrapper@VStripPtR@@@1@$$QEAV31@@Z
	??$construct@V?$shared_ptr@VLine@@@std@@PEAVLine@@@?$_Default_allocator_traits@V?$allocator@V?$shared_ptr@VLine@@@std@@@std@@@std@@SAXAEAV?$allocator@V?$shared_ptr@VLine@@@std@@@1@QEAV?$shared_ptr@VLine@@@1@$$QEAPEAVLine@@@Z
	??$construct@V?$shared_ptr@VLine@@@std@@V12@@?$_Default_allocator_traits@V?$allocator@V?$shared_ptr@VLine@@@std@@@std@@@std@@SAXAEAV?$allocator@V?$shared_ptr@VLine@@@std@@@1@QEAV?$shared_ptr@VLine@@@1@$$QEAV31@@Z
	??$construct@V?$shared_ptr@VObj@@@std@@AEAV12@@?$_Default_allocator_traits@V?$allocator@V?$shared_ptr@VObj@@@std@@@std@@@std@@SAXAEAV?$allocator@V?$shared_ptr@VObj@@@std@@@1@QEAV?$shared_ptr@VObj@@@1@AEAV31@@Z
	??$construct@V?$shared_ptr@VObj@@@std@@V12@@?$_Default_allocator_traits@V?$allocator@V?$shared_ptr@VObj@@@std@@@std@@@std@@SAXAEAV?$allocator@V?$shared_ptr@VObj@@@std@@@1@QEAV?$shared_ptr@VObj@@@1@$$QEAV31@@Z
	??$construct@V?$vector@HV?$allocator@H@std@@@std@@$$V@?$_Default_allocator_traits@V?$allocator@V?$vector@HV?$allocator@H@std@@@std@@@std@@@std@@SAXAEAV?$allocator@V?$vector@HV?$allocator@H@std@@@std@@@1@QEAV?$vector@HV?$allocator@H@std@@@1@@Z
	??$construct@V?$vector@HV?$allocator@H@std@@@std@@AEBV12@@?$_Default_allocator_traits@V?$allocator@V?$vector@HV?$allocator@H@std@@@std@@@std@@@std@@SAXAEAV?$allocator@V?$vector@HV?$allocator@H@std@@@std@@@1@QEAV?$vector@HV?$allocator@H@std@@@1@AEBV31@@Z
	??$construct@V?$vector@HV?$allocator@H@std@@@std@@V12@@?$_Default_allocator_traits@V?$allocator@V?$vector@HV?$allocator@H@std@@@std@@@std@@@std@@SAXAEAV?$allocator@V?$vector@HV?$allocator@H@std@@@std@@@1@QEAV?$vector@HV?$allocator@H@std@@@1@$$QEAV31@@Z
	??$construct@VInterPtType@@AEBV1@@?$_Default_allocator_traits@V?$allocator@VInterPtType@@@std@@@std@@SAXAEAV?$allocator@VInterPtType@@@1@QEAVInterPtType@@AEBV3@@Z
	??$construct@VInterPtType@@V1@@?$_Default_allocator_traits@V?$allocator@VInterPtType@@@std@@@std@@SAXAEAV?$allocator@VInterPtType@@@1@QEAVInterPtType@@$$QEAV3@@Z
	??$construct@VMergePt@@V1@@?$_Default_allocator_traits@V?$allocator@VMergePt@@@std@@@std@@SAXAEAV?$allocator@VMergePt@@@1@QEAVMergePt@@$$QEAV3@@Z
	??$construct@VNode@@AEAV?$shared_ptr@VObj@@@std@@@?$_Default_allocator_traits@V?$allocator@VNode@@@std@@@std@@SAXAEAV?$allocator@VNode@@@1@QEAVNode@@AEAV?$shared_ptr@VObj@@@1@@Z
	??$construct@VNode@@V1@@?$_Default_allocator_traits@V?$allocator@VNode@@@std@@@std@@SAXAEAV?$allocator@VNode@@@1@QEAVNode@@$$QEAV3@@Z
	??$construct@VPair@@AEAV1@@?$_Default_allocator_traits@V?$allocator@VPair@@@std@@@std@@SAXAEAV?$allocator@VPair@@@1@QEAVPair@@AEAV3@@Z
	??$construct@VPair@@V1@@?$_Default_allocator_traits@V?$allocator@U?$_Tree_node@VPair@@PEAX@std@@@std@@@std@@SAXAEAV?$allocator@U?$_Tree_node@VPair@@PEAX@std@@@1@QEAVPair@@$$QEAV3@@Z
	??$construct@VPair@@V1@@?$_Default_allocator_traits@V?$allocator@VPair@@@std@@@std@@SAXAEAV?$allocator@VPair@@@1@QEAVPair@@$$QEAV3@@Z
	??$construct@VPoint@@AEAV1@@?$_Default_allocator_traits@V?$allocator@VPoint@@@std@@@std@@SAXAEAV?$allocator@VPoint@@@1@QEAVPoint@@AEAV3@@Z
	??$construct@VPoint@@V1@@?$_Default_allocator_traits@V?$allocator@VPoint@@@std@@@std@@SAXAEAV?$allocator@VPoint@@@1@QEAVPoint@@$$QEAV3@@Z
	??$construct@VPolyAtEdge@@V1@@?$_Default_allocator_traits@V?$allocator@VPolyAtEdge@@@std@@@std@@SAXAEAV?$allocator@VPolyAtEdge@@@1@QEAVPolyAtEdge@@$$QEAV3@@Z
	??$construct@VStripPtL2@@V1@@?$_Default_allocator_traits@V?$allocator@VStripPtL2@@@std@@@std@@SAXAEAV?$allocator@VStripPtL2@@@1@QEAVStripPtL2@@$$QEAV3@@Z
	??$construct@VStripPtL3@@AEAV1@@?$_Default_allocator_traits@V?$allocator@VStripPtL3@@@std@@@std@@SAXAEAV?$allocator@VStripPtL3@@@1@QEAVStripPtL3@@AEAV3@@Z
	??$construct@VStripPtL3@@AEBV1@@?$_Default_allocator_traits@V?$allocator@VStripPtL3@@@std@@@std@@SAXAEAV?$allocator@VStripPtL3@@@1@QEAVStripPtL3@@AEBV3@@Z
	??$construct@VStripPtL3@@V1@@?$_Default_allocator_traits@V?$allocator@U?$_Tree_node@VStripPtL3@@PEAX@std@@@std@@@std@@SAXAEAV?$allocator@U?$_Tree_node@VStripPtL3@@PEAX@std@@@1@QEAVStripPtL3@@$$QEAV3@@Z
	??$construct@VStripPtL3@@V1@@?$_Default_allocator_traits@V?$allocator@VStripPtL3@@@std@@@std@@SAXAEAV?$allocator@VStripPtL3@@@1@QEAVStripPtL3@@$$QEAV3@@Z
	??$construct@VStripPtL@@V1@@?$_Default_allocator_traits@V?$allocator@U?$_Tree_node@VStripPtL@@PEAX@std@@@std@@@std@@SAXAEAV?$allocator@U?$_Tree_node@VStripPtL@@PEAX@std@@@1@QEAVStripPtL@@$$QEAV3@@Z
	??$construct@VStripPtL@@V1@@?$_Default_allocator_traits@V?$allocator@VStripPtL@@@std@@@std@@SAXAEAV?$allocator@VStripPtL@@@1@QEAVStripPtL@@$$QEAV3@@Z
	??$construct@VStripPtR@@AEAV1@@?$_Default_allocator_traits@V?$allocator@VStripPtR@@@std@@@std@@SAXAEAV?$allocator@VStripPtR@@@1@QEAVStripPtR@@AEAV3@@Z
	??$construct@VStripPtR@@AEBV1@@?$_Default_allocator_traits@V?$allocator@VStripPtR@@@std@@@std@@SAXAEAV?$allocator@VStripPtR@@@1@QEAVStripPtR@@AEBV3@@Z
	??$construct@VStripPtR@@V1@@?$_Default_allocator_traits@V?$allocator@VStripPtR@@@std@@@std@@SAXAEAV?$allocator@VStripPtR@@@1@QEAVStripPtR@@$$QEAV3@@Z
	??$copy_n@PEBNHPEAN@std@@YAPEANPEBNHPEAN@Z
	??$count@V?$_Tree_const_iterator@V?$_Tree_val@U?$_Tree_simple_types@H@std@@@std@@@std@@H@std@@YA_JV?$_Tree_const_iterator@V?$_Tree_val@U?$_Tree_simple_types@H@std@@@std@@@0@0AEBH@Z
	??$count@V?$_Vector_iterator@V?$_Vector_val@U?$_Simple_types@PEBVInterPtType@@@std@@@std@@@std@@PEBVInterPtType@@@std@@YA_JV?$_Vector_iterator@V?$_Vector_val@U?$_Simple_types@PEBVInterPtType@@@std@@@std@@@0@0AEBQEBVInterPtType@@@Z
	??$destroy@H@?$_Default_allocator_traits@V?$allocator@H@std@@@std@@SAXAEAV?$allocator@H@1@QEAH@Z
	??$destroy@H@?$_Default_allocator_traits@V?$allocator@U?$_Tree_node@HPEAX@std@@@std@@@std@@SAXAEAV?$allocator@U?$_Tree_node@HPEAX@std@@@1@QEAH@Z
	??$destroy@PEAD@?$_Default_allocator_traits@V?$allocator@D@std@@@std@@SAXAEAV?$allocator@D@1@QEAPEAD@Z
	??$destroy@PEAH@?$_Default_allocator_traits@V?$allocator@PEAH@std@@@std@@SAXAEAV?$allocator@PEAH@1@QEAPEAH@Z
	??$destroy@PEAU?$_List_node@U?$pair@$$CBVPair@@VSubP@@@std@@PEAX@std@@@?$_Default_allocator_traits@V?$allocator@U?$_List_node@U?$pair@$$CBVPair@@VSubP@@@std@@PEAX@std@@@std@@@std@@SAXAEAV?$allocator@U?$_List_node@U?$pair@$$CBVPair@@VSubP@@@std@@PEAX@std@@@1@QEAPEAU?$_List_node@U?$pair@$$CBVPair@@VSubP@@@std@@PEAX@1@@Z
	??$destroy@PEAU?$_List_node@VPair@@PEAX@std@@@?$_Default_allocator_traits@V?$allocator@U?$_List_node@VPair@@PEAX@std@@@std@@@std@@SAXAEAV?$allocator@U?$_List_node@VPair@@PEAX@std@@@1@QEAPEAU?$_List_node@VPair@@PEAX@1@@Z
	??$destroy@PEAU?$_Tree_node@HPEAX@std@@@?$_Default_allocator_traits@V?$allocator@U?$_Tree_node@HPEAX@std@@@std@@@std@@SAXAEAV?$allocator@U?$_Tree_node@HPEAX@std@@@1@QEAPEAU?$_Tree_node@HPEAX@1@@Z
	??$destroy@PEAU?$_Tree_node@U?$pair@$$CBHH@std@@PEAX@std@@@?$_Default_allocator_traits@V?$allocator@U?$_Tree_node@U?$pair@$$CBHH@std@@PEAX@std@@@std@@@std@@SAXAEAV?$allocator@U?$_Tree_node@U?$pair@$$CBHH@std@@PEAX@std@@@1@QEAPEAU?$_Tree_node@U?$pair@$$CBHH@std@@PEAX@1@@Z
	??$destroy@PEAU?$_Tree_node@U?$pair@$$CBHV?$set@HU?$less@H@std@@V?$allocator@H@2@@std@@@std@@PEAX@std@@@?$_Default_allocator_traits@V?$allocator@U?$_Tree_node@U?$pair@$$CBHV?$set@HU?$less@H@std@@V?$allocator@H@2@@std@@@std@@PEAX@std@@@std@@@std@@SAXAEAV?$allocator@U?$_Tree_node@U?$pair@$$CBHV?$set@HU?$less@H@std@@V?$allocator@H@2@@std@@@std@@PEAX@std@@@1@QEAPEAU?$_Tree_node@U?$pair@$$CBHV?$set@HU?$less@H@std@@V?$allocator@H@2@@std@@@std@@PEAX@1@@Z
	??$destroy@PEAU?$_Tree_node@U?$pair@$$CBHV?$vector@HV?$allocator@H@std@@@std@@@std@@PEAX@std@@@?$_Default_allocator_traits@V?$allocator@U?$_Tree_node@U?$pair@$$CBHV?$vector@HV?$allocator@H@std@@@std@@@std@@PEAX@std@@@std@@@std@@SAXAEAV?$allocator@U?$_Tree_node@U?$pair@$$CBHV?$vector@HV?$allocator@H@std@@@std@@@std@@PEAX@std@@@1@QEAPEAU?$_Tree_node@U?$pair@$$CBHV?$vector@HV?$allocator@H@std@@@std@@@std@@PEAX@1@@Z
	??$destroy@PEAU?$_Tree_node@U?$pair@$$CBHV?$vector@V?$reference_wrapper@VStripPtR@@@std@@V?$allocator@V?$reference_wrapper@VStripPtR@@@std@@@2@@std@@@std@@PEAX@std@@@?$_Default_allocator_traits@V?$allocator@U?$_Tree_node@U?$pair@$$CBHV?$vector@V?$reference_wrapper@VStripPtR@@@std@@V?$allocator@V?$reference_wrapper@VStripPtR@@@std@@@2@@std@@@std@@PEAX@std@@@std@@@std@@SAXAEAV?$allocator@U?$_Tree_node@U?$pair@$$CBHV?$vector@V?$reference_wrapper@VStripPtR@@@std@@V?$allocator@V?$reference_wrapper@VStripPtR@@@std@@@2@@std@@@std@@PEAX@std@@@1@QEAPEAU?$_Tree_node@U?$pair@$$CBHV?$vector@V?$reference_wrapper@VStripPtR@@@std@@V?$allocator@V?$reference_wrapper@VStripPtR@@@std@@@2@@std@@@std@@PEAX@1@@Z
	??$destroy@PEAU?$_Tree_node@U?$pair@$$CBHVPStrips@@@std@@PEAX@std@@@?$_Default_allocator_traits@V?$allocator@U?$_Tree_node@U?$pair@$$CBHVPStrips@@@std@@PEAX@std@@@std@@@std@@SAXAEAV?$allocator@U?$_Tree_node@U?$pair@$$CBHVPStrips@@@std@@PEAX@std@@@1@QEAPEAU?$_Tree_node@U?$pair@$$CBHVPStrips@@@std@@PEAX@1@@Z
	??$destroy@PEAU?$_Tree_node@U?$pair@$$CBHVStripPt@@@std@@PEAX@std@@@?$_Default_allocator_traits@V?$allocator@U?$_Tree_node@U?$pair@$$CBHVStripPt@@@std@@PEAX@std@@@std@@@std@@SAXAEAV?$allocator@U?$_Tree_node@U?$pair@$$CBHVStripPt@@@std@@PEAX@std@@@1@QEAPEAU?$_Tree_node@U?$pair@$$CBHVStripPt@@@std@@PEAX@1@@Z
	??$destroy@PEAU?$_Tree_node@U?$pair@$$CBHW4Rel@@@std@@PEAX@std@@@?$_Default_allocator_traits@V?$allocator@U?$_Tree_node@U?$pair@$$CBHW4Rel@@@std@@PEAX@std@@@std@@@std@@SAXAEAV?$allocator@U?$_Tree_node@U?$pair@$$CBHW4Rel@@@std@@PEAX@std@@@1@QEAPEAU?$_Tree_node@U?$pair@$$CBHW4Rel@@@std@@PEAX@1@@Z
	??$destroy@PEAU?$_Tree_node@U?$pair@$$CBVPair@@V?$map@HHU?$less@H@std@@V?$allocator@U?$pair@$$CBHH@std@@@2@@std@@@std@@PEAX@std@@@?$_Default_allocator_traits@V?$allocator@U?$_Tree_node@U?$pair@$$CBVPair@@V?$map@HHU?$less@H@std@@V?$allocator@U?$pair@$$CBHH@std@@@2@@std@@@std@@PEAX@std@@@std@@@std@@SAXAEAV?$allocator@U?$_Tree_node@U?$pair@$$CBVPair@@V?$map@HHU?$less@H@std@@V?$allocator@U?$pair@$$CBHH@std@@@2@@std@@@std@@PEAX@std@@@1@QEAPEAU?$_Tree_node@U?$pair@$$CBVPair@@V?$map@HHU?$less@H@std@@V?$allocator@U?$pair@$$CBHH@std@@@2@@std@@@std@@PEAX@1@@Z
	??$destroy@PEAU?$_Tree_node@V?$reference_wrapper@VStripPt@@@std@@PEAX@std@@@?$_Default_allocator_traits@V?$allocator@U?$_Tree_node@V?$reference_wrapper@VStripPt@@@std@@PEAX@std@@@std@@@std@@SAXAEAV?$allocator@U?$_Tree_node@V?$reference_wrapper@VStripPt@@@std@@PEAX@std@@@1@QEAPEAU?$_Tree_node@V?$reference_wrapper@VStripPt@@@std@@PEAX@1@@Z
	??$destroy@PEAU?$_Tree_node@VPair@@PEAX@std@@@?$_Default_allocator_traits@V?$allocator@U?$_Tree_node@VPair@@PEAX@std@@@std@@@std@@SAXAEAV?$allocator@U?$_Tree_node@VPair@@PEAX@std@@@1@QEAPEAU?$_Tree_node@VPair@@PEAX@1@@Z
	??$destroy@PEAU?$_Tree_node@VStripPtL3@@PEAX@std@@@?$_Default_allocator_traits@V?$allocator@U?$_Tree_node@VStripPtL3@@PEAX@std@@@std@@@std@@SAXAEAV?$allocator@U?$_Tree_node@VStripPtL3@@PEAX@std@@@1@QEAPEAU?$_Tree_node@VStripPtL3@@PEAX@1@@Z
	??$destroy@PEAU?$_Tree_node@VStripPtL@@PEAX@std@@@?$_Default_allocator_traits@V?$allocator@U?$_Tree_node@VStripPtL@@PEAX@std@@@std@@@std@@SAXAEAV?$allocator@U?$_Tree_node@VStripPtL@@PEAX@std@@@1@QEAPEAU?$_Tree_node@VStripPtL@@PEAX@1@@Z
	??$destroy@PEAV?$vector@HV?$allocator@H@std@@@std@@@?$_Default_allocator_traits@V?$allocator@PEAV?$vector@HV?$allocator@H@std@@@std@@@std@@@std@@SAXAEAV?$allocator@PEAV?$vector@HV?$allocator@H@std@@@std@@@1@QEAPEAV?$vector@HV?$allocator@H@std@@@1@@Z
	??$destroy@PEAVPair@@@?$_Default_allocator_traits@V?$allocator@PEAVPair@@@std@@@std@@SAXAEAV?$allocator@PEAVPair@@@1@QEAPEAVPair@@@Z
	??$destroy@PEAVStripPtR@@@?$_Default_allocator_traits@V?$allocator@PEAVStripPtR@@@std@@@std@@SAXAEAV?$allocator@PEAVStripPtR@@@1@QEAPEAVStripPtR@@@Z
	??$destroy@U?$pair@$$CBHH@std@@@?$_Default_allocator_traits@V?$allocator@U?$_Tree_node@U?$pair@$$CBHH@std@@PEAX@std@@@std@@@std@@SAXAEAV?$allocator@U?$_Tree_node@U?$pair@$$CBHH@std@@PEAX@std@@@1@QEAU?$pair@$$CBHH@1@@Z
	??$destroy@U?$pair@$$CBHV?$set@HU?$less@H@std@@V?$allocator@H@2@@std@@@std@@@?$_Default_allocator_traits@V?$allocator@U?$_Tree_node@U?$pair@$$CBHV?$set@HU?$less@H@std@@V?$allocator@H@2@@std@@@std@@PEAX@std@@@std@@@std@@SAXAEAV?$allocator@U?$_Tree_node@U?$pair@$$CBHV?$set@HU?$less@H@std@@V?$allocator@H@2@@std@@@std@@PEAX@std@@@1@QEAU?$pair@$$CBHV?$set@HU?$less@H@std@@V?$allocator@H@2@@std@@@1@@Z
	??$destroy@U?$pair@$$CBHV?$vector@HV?$allocator@H@std@@@std@@@std@@@?$_Default_allocator_traits@V?$allocator@U?$_Tree_node@U?$pair@$$CBHV?$vector@HV?$allocator@H@std@@@std@@@std@@PEAX@std@@@std@@@std@@SAXAEAV?$allocator@U?$_Tree_node@U?$pair@$$CBHV?$vector@HV?$allocator@H@std@@@std@@@std@@PEAX@std@@@1@QEAU?$pair@$$CBHV?$vector@HV?$allocator@H@std@@@std@@@1@@Z
	??$destroy@U?$pair@$$CBHV?$vector@V?$reference_wrapper@VStripPtR@@@std@@V?$allocator@V?$reference_wrapper@VStripPtR@@@std@@@2@@std@@@std@@@?$_Default_allocator_traits@V?$allocator@U?$_Tree_node@U?$pair@$$CBHV?$vector@V?$reference_wrapper@VStripPtR@@@std@@V?$allocator@V?$reference_wrapper@VStripPtR@@@std@@@2@@std@@@std@@PEAX@std@@@std@@@std@@SAXAEAV?$allocator@U?$_Tree_node@U?$pair@$$CBHV?$vector@V?$reference_wrapper@VStripPtR@@@std@@V?$allocator@V?$reference_wrapper@VStripPtR@@@std@@@2@@std@@@std@@PEAX@std@@@1@QEAU?$pair@$$CBHV?$vector@V?$reference_wrapper@VStripPtR@@@std@@V?$allocator@V?$reference_wrapper@VStripPtR@@@std@@@2@@std@@@1@@Z
	??$destroy@U?$pair@$$CBHVPStrips@@@std@@@?$_Default_allocator_traits@V?$allocator@U?$_Tree_node@U?$pair@$$CBHVPStrips@@@std@@PEAX@std@@@std@@@std@@SAXAEAV?$allocator@U?$_Tree_node@U?$pair@$$CBHVPStrips@@@std@@PEAX@std@@@1@QEAU?$pair@$$CBHVPStrips@@@1@@Z
	??$destroy@U?$pair@$$CBHVStripPt@@@std@@@?$_Default_allocator_traits@V?$allocator@U?$_Tree_node@U?$pair@$$CBHVStripPt@@@std@@PEAX@std@@@std@@@std@@SAXAEAV?$allocator@U?$_Tree_node@U?$pair@$$CBHVStripPt@@@std@@PEAX@std@@@1@QEAU?$pair@$$CBHVStripPt@@@1@@Z
	??$destroy@U?$pair@$$CBHW4Rel@@@std@@@?$_Default_allocator_traits@V?$allocator@U?$_Tree_node@U?$pair@$$CBHW4Rel@@@std@@PEAX@std@@@std@@@std@@SAXAEAV?$allocator@U?$_Tree_node@U?$pair@$$CBHW4Rel@@@std@@PEAX@std@@@1@QEAU?$pair@$$CBHW4Rel@@@1@@Z
	??$destroy@U?$pair@$$CBVPair@@V?$map@HHU?$less@H@std@@V?$allocator@U?$pair@$$CBHH@std@@@2@@std@@@std@@@?$_Default_allocator_traits@V?$allocator@U?$_Tree_node@U?$pair@$$CBVPair@@V?$map@HHU?$less@H@std@@V?$allocator@U?$pair@$$CBHH@std@@@2@@std@@@std@@PEAX@std@@@std@@@std@@SAXAEAV?$allocator@U?$_Tree_node@U?$pair@$$CBVPair@@V?$map@HHU?$less@H@std@@V?$allocator@U?$pair@$$CBHH@std@@@2@@std@@@std@@PEAX@std@@@1@QEAU?$pair@$$CBVPair@@V?$map@HHU?$less@H@std@@V?$allocator@U?$pair@$$CBHH@std@@@2@@std@@@1@@Z
	??$destroy@U?$pair@$$CBVPair@@VSubP@@@std@@@?$_Default_allocator_traits@V?$allocator@U?$_List_node@U?$pair@$$CBVPair@@VSubP@@@std@@PEAX@std@@@std@@@std@@SAXAEAV?$allocator@U?$_List_node@U?$pair@$$CBVPair@@VSubP@@@std@@PEAX@std@@@1@QEAU?$pair@$$CBVPair@@VSubP@@@1@@Z
	??$destroy@U_Container_proxy@std@@@?$_Default_allocator_traits@V?$allocator@U_Container_proxy@std@@@std@@@std@@SAXAEAV?$allocator@U_Container_proxy@std@@@1@QEAU_Container_proxy@1@@Z
	??$destroy@V?$deque@VStripPtR@@V?$allocator@VStripPtR@@@std@@@std@@@?$_Default_allocator_traits@V?$allocator@V?$deque@VStripPtR@@V?$allocator@VStripPtR@@@std@@@std@@@std@@@std@@SAXAEAV?$allocator@V?$deque@VStripPtR@@V?$allocator@VStripPtR@@@std@@@std@@@1@QEAV?$deque@VStripPtR@@V?$allocator@VStripPtR@@@std@@@1@@Z
	??$destroy@V?$reference_wrapper@VStripPt@@@std@@@?$_Default_allocator_traits@V?$allocator@U?$_Tree_node@V?$reference_wrapper@VStripPt@@@std@@PEAX@std@@@std@@@std@@SAXAEAV?$allocator@U?$_Tree_node@V?$reference_wrapper@VStripPt@@@std@@PEAX@std@@@1@QEAV?$reference_wrapper@VStripPt@@@1@@Z
	??$destroy@V?$shared_ptr@VLine@@@std@@@?$_Default_allocator_traits@V?$allocator@V?$shared_ptr@VLine@@@std@@@std@@@std@@SAXAEAV?$allocator@V?$shared_ptr@VLine@@@std@@@1@QEAV?$shared_ptr@VLine@@@1@@Z
	??$destroy@V?$shared_ptr@VObj@@@std@@@?$_Default_allocator_traits@V?$allocator@V?$shared_ptr@VObj@@@std@@@std@@@std@@SAXAEAV?$allocator@V?$shared_ptr@VObj@@@std@@@1@QEAV?$shared_ptr@VObj@@@1@@Z
	??$destroy@V?$vector@HV?$allocator@H@std@@@std@@@?$_Default_allocator_traits@V?$allocator@V?$vector@HV?$allocator@H@std@@@std@@@std@@@std@@SAXAEAV?$allocator@V?$vector@HV?$allocator@H@std@@@std@@@1@QEAV?$vector@HV?$allocator@H@std@@@1@@Z
	??$destroy@V?$vector@VPoint@@V?$allocator@VPoint@@@std@@@std@@@?$_Default_allocator_traits@V?$allocator@V?$vector@VPoint@@V?$allocator@VPoint@@@std@@@std@@@std@@@std@@SAXAEAV?$allocator@V?$vector@VPoint@@V?$allocator@VPoint@@@std@@@std@@@1@QEAV?$vector@VPoint@@V?$allocator@VPoint@@@std@@@1@@Z
	??$destroy@VNode@@@?$_Default_allocator_traits@V?$allocator@VNode@@@std@@@std@@SAXAEAV?$allocator@VNode@@@1@QEAVNode@@@Z
	??$destroy@VPair@@@?$_Default_allocator_traits@V?$allocator@U?$_List_node@VPair@@PEAX@std@@@std@@@std@@SAXAEAV?$allocator@U?$_List_node@VPair@@PEAX@std@@@1@QEAVPair@@@Z
	??$destroy@VPair@@@?$_Default_allocator_traits@V?$allocator@U?$_Tree_node@VPair@@PEAX@std@@@std@@@std@@SAXAEAV?$allocator@U?$_Tree_node@VPair@@PEAX@std@@@1@QEAVPair@@@Z
	??$destroy@VPair@@@?$_Default_allocator_traits@V?$allocator@VPair@@@std@@@std@@SAXAEAV?$allocator@VPair@@@1@QEAVPair@@@Z
	??$destroy@VStripPtL2@@@?$_Default_allocator_traits@V?$allocator@VStripPtL2@@@std@@@std@@SAXAEAV?$allocator@VStripPtL2@@@1@QEAVStripPtL2@@@Z
	??$destroy@VStripPtL3@@@?$_Default_allocator_traits@V?$allocator@U?$_Tree_node@VStripPtL3@@PEAX@std@@@std@@@std@@SAXAEAV?$allocator@U?$_Tree_node@VStripPtL3@@PEAX@std@@@1@QEAVStripPtL3@@@Z
	??$destroy@VStripPtL@@@?$_Default_allocator_traits@V?$allocator@U?$_Tree_node@VStripPtL@@PEAX@std@@@std@@@std@@SAXAEAV?$allocator@U?$_Tree_node@VStripPtL@@PEAX@std@@@1@QEAVStripPtL@@@Z
	??$destroy@VStripPtR@@@?$_Default_allocator_traits@V?$allocator@VStripPtR@@@std@@@std@@SAXAEAV?$allocator@VStripPtR@@@1@QEAVStripPtR@@@Z
	??$distance@PEAVInterPtType@@@std@@YA_JPEAVInterPtType@@0@Z
	??$distance@PEAVPair@@@std@@YA_JPEAVPair@@0@Z
	??$distance@PEAVStripPtL3@@@std@@YA_JPEAVStripPtL3@@0@Z
	??$distance@V?$_Deque_unchecked_iterator@V?$_Deque_val@U?$_Deque_simple_types@VStripPtR@@@std@@@std@@@std@@@std@@YA_JV?$_Deque_unchecked_iterator@V?$_Deque_val@U?$_Deque_simple_types@VStripPtR@@@std@@@std@@@0@0@Z
	??$distance@V?$_Tree_unchecked_const_iterator@V?$_Tree_val@U?$_Tree_simple_types@U?$pair@$$CBHVStripPt@@@std@@@std@@@std@@U_Iterator_base0@2@@std@@@std@@YA_JV?$_Tree_unchecked_const_iterator@V?$_Tree_val@U?$_Tree_simple_types@U?$pair@$$CBHVStripPt@@@std@@@std@@@std@@U_Iterator_base0@2@@0@0@Z
	??$distance@V?$_Tree_unchecked_const_iterator@V?$_Tree_val@U?$_Tree_simple_types@VStripPtL3@@@std@@@std@@U_Iterator_base0@2@@std@@@std@@YA_JV?$_Tree_unchecked_const_iterator@V?$_Tree_val@U?$_Tree_simple_types@VStripPtL3@@@std@@@std@@U_Iterator_base0@2@@0@0@Z
	??$distance@V?$reverse_iterator@V?$_Deque_unchecked_iterator@V?$_Deque_val@U?$_Deque_simple_types@VStripPtR@@@std@@@std@@@std@@@std@@@std@@YA_JV?$reverse_iterator@V?$_Deque_unchecked_iterator@V?$_Deque_val@U?$_Deque_simple_types@VStripPtR@@@std@@@std@@@std@@@0@0@Z
	??$emplace@AEBVInterPtType@@@?$vector@VInterPtType@@V?$allocator@VInterPtType@@@std@@@std@@QEAA?AV?$_Vector_iterator@V?$_Vector_val@U?$_Simple_types@VInterPtType@@@std@@@std@@@1@V?$_Vector_const_iterator@V?$_Vector_val@U?$_Simple_types@VInterPtType@@@std@@@std@@@1@AEBVInterPtType@@@Z
	??$emplace_back@AEAH@?$deque@HV?$allocator@H@std@@@std@@QEAA@AEAH@Z
	??$emplace_back@AEAV?$shared_ptr@VObj@@@std@@@?$vector@V?$shared_ptr@VObj@@@std@@V?$allocator@V?$shared_ptr@VObj@@@std@@@2@@std@@QEAA@AEAV?$shared_ptr@VObj@@@1@@Z
	??$emplace_back@AEAV?$shared_ptr@VObj@@@std@@@?$vector@VNode@@V?$allocator@VNode@@@std@@@std@@QEAA@AEAV?$shared_ptr@VObj@@@1@@Z
	??$emplace_back@AEAVStripPtR@@@?$deque@VStripPtR@@V?$allocator@VStripPtR@@@std@@@std@@QEAA@AEAVStripPtR@@@Z
	??$emplace_back@AEBH@?$deque@HV?$allocator@H@std@@@std@@QEAA@AEBH@Z
	??$emplace_back@AEBH@?$vector@HV?$allocator@H@std@@@std@@QEAA@AEBH@Z
	??$emplace_back@AEBV?$deque@VStripPtR@@V?$allocator@VStripPtR@@@std@@@std@@@?$vector@V?$deque@VStripPtR@@V?$allocator@VStripPtR@@@std@@@std@@V?$allocator@V?$deque@VStripPtR@@V?$allocator@VStripPtR@@@std@@@std@@@2@@std@@QEAA@AEBV?$deque@VStripPtR@@V?$allocator@VStripPtR@@@std@@@1@@Z
	??$emplace_back@AEBV?$vector@HV?$allocator@H@std@@@std@@@?$vector@V?$vector@HV?$allocator@H@std@@@std@@V?$allocator@V?$vector@HV?$allocator@H@std@@@std@@@2@@std@@QEAA@AEBV?$vector@HV?$allocator@H@std@@@1@@Z
	??$emplace_back@AEBVInterPtType@@@?$vector@VInterPtType@@V?$allocator@VInterPtType@@@std@@@std@@QEAA@AEBVInterPtType@@@Z
	??$emplace_back@AEBVStripPtR@@@?$deque@VStripPtR@@V?$allocator@VStripPtR@@@std@@@std@@QEAA@AEBVStripPtR@@@Z
	??$emplace_back@H@?$vector@HV?$allocator@H@std@@@std@@QEAA@$$QEAH@Z
	??$emplace_back@PEAVLine@@@?$vector@V?$shared_ptr@VLine@@@std@@V?$allocator@V?$shared_ptr@VLine@@@std@@@2@@std@@QEAA@$$QEAPEAVLine@@@Z
	??$emplace_back@PEBVInterPtType@@@?$vector@PEBVInterPtType@@V?$allocator@PEBVInterPtType@@@std@@@std@@QEAA@$$QEAPEBVInterPtType@@@Z
	??$emplace_back@U?$pair@VInterPtType@@V1@@std@@@?$vector@U?$pair@VInterPtType@@V1@@std@@V?$allocator@U?$pair@VInterPtType@@V1@@std@@@2@@std@@QEAA@$$QEAU?$pair@VInterPtType@@V1@@1@@Z
	??$emplace_back@V?$reference_wrapper@VStripPt@@@std@@@?$vector@V?$reference_wrapper@VStripPt@@@std@@V?$allocator@V?$reference_wrapper@VStripPt@@@std@@@2@@std@@QEAA@$$QEAV?$reference_wrapper@VStripPt@@@1@@Z
	??$emplace_back@V?$reference_wrapper@VStripPtR@@@std@@@?$vector@V?$reference_wrapper@VStripPtR@@@std@@V?$allocator@V?$reference_wrapper@VStripPtR@@@std@@@2@@std@@QEAA@$$QEAV?$reference_wrapper@VStripPtR@@@1@@Z
	??$emplace_back@V?$vector@HV?$allocator@H@std@@@std@@@?$vector@V?$vector@HV?$allocator@H@std@@@std@@V?$allocator@V?$vector@HV?$allocator@H@std@@@std@@@2@@std@@QEAA@$$QEAV?$vector@HV?$allocator@H@std@@@1@@Z
	??$emplace_back@VMergePt@@@?$vector@VMergePt@@V?$allocator@VMergePt@@@std@@@std@@QEAA@$$QEAVMergePt@@@Z
	??$emplace_back@VPair@@@?$vector@VPair@@V?$allocator@VPair@@@std@@@std@@QEAA@$$QEAVPair@@@Z
	??$emplace_back@VPoint@@@?$vector@VPoint@@V?$allocator@VPoint@@@std@@@std@@QEAA@$$QEAVPoint@@@Z
	??$emplace_back@VPolyAtEdge@@@?$vector@VPolyAtEdge@@V?$allocator@VPolyAtEdge@@@std@@@std@@QEAA@$$QEAVPolyAtEdge@@@Z
	??$emplace_back@VStripPtL2@@@?$vector@VStripPtL2@@V?$allocator@VStripPtL2@@@std@@@std@@QEAA@$$QEAVStripPtL2@@@Z
	??$emplace_back@VStripPtL3@@@?$vector@VStripPtL3@@V?$allocator@VStripPtL3@@@std@@@std@@QEAA@$$QEAVStripPtL3@@@Z
	??$emplace_back@VStripPtL@@@?$vector@VStripPtL@@V?$allocator@VStripPtL@@@std@@@std@@QEAA@$$QEAVStripPtL@@@Z
	??$exchange@PEAU?$_Tree_node@HPEAX@std@@$$T@std@@YAPEAU?$_Tree_node@HPEAX@0@AEAPEAU10@$$QEA$$T@Z
	??$exchange@PEAU?$_Tree_node@HPEAX@std@@AEAPEAU12@@std@@YAPEAU?$_Tree_node@HPEAX@0@AEAPEAU10@0@Z
	??$exchange@PEAU?$_Tree_node@U?$pair@$$CBHH@std@@PEAX@std@@$$T@std@@YAPEAU?$_Tree_node@U?$pair@$$CBHH@std@@PEAX@0@AEAPEAU10@$$QEA$$T@Z
	??$exchange@PEAU?$_Tree_node@U?$pair@$$CBHH@std@@PEAX@std@@AEAPEAU12@@std@@YAPEAU?$_Tree_node@U?$pair@$$CBHH@std@@PEAX@0@AEAPEAU10@0@Z
	??$exchange@PEAU?$_Tree_node@U?$pair@$$CBHV?$set@HU?$less@H@std@@V?$allocator@H@2@@std@@@std@@PEAX@std@@$$T@std@@YAPEAU?$_Tree_node@U?$pair@$$CBHV?$set@HU?$less@H@std@@V?$allocator@H@2@@std@@@std@@PEAX@0@AEAPEAU10@$$QEA$$T@Z
	??$exchange@PEAU?$_Tree_node@U?$pair@$$CBHV?$set@HU?$less@H@std@@V?$allocator@H@2@@std@@@std@@PEAX@std@@AEAPEAU12@@std@@YAPEAU?$_Tree_node@U?$pair@$$CBHV?$set@HU?$less@H@std@@V?$allocator@H@2@@std@@@std@@PEAX@0@AEAPEAU10@0@Z
	??$exchange@PEAU?$_Tree_node@U?$pair@$$CBHV?$vector@HV?$allocator@H@std@@@std@@@std@@PEAX@std@@$$T@std@@YAPEAU?$_Tree_node@U?$pair@$$CBHV?$vector@HV?$allocator@H@std@@@std@@@std@@PEAX@0@AEAPEAU10@$$QEA$$T@Z
	??$exchange@PEAU?$_Tree_node@U?$pair@$$CBHV?$vector@HV?$allocator@H@std@@@std@@@std@@PEAX@std@@AEAPEAU12@@std@@YAPEAU?$_Tree_node@U?$pair@$$CBHV?$vector@HV?$allocator@H@std@@@std@@@std@@PEAX@0@AEAPEAU10@0@Z
	??$exchange@PEAU?$_Tree_node@U?$pair@$$CBHV?$vector@V?$reference_wrapper@VStripPtR@@@std@@V?$allocator@V?$reference_wrapper@VStripPtR@@@std@@@2@@std@@@std@@PEAX@std@@$$T@std@@YAPEAU?$_Tree_node@U?$pair@$$CBHV?$vector@V?$reference_wrapper@VStripPtR@@@std@@V?$allocator@V?$reference_wrapper@VStripPtR@@@std@@@2@@std@@@std@@PEAX@0@AEAPEAU10@$$QEA$$T@Z
	??$exchange@PEAU?$_Tree_node@U?$pair@$$CBHV?$vector@V?$reference_wrapper@VStripPtR@@@std@@V?$allocator@V?$reference_wrapper@VStripPtR@@@std@@@2@@std@@@std@@PEAX@std@@AEAPEAU12@@std@@YAPEAU?$_Tree_node@U?$pair@$$CBHV?$vector@V?$reference_wrapper@VStripPtR@@@std@@V?$allocator@V?$reference_wrapper@VStripPtR@@@std@@@2@@std@@@std@@PEAX@0@AEAPEAU10@0@Z
	??$exchange@PEAU?$_Tree_node@U?$pair@$$CBHVPStrips@@@std@@PEAX@std@@$$T@std@@YAPEAU?$_Tree_node@U?$pair@$$CBHVPStrips@@@std@@PEAX@0@AEAPEAU10@$$QEA$$T@Z
	??$exchange@PEAU?$_Tree_node@U?$pair@$$CBHVPStrips@@@std@@PEAX@std@@AEAPEAU12@@std@@YAPEAU?$_Tree_node@U?$pair@$$CBHVPStrips@@@std@@PEAX@0@AEAPEAU10@0@Z
	??$exchange@PEAU?$_Tree_node@U?$pair@$$CBHVStripPt@@@std@@PEAX@std@@$$T@std@@YAPEAU?$_Tree_node@U?$pair@$$CBHVStripPt@@@std@@PEAX@0@AEAPEAU10@$$QEA$$T@Z
	??$exchange@PEAU?$_Tree_node@U?$pair@$$CBHVStripPt@@@std@@PEAX@std@@AEAPEAU12@@std@@YAPEAU?$_Tree_node@U?$pair@$$CBHVStripPt@@@std@@PEAX@0@AEAPEAU10@0@Z
	??$exchange@PEAU?$_Tree_node@U?$pair@$$CBHW4Rel@@@std@@PEAX@std@@$$T@std@@YAPEAU?$_Tree_node@U?$pair@$$CBHW4Rel@@@std@@PEAX@0@AEAPEAU10@$$QEA$$T@Z
	??$exchange@PEAU?$_Tree_node@U?$pair@$$CBHW4Rel@@@std@@PEAX@std@@AEAPEAU12@@std@@YAPEAU?$_Tree_node@U?$pair@$$CBHW4Rel@@@std@@PEAX@0@AEAPEAU10@0@Z
	??$exchange@PEAU?$_Tree_node@U?$pair@$$CBVPair@@V?$map@HHU?$less@H@std@@V?$allocator@U?$pair@$$CBHH@std@@@2@@std@@@std@@PEAX@std@@$$T@std@@YAPEAU?$_Tree_node@U?$pair@$$CBVPair@@V?$map@HHU?$less@H@std@@V?$allocator@U?$pair@$$CBHH@std@@@2@@std@@@std@@PEAX@0@AEAPEAU10@$$QEA$$T@Z
	??$exchange@PEAU?$_Tree_node@U?$pair@$$CBVPair@@V?$map@HHU?$less@H@std@@V?$allocator@U?$pair@$$CBHH@std@@@2@@std@@@std@@PEAX@std@@AEAPEAU12@@std@@YAPEAU?$_Tree_node@U?$pair@$$CBVPair@@V?$map@HHU?$less@H@std@@V?$allocator@U?$pair@$$CBHH@std@@@2@@std@@@std@@PEAX@0@AEAPEAU10@0@Z
	??$exchange@PEAU?$_Tree_node@V?$reference_wrapper@VStripPt@@@std@@PEAX@std@@$$T@std@@YAPEAU?$_Tree_node@V?$reference_wrapper@VStripPt@@@std@@PEAX@0@AEAPEAU10@$$QEA$$T@Z
	??$exchange@PEAU?$_Tree_node@V?$reference_wrapper@VStripPt@@@std@@PEAX@std@@AEAPEAU12@@std@@YAPEAU?$_Tree_node@V?$reference_wrapper@VStripPt@@@std@@PEAX@0@AEAPEAU10@0@Z
	??$exchange@PEAU?$_Tree_node@VPair@@PEAX@std@@$$T@std@@YAPEAU?$_Tree_node@VPair@@PEAX@0@AEAPEAU10@$$QEA$$T@Z
	??$exchange@PEAU?$_Tree_node@VPair@@PEAX@std@@AEAPEAU12@@std@@YAPEAU?$_Tree_node@VPair@@PEAX@0@AEAPEAU10@0@Z
	??$exchange@PEAU?$_Tree_node@VStripPtL3@@PEAX@std@@$$T@std@@YAPEAU?$_Tree_node@VStripPtL3@@PEAX@0@AEAPEAU10@$$QEA$$T@Z
	??$exchange@PEAU?$_Tree_node@VStripPtL3@@PEAX@std@@AEAPEAU12@@std@@YAPEAU?$_Tree_node@VStripPtL3@@PEAX@0@AEAPEAU10@0@Z
	??$exchange@PEAU?$_Tree_node@VStripPtL@@PEAX@std@@$$T@std@@YAPEAU?$_Tree_node@VStripPtL@@PEAX@0@AEAPEAU10@$$QEA$$T@Z
	??$exchange@PEAU?$_Tree_node@VStripPtL@@PEAX@std@@AEAPEAU12@@std@@YAPEAU?$_Tree_node@VStripPtL@@PEAX@0@AEAPEAU10@0@Z
	??$exchange@PEAU_Container_proxy@std@@$$T@std@@YAPEAU_Container_proxy@0@AEAPEAU10@$$QEA$$T@Z
	??$exchange@PEAV_Facet_base@std@@PEAV12@@std@@YAPEAV_Facet_base@0@AEAPEAV10@$$QEAPEAV10@@Z
	??$find@V?$_Vector_const_iterator@V?$_Vector_val@U?$_Simple_types@H@std@@@std@@@std@@H@std@@YA?AV?$_Vector_const_iterator@V?$_Vector_val@U?$_Simple_types@H@std@@@std@@@0@V10@V10@AEBH@Z
	??$find@V?$_Vector_iterator@V?$_Vector_val@U?$_Simple_types@H@std@@@std@@@std@@H@std@@YA?AV?$_Vector_iterator@V?$_Vector_val@U?$_Simple_types@H@std@@@std@@@0@V10@V10@AEBH@Z
	??$forward@$$QEAVPair@@@std@@YA$$QEAVPair@@AEAV1@@Z
	??$forward@AEAH@std@@YAAEAHAEAH@Z
	??$forward@AEAPEAU?$_Tree_node@HPEAX@std@@@std@@YAAEAPEAU?$_Tree_node@HPEAX@0@AEAPEAU10@@Z
	??$forward@AEAPEAU?$_Tree_node@U?$pair@$$CBHH@std@@PEAX@std@@@std@@YAAEAPEAU?$_Tree_node@U?$pair@$$CBHH@std@@PEAX@0@AEAPEAU10@@Z
	??$forward@AEAPEAU?$_Tree_node@U?$pair@$$CBHV?$set@HU?$less@H@std@@V?$allocator@H@2@@std@@@std@@PEAX@std@@@std@@YAAEAPEAU?$_Tree_node@U?$pair@$$CBHV?$set@HU?$less@H@std@@V?$allocator@H@2@@std@@@std@@PEAX@0@AEAPEAU10@@Z
	??$forward@AEAPEAU?$_Tree_node@U?$pair@$$CBHV?$vector@HV?$allocator@H@std@@@std@@@std@@PEAX@std@@@std@@YAAEAPEAU?$_Tree_node@U?$pair@$$CBHV?$vector@HV?$allocator@H@std@@@std@@@std@@PEAX@0@AEAPEAU10@@Z
	??$forward@AEAPEAU?$_Tree_node@U?$pair@$$CBHV?$vector@V?$reference_wrapper@VStripPtR@@@std@@V?$allocator@V?$reference_wrapper@VStripPtR@@@std@@@2@@std@@@std@@PEAX@std@@@std@@YAAEAPEAU?$_Tree_node@U?$pair@$$CBHV?$vector@V?$reference_wrapper@VStripPtR@@@std@@V?$allocator@V?$reference_wrapper@VStripPtR@@@std@@@2@@std@@@std@@PEAX@0@AEAPEAU10@@Z
	??$forward@AEAPEAU?$_Tree_node@U?$pair@$$CBHVPStrips@@@std@@PEAX@std@@@std@@YAAEAPEAU?$_Tree_node@U?$pair@$$CBHVPStrips@@@std@@PEAX@0@AEAPEAU10@@Z
	??$forward@AEAPEAU?$_Tree_node@U?$pair@$$CBHVStripPt@@@std@@PEAX@std@@@std@@YAAEAPEAU?$_Tree_node@U?$pair@$$CBHVStripPt@@@std@@PEAX@0@AEAPEAU10@@Z
	??$forward@AEAPEAU?$_Tree_node@U?$pair@$$CBHW4Rel@@@std@@PEAX@std@@@std@@YAAEAPEAU?$_Tree_node@U?$pair@$$CBHW4Rel@@@std@@PEAX@0@AEAPEAU10@@Z
	??$forward@AEAPEAU?$_Tree_node@U?$pair@$$CBVPair@@V?$map@HHU?$less@H@std@@V?$allocator@U?$pair@$$CBHH@std@@@2@@std@@@std@@PEAX@std@@@std@@YAAEAPEAU?$_Tree_node@U?$pair@$$CBVPair@@V?$map@HHU?$less@H@std@@V?$allocator@U?$pair@$$CBHH@std@@@2@@std@@@std@@PEAX@0@AEAPEAU10@@Z
	??$forward@AEAPEAU?$_Tree_node@V?$reference_wrapper@VStripPt@@@std@@PEAX@std@@@std@@YAAEAPEAU?$_Tree_node@V?$reference_wrapper@VStripPt@@@std@@PEAX@0@AEAPEAU10@@Z
	??$forward@AEAPEAU?$_Tree_node@VPair@@PEAX@std@@@std@@YAAEAPEAU?$_Tree_node@VPair@@PEAX@0@AEAPEAU10@@Z
	??$forward@AEAPEAU?$_Tree_node@VStripPtL3@@PEAX@std@@@std@@YAAEAPEAU?$_Tree_node@VStripPtL3@@PEAX@0@AEAPEAU10@@Z
	??$forward@AEAPEAU?$_Tree_node@VStripPtL@@PEAX@std@@@std@@YAAEAPEAU?$_Tree_node@VStripPtL@@PEAX@0@AEAPEAU10@@Z
	??$forward@AEAPEAV?$reference_wrapper@VStripPtR@@@std@@@std@@YAAEAPEAV?$reference_wrapper@VStripPtR@@@0@AEAPEAV10@@Z
	??$forward@AEAPEAVInterPtType@@@std@@YAAEAPEAVInterPtType@@AEAPEAV1@@Z
	??$forward@AEAPEAV_Facet_base@std@@@std@@YAAEAPEAV_Facet_base@0@AEAPEAV10@@Z
	??$forward@AEAU?$pair@$$CBHVStripPt@@@std@@@std@@YAAEAU?$pair@$$CBHVStripPt@@@0@AEAU10@@Z
	??$forward@AEAV?$_Deque_iterator@V?$_Deque_val@U?$_Deque_simple_types@VStripPtR@@@std@@@std@@@std@@@std@@YAAEAV?$_Deque_iterator@V?$_Deque_val@U?$_Deque_simple_types@VStripPtR@@@std@@@std@@@0@AEAV10@@Z
	??$forward@AEAV?$_Vector_const_iterator@V?$_Vector_val@U?$_Simple_types@VPair@@@std@@@std@@@std@@@std@@YAAEAV?$_Vector_const_iterator@V?$_Vector_val@U?$_Simple_types@VPair@@@std@@@std@@@0@AEAV10@@Z
	??$forward@AEAV?$deque@VStripPtR@@V?$allocator@VStripPtR@@@std@@@std@@@std@@YAAEAV?$deque@VStripPtR@@V?$allocator@VStripPtR@@@std@@@0@AEAV10@@Z
	??$forward@AEAV?$reference_wrapper@VStripPtR@@@std@@@std@@YAAEAV?$reference_wrapper@VStripPtR@@@0@AEAV10@@Z
	??$forward@AEAV?$reverse_iterator@PEAVStripPtL3@@@std@@@std@@YAAEAV?$reverse_iterator@PEAVStripPtL3@@@0@AEAV10@@Z
	??$forward@AEAV?$shared_ptr@VObj@@@std@@@std@@YAAEAV?$shared_ptr@VObj@@@0@AEAV10@@Z
	??$forward@AEAVInterPtType@@@std@@YAAEAVInterPtType@@AEAV1@@Z
	??$forward@AEAVPair@@@std@@YAAEAVPair@@AEAV1@@Z
	??$forward@AEAVPoint@@@std@@YAAEAVPoint@@AEAV1@@Z
	??$forward@AEAVStripPt@@@std@@YAAEAVStripPt@@AEAV1@@Z
	??$forward@AEAVStripPtL3@@@std@@YAAEAVStripPtL3@@AEAV1@@Z
	??$forward@AEAVStripPtR@@@std@@YAAEAVStripPtR@@AEAV1@@Z
	??$forward@AEBH@std@@YAAEBHAEBH@Z
	??$forward@AEBN@std@@YAAEBNAEBN@Z
	??$forward@AEBQEAD@std@@YAAEBQEADAEBQEAD@Z
	??$forward@AEBQEAU?$_Tree_node@U?$pair@$$CBHH@std@@PEAX@std@@@std@@YAAEBQEAU?$_Tree_node@U?$pair@$$CBHH@std@@PEAX@0@AEBQEAU10@@Z
	??$forward@AEBQEAU?$_Tree_node@U?$pair@$$CBHV?$set@HU?$less@H@std@@V?$allocator@H@2@@std@@@std@@PEAX@std@@@std@@YAAEBQEAU?$_Tree_node@U?$pair@$$CBHV?$set@HU?$less@H@std@@V?$allocator@H@2@@std@@@std@@PEAX@0@AEBQEAU10@@Z
	??$forward@AEBQEAU?$_Tree_node@U?$pair@$$CBHV?$vector@HV?$allocator@H@std@@@std@@@std@@PEAX@std@@@std@@YAAEBQEAU?$_Tree_node@U?$pair@$$CBHV?$vector@HV?$allocator@H@std@@@std@@@std@@PEAX@0@AEBQEAU10@@Z
	??$forward@AEBQEAU?$_Tree_node@U?$pair@$$CBHV?$vector@V?$reference_wrapper@VStripPtR@@@std@@V?$allocator@V?$reference_wrapper@VStripPtR@@@std@@@2@@std@@@std@@PEAX@std@@@std@@YAAEBQEAU?$_Tree_node@U?$pair@$$CBHV?$vector@V?$reference_wrapper@VStripPtR@@@std@@V?$allocator@V?$reference_wrapper@VStripPtR@@@std@@@2@@std@@@std@@PEAX@0@AEBQEAU10@@Z
	??$forward@AEBQEAU?$_Tree_node@U?$pair@$$CBHVPStrips@@@std@@PEAX@std@@@std@@YAAEBQEAU?$_Tree_node@U?$pair@$$CBHVPStrips@@@std@@PEAX@0@AEBQEAU10@@Z
	??$forward@AEBQEAU?$_Tree_node@U?$pair@$$CBHVStripPt@@@std@@PEAX@std@@@std@@YAAEBQEAU?$_Tree_node@U?$pair@$$CBHVStripPt@@@std@@PEAX@0@AEBQEAU10@@Z
	??$forward@AEBQEAU?$_Tree_node@U?$pair@$$CBHW4Rel@@@std@@PEAX@std@@@std@@YAAEBQEAU?$_Tree_node@U?$pair@$$CBHW4Rel@@@std@@PEAX@0@AEBQEAU10@@Z
	??$forward@AEBQEAU?$_Tree_node@U?$pair@$$CBVPair@@V?$map@HHU?$less@H@std@@V?$allocator@U?$pair@$$CBHH@std@@@2@@std@@@std@@PEAX@std@@@std@@YAAEBQEAU?$_Tree_node@U?$pair@$$CBVPair@@V?$map@HHU?$less@H@std@@V?$allocator@U?$pair@$$CBHH@std@@@2@@std@@@std@@PEAX@0@AEBQEAU10@@Z
	??$forward@AEBU?$less@H@std@@@std@@YAAEBU?$less@H@0@AEBU10@@Z
	??$forward@AEBU?$less@VPair@@@std@@@std@@YAAEBU?$less@VPair@@@0@AEBU10@@Z
	??$forward@AEBU?$less@VStripPtL@@@std@@@std@@YAAEBU?$less@VStripPtL@@@0@AEBU10@@Z
	??$forward@AEBUpiecewise_construct_t@std@@@std@@YAAEBUpiecewise_construct_t@0@AEBU10@@Z
	??$forward@AEBV?$allocator@H@std@@@std@@YAAEBV?$allocator@H@0@AEBV10@@Z
	??$forward@AEBV?$allocator@V?$reference_wrapper@VStripPtR@@@std@@@std@@@std@@YAAEBV?$allocator@V?$reference_wrapper@VStripPtR@@@std@@@0@AEBV10@@Z
	??$forward@AEBV?$allocator@V?$vector@HV?$allocator@H@std@@@std@@@std@@@std@@YAAEBV?$allocator@V?$vector@HV?$allocator@H@std@@@std@@@0@AEBV10@@Z
	??$forward@AEBV?$allocator@VStripPtL3@@@std@@@std@@YAAEBV?$allocator@VStripPtL3@@@0@AEBV10@@Z
	??$forward@AEBV?$deque@VStripPtR@@V?$allocator@VStripPtR@@@std@@@std@@@std@@YAAEBV?$deque@VStripPtR@@V?$allocator@VStripPtR@@@std@@@0@AEBV10@@Z
	??$forward@AEBV?$vector@HV?$allocator@H@std@@@std@@@std@@YAAEBV?$vector@HV?$allocator@H@std@@@0@AEBV10@@Z
	??$forward@AEBVInterPtType@@@std@@YAAEBVInterPtType@@AEBV1@@Z
	??$forward@AEBVStripPt@@@std@@YAAEBVStripPt@@AEBV1@@Z
	??$forward@AEBVStripPtL3@@@std@@YAAEBVStripPtL3@@AEBV1@@Z
	??$forward@AEBVStripPtR@@@std@@YAAEBVStripPtR@@AEBV1@@Z
	??$forward@AEB_N@std@@YAAEB_NAEB_N@Z
	??$forward@H@std@@YA$$QEAHAEAH@Z
	??$forward@PEAU?$_Tree_node@HPEAX@std@@@std@@YA$$QEAPEAU?$_Tree_node@HPEAX@0@AEAPEAU10@@Z
	??$forward@PEAU?$_Tree_node@U?$pair@$$CBHH@std@@PEAX@std@@@std@@YA$$QEAPEAU?$_Tree_node@U?$pair@$$CBHH@std@@PEAX@0@AEAPEAU10@@Z
	??$forward@PEAU?$_Tree_node@U?$pair@$$CBHV?$set@HU?$less@H@std@@V?$allocator@H@2@@std@@@std@@PEAX@std@@@std@@YA$$QEAPEAU?$_Tree_node@U?$pair@$$CBHV?$set@HU?$less@H@std@@V?$allocator@H@2@@std@@@std@@PEAX@0@AEAPEAU10@@Z
	??$forward@PEAU?$_Tree_node@U?$pair@$$CBHV?$vector@HV?$allocator@H@std@@@std@@@std@@PEAX@std@@@std@@YA$$QEAPEAU?$_Tree_node@U?$pair@$$CBHV?$vector@HV?$allocator@H@std@@@std@@@std@@PEAX@0@AEAPEAU10@@Z
	??$forward@PEAU?$_Tree_node@U?$pair@$$CBHV?$vector@V?$reference_wrapper@VStripPtR@@@std@@V?$allocator@V?$reference_wrapper@VStripPtR@@@std@@@2@@std@@@std@@PEAX@std@@@std@@YA$$QEAPEAU?$_Tree_node@U?$pair@$$CBHV?$vector@V?$reference_wrapper@VStripPtR@@@std@@V?$allocator@V?$reference_wrapper@VStripPtR@@@std@@@2@@std@@@std@@PEAX@0@AEAPEAU10@@Z
	??$forward@PEAU?$_Tree_node@U?$pair@$$CBHVPStrips@@@std@@PEAX@std@@@std@@YA$$QEAPEAU?$_Tree_node@U?$pair@$$CBHVPStrips@@@std@@PEAX@0@AEAPEAU10@@Z
	??$forward@PEAU?$_Tree_node@U?$pair@$$CBHVStripPt@@@std@@PEAX@std@@@std@@YA$$QEAPEAU?$_Tree_node@U?$pair@$$CBHVStripPt@@@std@@PEAX@0@AEAPEAU10@@Z
	??$forward@PEAU?$_Tree_node@U?$pair@$$CBHW4Rel@@@std@@PEAX@std@@@std@@YA$$QEAPEAU?$_Tree_node@U?$pair@$$CBHW4Rel@@@std@@PEAX@0@AEAPEAU10@@Z
	??$forward@PEAU?$_Tree_node@U?$pair@$$CBVPair@@V?$map@HHU?$less@H@std@@V?$allocator@U?$pair@$$CBHH@std@@@2@@std@@@std@@PEAX@std@@@std@@YA$$QEAPEAU?$_Tree_node@U?$pair@$$CBVPair@@V?$map@HHU?$less@H@std@@V?$allocator@U?$pair@$$CBHH@std@@@2@@std@@@std@@PEAX@0@AEAPEAU10@@Z
	??$forward@PEAU?$_Tree_node@V?$reference_wrapper@VStripPt@@@std@@PEAX@std@@@std@@YA$$QEAPEAU?$_Tree_node@V?$reference_wrapper@VStripPt@@@std@@PEAX@0@AEAPEAU10@@Z
	??$forward@PEAU?$_Tree_node@VPair@@PEAX@std@@@std@@YA$$QEAPEAU?$_Tree_node@VPair@@PEAX@0@AEAPEAU10@@Z
	??$forward@PEAU?$_Tree_node@VStripPtL3@@PEAX@std@@@std@@YA$$QEAPEAU?$_Tree_node@VStripPtL3@@PEAX@0@AEAPEAU10@@Z
	??$forward@PEAU?$_Tree_node@VStripPtL@@PEAX@std@@@std@@YA$$QEAPEAU?$_Tree_node@VStripPtL@@PEAX@0@AEAPEAU10@@Z
	??$forward@PEAU_Container_base12@std@@@std@@YA$$QEAPEAU_Container_base12@0@AEAPEAU10@@Z
	??$forward@PEAVLine@@@std@@YA$$QEAPEAVLine@@AEAPEAV1@@Z
	??$forward@PEBVInterPtType@@@std@@YA$$QEAPEBVInterPtType@@AEAPEBV1@@Z
	??$forward@U?$less@H@std@@@std@@YA$$QEAU?$less@H@0@AEAU10@@Z
	??$forward@U?$pair@VInterPtType@@V1@@std@@@std@@YA$$QEAU?$pair@VInterPtType@@V1@@0@AEAU10@@Z
	??$forward@U_One_then_variadic_args_t@std@@@std@@YA$$QEAU_One_then_variadic_args_t@0@AEAU10@@Z
	??$forward@U_Zero_then_variadic_args_t@std@@@std@@YA$$QEAU_Zero_then_variadic_args_t@0@AEAU10@@Z
	??$forward@V?$_Tree_const_iterator@V?$_Tree_val@U?$_Tree_simple_types@H@std@@@std@@@std@@@std@@YA$$QEAV?$_Tree_const_iterator@V?$_Tree_val@U?$_Tree_simple_types@H@std@@@std@@@0@AEAV10@@Z
	??$forward@V?$_Tree_const_iterator@V?$_Tree_val@U?$_Tree_simple_types@V?$reference_wrapper@VStripPt@@@std@@@std@@@std@@@std@@@std@@YA$$QEAV?$_Tree_const_iterator@V?$_Tree_val@U?$_Tree_simple_types@V?$reference_wrapper@VStripPt@@@std@@@std@@@std@@@0@AEAV10@@Z
	??$forward@V?$_Tree_const_iterator@V?$_Tree_val@U?$_Tree_simple_types@VPair@@@std@@@std@@@std@@@std@@YA$$QEAV?$_Tree_const_iterator@V?$_Tree_val@U?$_Tree_simple_types@VPair@@@std@@@std@@@0@AEAV10@@Z
	??$forward@V?$_Tree_const_iterator@V?$_Tree_val@U?$_Tree_simple_types@VStripPtL3@@@std@@@std@@@std@@@std@@YA$$QEAV?$_Tree_const_iterator@V?$_Tree_val@U?$_Tree_simple_types@VStripPtL3@@@std@@@std@@@0@AEAV10@@Z
	??$forward@V?$_Tree_const_iterator@V?$_Tree_val@U?$_Tree_simple_types@VStripPtL@@@std@@@std@@@std@@@std@@YA$$QEAV?$_Tree_const_iterator@V?$_Tree_val@U?$_Tree_simple_types@VStripPtL@@@std@@@std@@@0@AEAV10@@Z
	??$forward@V?$allocator@H@std@@@std@@YA$$QEAV?$allocator@H@0@AEAV10@@Z
	??$forward@V?$allocator@U?$_Tree_node@U?$pair@$$CBHVStripPt@@@std@@PEAX@std@@@std@@@std@@YA$$QEAV?$allocator@U?$_Tree_node@U?$pair@$$CBHVStripPt@@@std@@PEAX@std@@@0@AEAV10@@Z
	??$forward@V?$allocator@U?$pair@VInterPtType@@V1@@std@@@std@@@std@@YA$$QEAV?$allocator@U?$pair@VInterPtType@@V1@@std@@@0@AEAV10@@Z
	??$forward@V?$allocator@V?$deque@VStripPtR@@V?$allocator@VStripPtR@@@std@@@std@@@std@@@std@@YA$$QEAV?$allocator@V?$deque@VStripPtR@@V?$allocator@VStripPtR@@@std@@@std@@@0@AEAV10@@Z
	??$forward@V?$allocator@V?$shared_ptr@VObj@@@std@@@std@@@std@@YA$$QEAV?$allocator@V?$shared_ptr@VObj@@@std@@@0@AEAV10@@Z
	??$forward@V?$allocator@VInterPtType@@@std@@@std@@YA$$QEAV?$allocator@VInterPtType@@@0@AEAV10@@Z
	??$forward@V?$allocator@VPair@@@std@@@std@@YA$$QEAV?$allocator@VPair@@@0@AEAV10@@Z
	??$forward@V?$allocator@VStripPtR@@@std@@@std@@YA$$QEAV?$allocator@VStripPtR@@@0@AEAV10@@Z
	??$forward@V?$deque@VStripPtR@@V?$allocator@VStripPtR@@@std@@@std@@@std@@YA$$QEAV?$deque@VStripPtR@@V?$allocator@VStripPtR@@@std@@@0@AEAV10@@Z
	??$forward@V?$reference_wrapper@VStripPt@@@std@@@std@@YA$$QEAV?$reference_wrapper@VStripPt@@@0@AEAV10@@Z
	??$forward@V?$reference_wrapper@VStripPtR@@@std@@@std@@YA$$QEAV?$reference_wrapper@VStripPtR@@@0@AEAV10@@Z
	??$forward@V?$shared_ptr@VLine@@@std@@@std@@YA$$QEAV?$shared_ptr@VLine@@@0@AEAV10@@Z
	??$forward@V?$shared_ptr@VObj@@@std@@@std@@YA$$QEAV?$shared_ptr@VObj@@@0@AEAV10@@Z
	??$forward@V?$tuple@$$QEAVPair@@@std@@@std@@YA$$QEAV?$tuple@$$QEAVPair@@@0@AEAV10@@Z
	??$forward@V?$tuple@$$V@std@@@std@@YA$$QEAV?$tuple@$$V@0@AEAV10@@Z
	??$forward@V?$tuple@AEBH@std@@@std@@YA$$QEAV?$tuple@AEBH@0@AEAV10@@Z
	??$forward@V?$tuple@AEBVStripPt@@@std@@@std@@YA$$QEAV?$tuple@AEBVStripPt@@@0@AEAV10@@Z
	??$forward@V?$vector@HV?$allocator@H@std@@@std@@@std@@YA$$QEAV?$vector@HV?$allocator@H@std@@@0@AEAV10@@Z
	??$forward@VInterPtType@@@std@@YA$$QEAVInterPtType@@AEAV1@@Z
	??$forward@VMergePt@@@std@@YA$$QEAVMergePt@@AEAV1@@Z
	??$forward@VNode@@@std@@YA$$QEAVNode@@AEAV1@@Z
	??$forward@VPair@@@std@@YA$$QEAVPair@@AEAV1@@Z
	??$forward@VPoint@@@std@@YA$$QEAVPoint@@AEAV1@@Z
	??$forward@VPolyAtEdge@@@std@@YA$$QEAVPolyAtEdge@@AEAV1@@Z
	??$forward@VStripPtL2@@@std@@YA$$QEAVStripPtL2@@AEAV1@@Z
	??$forward@VStripPtL3@@@std@@YA$$QEAVStripPtL3@@AEAV1@@Z
	??$forward@VStripPtL@@@std@@YA$$QEAVStripPtL@@AEAV1@@Z
	??$forward@VStripPtR@@@std@@YA$$QEAVStripPtR@@AEAV1@@Z
	??$forward@_N@std@@YA$$QEA_NAEA_N@Z
	??$forward_as_tuple@$$V@std@@YA?AV?$tuple@$$V@0@XZ
	??$forward_as_tuple@AEBH@std@@YA?AV?$tuple@AEBH@0@AEBH@Z
	??$forward_as_tuple@AEBVStripPt@@@std@@YA?AV?$tuple@AEBVStripPt@@@0@AEBVStripPt@@@Z
	??$forward_as_tuple@VPair@@@std@@YA?AV?$tuple@$$QEAVPair@@@0@$$QEAVPair@@@Z
	??$get@$0A@$$QEAVPair@@@std@@YA$$QEAVPair@@$$QEAV?$tuple@$$QEAVPair@@@0@@Z
	??$get@$0A@AEBH@std@@YAAEBH$$QEAV?$tuple@AEBH@0@@Z
	??$get@$0A@AEBVStripPt@@@std@@YAAEBVStripPt@@$$QEAV?$tuple@AEBVStripPt@@@0@@Z
	??$insert@$0A@$0A@@?$_Tree@V?$_Tset_traits@HU?$less@H@std@@V?$allocator@H@2@$0A@@std@@@std@@QEAA?AU?$pair@V?$_Tree_const_iterator@V?$_Tree_val@U?$_Tree_simple_types@H@std@@@std@@@std@@_N@1@$$QEAH@Z
	??$insert@$0A@$0A@@?$_Tree@V?$_Tset_traits@HU?$less@H@std@@V?$allocator@H@2@$0A@@std@@@std@@QEAA?AU?$pair@V?$_Tree_const_iterator@V?$_Tree_val@U?$_Tree_simple_types@H@std@@@std@@@std@@_N@1@AEBH@Z
	??$insert@$0A@$0A@@?$_Tree@V?$_Tset_traits@VPair@@U?$less@VPair@@@std@@V?$allocator@VPair@@@3@$0A@@std@@@std@@QEAA?AU?$pair@V?$_Tree_const_iterator@V?$_Tree_val@U?$_Tree_simple_types@VPair@@@std@@@std@@@std@@_N@1@$$QEAVPair@@@Z
	??$insert@$0A@$0A@@?$_Tree@V?$_Tset_traits@VStripPtL@@U?$less@VStripPtL@@@std@@V?$allocator@VStripPtL@@@3@$0A@@std@@@std@@QEAA?AU?$pair@V?$_Tree_const_iterator@V?$_Tree_val@U?$_Tree_simple_types@VStripPtL@@@std@@@std@@@std@@_N@1@$$QEAVStripPtL@@@Z
	??$insert@V?$_Deque_iterator@V?$_Deque_val@U?$_Deque_simple_types@VStripPtR@@@std@@@std@@@std@@X@?$deque@VStripPtR@@V?$allocator@VStripPtR@@@std@@@std@@QEAA?AV?$_Deque_iterator@V?$_Deque_val@U?$_Deque_simple_types@VStripPtR@@@std@@@std@@@1@V?$_Deque_const_iterator@V?$_Deque_val@U?$_Deque_simple_types@VStripPtR@@@std@@@std@@@1@V21@1@Z
	??$insert@V?$_Deque_iterator@V?$_Deque_val@U?$_Deque_simple_types@VStripPtR@@@std@@@std@@@std@@X@?$vector@V?$reference_wrapper@VStripPtR@@@std@@V?$allocator@V?$reference_wrapper@VStripPtR@@@std@@@2@@std@@QEAA?AV?$_Vector_iterator@V?$_Vector_val@U?$_Simple_types@V?$reference_wrapper@VStripPtR@@@std@@@std@@@std@@@1@V?$_Vector_const_iterator@V?$_Vector_val@U?$_Simple_types@V?$reference_wrapper@VStripPtR@@@std@@@std@@@std@@@1@V?$_Deque_iterator@V?$_Deque_val@U?$_Deque_simple_types@VStripPtR@@@std@@@std@@@1@1@Z
	??$insert@V?$_Vector_iterator@V?$_Vector_val@U?$_Simple_types@H@std@@@std@@@std@@@?$_Tree@V?$_Tset_traits@HU?$less@H@std@@V?$allocator@H@2@$0A@@std@@@std@@QEAAXV?$_Vector_iterator@V?$_Vector_val@U?$_Simple_types@H@std@@@std@@@1@0@Z
	??$insert@V?$reverse_iterator@V?$_Deque_iterator@V?$_Deque_val@U?$_Deque_simple_types@VStripPtR@@@std@@@std@@@std@@@std@@X@?$vector@V?$reference_wrapper@VStripPtR@@@std@@V?$allocator@V?$reference_wrapper@VStripPtR@@@std@@@2@@std@@QEAA?AV?$_Vector_iterator@V?$_Vector_val@U?$_Simple_types@V?$reference_wrapper@VStripPtR@@@std@@@std@@@std@@@1@V?$_Vector_const_iterator@V?$_Vector_val@U?$_Simple_types@V?$reference_wrapper@VStripPtR@@@std@@@std@@@std@@@1@V?$reverse_iterator@V?$_Deque_iterator@V?$_Deque_val@U?$_Deque_simple_types@VStripPtR@@@std@@@std@@@std@@@1@1@Z
	??$iter_swap@PEAV?$reference_wrapper@VStripPtR@@@std@@PEAV12@@std@@YAXPEAV?$reference_wrapper@VStripPtR@@@0@0@Z
	??$iter_swap@PEAVInterPtType@@PEAV1@@std@@YAXPEAVInterPtType@@0@Z
	??$iter_swap@PEAVPoint@@PEAV1@@std@@YAXPEAVPoint@@0@Z
	??$iter_swap@V?$_Deque_unchecked_iterator@V?$_Deque_val@U?$_Deque_simple_types@VStripPtR@@@std@@@std@@@std@@V12@@std@@YAXV?$_Deque_unchecked_iterator@V?$_Deque_val@U?$_Deque_simple_types@VStripPtR@@@std@@@std@@@0@0@Z
	??$iter_swap@V?$reverse_iterator@PEAVStripPtL3@@@std@@V12@@std@@YAXV?$reverse_iterator@PEAVStripPtL3@@@0@0@Z
	??$lower_bound@V?$_Vector_iterator@V?$_Vector_val@U?$_Simple_types@VInterPtType@@@std@@@std@@@std@@VInterPtType@@@std@@YA?AV?$_Vector_iterator@V?$_Vector_val@U?$_Simple_types@VInterPtType@@@std@@@std@@@0@V10@0AEBVInterPtType@@@Z
	??$lower_bound@V?$_Vector_iterator@V?$_Vector_val@U?$_Simple_types@VInterPtType@@@std@@@std@@@std@@VInterPtType@@U?$less@X@2@@std@@YA?AV?$_Vector_iterator@V?$_Vector_val@U?$_Simple_types@VInterPtType@@@std@@@std@@@0@V10@V10@AEBVInterPtType@@U?$less@X@0@@Z
	??$make_pair@AEAVInterPtType@@AEAV1@@std@@YA?AU?$pair@VInterPtType@@V1@@0@AEAVInterPtType@@0@Z
	??$make_shared@VBB@@AEBNAEBNAEBNAEBN@std@@YA?AV?$shared_ptr@VBB@@@0@AEBN000@Z
	??$max@N@std@@YAAEBNAEBN0@Z
	??$min@N@std@@YAAEBNAEBN0@Z
	??$move@AEAD@std@@YA$$QEADAEAD@Z
	??$move@AEAH@std@@YA$$QEAHAEAH@Z
	??$move@AEAPEAH@std@@YA$$QEAPEAHAEAPEAH@Z
	??$move@AEAPEBVInterPtType@@@std@@YA$$QEAPEBVInterPtType@@AEAPEBV1@@Z
	??$move@AEAU?$pair@VInterPtType@@V1@@std@@@std@@YA$$QEAU?$pair@VInterPtType@@V1@@0@AEAU10@@Z
	??$move@AEAV?$allocator@H@std@@@std@@YA$$QEAV?$allocator@H@0@AEAV10@@Z
	??$move@AEAV?$allocator@U?$pair@VInterPtType@@V1@@std@@@std@@@std@@YA$$QEAV?$allocator@U?$pair@VInterPtType@@V1@@std@@@0@AEAV10@@Z
	??$move@AEAV?$allocator@V?$shared_ptr@VObj@@@std@@@std@@@std@@YA$$QEAV?$allocator@V?$shared_ptr@VObj@@@std@@@0@AEAV10@@Z
	??$move@AEAV?$allocator@VInterPtType@@@std@@@std@@YA$$QEAV?$allocator@VInterPtType@@@0@AEAV10@@Z
	??$move@AEAV?$allocator@VPair@@@std@@@std@@YA$$QEAV?$allocator@VPair@@@0@AEAV10@@Z
	??$move@AEAV?$allocator@VStripPtR@@@std@@@std@@YA$$QEAV?$allocator@VStripPtR@@@0@AEAV10@@Z
	??$move@AEAV?$deque@VStripPtR@@V?$allocator@VStripPtR@@@std@@@std@@@std@@YA$$QEAV?$deque@VStripPtR@@V?$allocator@VStripPtR@@@std@@@0@AEAV10@@Z
	??$move@AEAV?$reference_wrapper@VStripPt@@@std@@@std@@YA$$QEAV?$reference_wrapper@VStripPt@@@0@AEAV10@@Z
	??$move@AEAV?$reference_wrapper@VStripPtR@@@std@@@std@@YA$$QEAV?$reference_wrapper@VStripPtR@@@0@AEAV10@@Z
	??$move@AEAV?$shared_ptr@VBB@@@std@@@std@@YA$$QEAV?$shared_ptr@VBB@@@0@AEAV10@@Z
	??$move@AEAV?$shared_ptr@VLine@@@std@@@std@@YA$$QEAV?$shared_ptr@VLine@@@0@AEAV10@@Z
	??$move@AEAV?$shared_ptr@VObj@@@std@@@std@@YA$$QEAV?$shared_ptr@VObj@@@0@AEAV10@@Z
	??$move@AEAV?$tuple@$$QEAVPair@@@std@@@std@@YA$$QEAV?$tuple@$$QEAVPair@@@0@AEAV10@@Z
	??$move@AEAV?$tuple@AEBH@std@@@std@@YA$$QEAV?$tuple@AEBH@0@AEAV10@@Z
	??$move@AEAV?$tuple@AEBVStripPt@@@std@@@std@@YA$$QEAV?$tuple@AEBVStripPt@@@0@AEAV10@@Z
	??$move@AEAV?$vector@HV?$allocator@H@std@@@std@@@std@@YA$$QEAV?$vector@HV?$allocator@H@std@@@0@AEAV10@@Z
	??$move@AEAVInterPtType@@@std@@YA$$QEAVInterPtType@@AEAV1@@Z
	??$move@AEAVMergePt@@@std@@YA$$QEAVMergePt@@AEAV1@@Z
	??$move@AEAVNode@@@std@@YA$$QEAVNode@@AEAV1@@Z
	??$move@AEAVPair@@@std@@YA$$QEAVPair@@AEAV1@@Z
	??$move@AEAVPoint@@@std@@YA$$QEAVPoint@@AEAV1@@Z
	??$move@AEAVPolyAtEdge@@@std@@YA$$QEAVPolyAtEdge@@AEAV1@@Z
	??$move@AEAVStripPtL2@@@std@@YA$$QEAVStripPtL2@@AEAV1@@Z
	??$move@AEAVStripPtL3@@@std@@YA$$QEAVStripPtL3@@AEAV1@@Z
	??$move@AEAVStripPtL@@@std@@YA$$QEAVStripPtL@@AEAV1@@Z
	??$move@AEAVStripPtR@@@std@@YA$$QEAVStripPtR@@AEAV1@@Z
	??$move@V?$_Deque_iterator@V?$_Deque_val@U?$_Deque_simple_types@H@std@@@std@@@std@@V12@@std@@YA?AV?$_Deque_iterator@V?$_Deque_val@U?$_Deque_simple_types@H@std@@@std@@@0@V10@00@Z
	??$move_backward@V?$_Deque_iterator@V?$_Deque_val@U?$_Deque_simple_types@H@std@@@std@@@std@@V12@@std@@YA?AV?$_Deque_iterator@V?$_Deque_val@U?$_Deque_simple_types@H@std@@@std@@@0@V10@00@Z
	??$next@PEAVInterPtType@@@std@@YAPEAVInterPtType@@PEAV1@_J@Z
	??$next@V?$_Tree_const_iterator@V?$_Tree_val@U?$_Tree_simple_types@V?$reference_wrapper@VStripPt@@@std@@@std@@@std@@@std@@@std@@YA?AV?$_Tree_const_iterator@V?$_Tree_val@U?$_Tree_simple_types@V?$reference_wrapper@VStripPt@@@std@@@std@@@std@@@0@V10@_J@Z
	??$ref@VStripPtR@@@std@@YA?AV?$reference_wrapper@VStripPtR@@@0@AEAVStripPtR@@@Z
	??$reverse@V?$_Deque_iterator@V?$_Deque_val@U?$_Deque_simple_types@VStripPtR@@@std@@@std@@@std@@@std@@YAXV?$_Deque_iterator@V?$_Deque_val@U?$_Deque_simple_types@VStripPtR@@@std@@@std@@@0@0@Z
	??$reverse@V?$_Deque_unchecked_iterator@V?$_Deque_val@U?$_Deque_simple_types@VStripPtR@@@std@@@std@@@std@@@std@@YAXV?$_Deque_unchecked_iterator@V?$_Deque_val@U?$_Deque_simple_types@VStripPtR@@@std@@@std@@@0@0@Z
	??$reverse@V?$_Vector_iterator@V?$_Vector_val@U?$_Simple_types@H@std@@@std@@@std@@@std@@YAXV?$_Vector_iterator@V?$_Vector_val@U?$_Simple_types@H@std@@@std@@@0@0@Z
	??$reverse@V?$_Vector_iterator@V?$_Vector_val@U?$_Simple_types@VPoint@@@std@@@std@@@std@@@std@@YAXV?$_Vector_iterator@V?$_Vector_val@U?$_Simple_types@VPoint@@@std@@@std@@@0@0@Z
	??$rotate@V?$_Deque_iterator@V?$_Deque_val@U?$_Deque_simple_types@VStripPtR@@@std@@@std@@@std@@@std@@YA?AV?$_Deque_iterator@V?$_Deque_val@U?$_Deque_simple_types@VStripPtR@@@std@@@std@@@0@V10@00@Z
	??$sort@V?$_Vector_iterator@V?$_Vector_val@U?$_Simple_types@VInterPtType@@@std@@@std@@@std@@@std@@YAXV?$_Vector_iterator@V?$_Vector_val@U?$_Simple_types@VInterPtType@@@std@@@std@@@0@0@Z
	??$sort@V?$_Vector_iterator@V?$_Vector_val@U?$_Simple_types@VInterPtType@@@std@@@std@@@std@@U?$less@X@2@@std@@YAXV?$_Vector_iterator@V?$_Vector_val@U?$_Simple_types@VInterPtType@@@std@@@std@@@0@0U?$less@X@0@@Z
	??$sort@V?$reverse_iterator@V?$_Vector_iterator@V?$_Vector_val@U?$_Simple_types@VStripPtL3@@@std@@@std@@@std@@@std@@@std@@YAXV?$reverse_iterator@V?$_Vector_iterator@V?$_Vector_val@U?$_Simple_types@VStripPtL3@@@std@@@std@@@std@@@0@0@Z
	??$sort@V?$reverse_iterator@V?$_Vector_iterator@V?$_Vector_val@U?$_Simple_types@VStripPtL3@@@std@@@std@@@std@@@std@@U?$less@X@2@@std@@YAXV?$reverse_iterator@V?$_Vector_iterator@V?$_Vector_val@U?$_Simple_types@VStripPtL3@@@std@@@std@@@std@@@0@0U?$less@X@0@@Z
	??$swap@DX@std@@YAXAEAD0@Z
	??$swap@PEAHX@std@@YAXAEAPEAH0@Z
	??$swap@V?$reference_wrapper@VStripPtR@@@std@@X@std@@YAXAEAV?$reference_wrapper@VStripPtR@@@0@0@Z
	??$swap@VInterPtType@@X@std@@YAXAEAVInterPtType@@0@Z
	??$swap@VPoint@@X@std@@YAXAEAVPoint@@0@Z
	??$swap@VStripPtL3@@X@std@@YAXAEAVStripPtL3@@0@Z
	??$swap@VStripPtR@@X@std@@YAXAEAVStripPtR@@0@Z
	??$tie@$$CBH$$CBH$$CBH@std@@YA?AV?$tuple@AEBHAEBHAEBH@0@AEBH00@Z
	??$tie@$$CBH$$CBH@std@@YA?AV?$tuple@AEBHAEBH@0@AEBH0@Z
	??$use_facet@V?$codecvt@DDU_Mbstatet@@@std@@@std@@YAAEBV?$codecvt@DDU_Mbstatet@@@0@AEBVlocale@0@@Z
	??0?$_Alloc_construct_ptr@V?$allocator@U?$_Tree_node@HPEAX@std@@@std@@@std@@QEAA@AEAV?$allocator@U?$_Tree_node@HPEAX@std@@@1@@Z
	??0?$_Alloc_construct_ptr@V?$allocator@U?$_Tree_node@U?$pair@$$CBHH@std@@PEAX@std@@@std@@@std@@QEAA@AEAV?$allocator@U?$_Tree_node@U?$pair@$$CBHH@std@@PEAX@std@@@1@@Z
	??0?$_Alloc_construct_ptr@V?$allocator@U?$_Tree_node@U?$pair@$$CBHV?$set@HU?$less@H@std@@V?$allocator@H@2@@std@@@std@@PEAX@std@@@std@@@std@@QEAA@AEAV?$allocator@U?$_Tree_node@U?$pair@$$CBHV?$set@HU?$less@H@std@@V?$allocator@H@2@@std@@@std@@PEAX@std@@@1@@Z
	??0?$_Alloc_construct_ptr@V?$allocator@U?$_Tree_node@U?$pair@$$CBHV?$vector@HV?$allocator@H@std@@@std@@@std@@PEAX@std@@@std@@@std@@QEAA@AEAV?$allocator@U?$_Tree_node@U?$pair@$$CBHV?$vector@HV?$allocator@H@std@@@std@@@std@@PEAX@std@@@1@@Z
	??0?$_Alloc_construct_ptr@V?$allocator@U?$_Tree_node@U?$pair@$$CBHV?$vector@V?$reference_wrapper@VStripPtR@@@std@@V?$allocator@V?$reference_wrapper@VStripPtR@@@std@@@2@@std@@@std@@PEAX@std@@@std@@@std@@QEAA@AEAV?$allocator@U?$_Tree_node@U?$pair@$$CBHV?$vector@V?$reference_wrapper@VStripPtR@@@std@@V?$allocator@V?$reference_wrapper@VStripPtR@@@std@@@2@@std@@@std@@PEAX@std@@@1@@Z
	??0?$_Alloc_construct_ptr@V?$allocator@U?$_Tree_node@U?$pair@$$CBHVPStrips@@@std@@PEAX@std@@@std@@@std@@QEAA@AEAV?$allocator@U?$_Tree_node@U?$pair@$$CBHVPStrips@@@std@@PEAX@std@@@1@@Z
	??0?$_Alloc_construct_ptr@V?$allocator@U?$_Tree_node@U?$pair@$$CBHVStripPt@@@std@@PEAX@std@@@std@@@std@@QEAA@AEAV?$allocator@U?$_Tree_node@U?$pair@$$CBHVStripPt@@@std@@PEAX@std@@@1@@Z
	??0?$_Alloc_construct_ptr@V?$allocator@U?$_Tree_node@U?$pair@$$CBHW4Rel@@@std@@PEAX@std@@@std@@@std@@QEAA@AEAV?$allocator@U?$_Tree_node@U?$pair@$$CBHW4Rel@@@std@@PEAX@std@@@1@@Z
	??0?$_Alloc_construct_ptr@V?$allocator@U?$_Tree_node@U?$pair@$$CBVPair@@V?$map@HHU?$less@H@std@@V?$allocator@U?$pair@$$CBHH@std@@@2@@std@@@std@@PEAX@std@@@std@@@std@@QEAA@AEAV?$allocator@U?$_Tree_node@U?$pair@$$CBVPair@@V?$map@HHU?$less@H@std@@V?$allocator@U?$pair@$$CBHH@std@@@2@@std@@@std@@PEAX@std@@@1@@Z
	??0?$_Alloc_construct_ptr@V?$allocator@U?$_Tree_node@V?$reference_wrapper@VStripPt@@@std@@PEAX@std@@@std@@@std@@QEAA@AEAV?$allocator@U?$_Tree_node@V?$reference_wrapper@VStripPt@@@std@@PEAX@std@@@1@@Z
	??0?$_Alloc_construct_ptr@V?$allocator@U?$_Tree_node@VPair@@PEAX@std@@@std@@@std@@QEAA@AEAV?$allocator@U?$_Tree_node@VPair@@PEAX@std@@@1@@Z
	??0?$_Alloc_construct_ptr@V?$allocator@U?$_Tree_node@VStripPtL3@@PEAX@std@@@std@@@std@@QEAA@AEAV?$allocator@U?$_Tree_node@VStripPtL3@@PEAX@std@@@1@@Z
	??0?$_Alloc_construct_ptr@V?$allocator@U?$_Tree_node@VStripPtL@@PEAX@std@@@std@@@std@@QEAA@AEAV?$allocator@U?$_Tree_node@VStripPtL@@PEAX@std@@@1@@Z
	??0?$_Container_proxy_ptr12@V?$allocator@U_Container_proxy@std@@@std@@@std@@QEAA@AEAV?$allocator@U_Container_proxy@std@@@1@AEAU_Container_base12@1@@Z
	??0?$_Deque_const_iterator@V?$_Deque_val@U?$_Deque_simple_types@H@std@@@std@@@std@@QEAA@$$QEAV01@@Z
	??0?$_Deque_const_iterator@V?$_Deque_val@U?$_Deque_simple_types@H@std@@@std@@@std@@QEAA@AEBV01@@Z
	??0?$_Deque_const_iterator@V?$_Deque_val@U?$_Deque_simple_types@H@std@@@std@@@std@@QEAA@XZ
	??0?$_Deque_const_iterator@V?$_Deque_val@U?$_Deque_simple_types@H@std@@@std@@@std@@QEAA@_KPEBU_Container_base12@1@@Z
	??0?$_Deque_const_iterator@V?$_Deque_val@U?$_Deque_simple_types@V?$vector@HV?$allocator@H@std@@@std@@@std@@@std@@@std@@QEAA@XZ
	??0?$_Deque_const_iterator@V?$_Deque_val@U?$_Deque_simple_types@V?$vector@HV?$allocator@H@std@@@std@@@std@@@std@@@std@@QEAA@_KPEBU_Container_base12@1@@Z
	??0?$_Deque_const_iterator@V?$_Deque_val@U?$_Deque_simple_types@VStripPtR@@@std@@@std@@@std@@QEAA@$$QEAV01@@Z
	??0?$_Deque_const_iterator@V?$_Deque_val@U?$_Deque_simple_types@VStripPtR@@@std@@@std@@@std@@QEAA@AEBV01@@Z
	??0?$_Deque_const_iterator@V?$_Deque_val@U?$_Deque_simple_types@VStripPtR@@@std@@@std@@@std@@QEAA@XZ
	??0?$_Deque_const_iterator@V?$_Deque_val@U?$_Deque_simple_types@VStripPtR@@@std@@@std@@@std@@QEAA@_KPEBU_Container_base12@1@@Z
	??0?$_Deque_iterator@V?$_Deque_val@U?$_Deque_simple_types@H@std@@@std@@@std@@QEAA@$$QEAV01@@Z
	??0?$_Deque_iterator@V?$_Deque_val@U?$_Deque_simple_types@H@std@@@std@@@std@@QEAA@AEBV01@@Z
	??0?$_Deque_iterator@V?$_Deque_val@U?$_Deque_simple_types@H@std@@@std@@@std@@QEAA@XZ
	??0?$_Deque_iterator@V?$_Deque_val@U?$_Deque_simple_types@H@std@@@std@@@std@@QEAA@_KPEBU_Container_base12@1@@Z
	??0?$_Deque_iterator@V?$_Deque_val@U?$_Deque_simple_types@V?$vector@HV?$allocator@H@std@@@std@@@std@@@std@@@std@@QEAA@XZ
	??0?$_Deque_iterator@V?$_Deque_val@U?$_Deque_simple_types@V?$vector@HV?$allocator@H@std@@@std@@@std@@@std@@@std@@QEAA@_KPEBU_Container_base12@1@@Z
	??0?$_Deque_iterator@V?$_Deque_val@U?$_Deque_simple_types@VStripPtR@@@std@@@std@@@std@@QEAA@$$QEAV01@@Z
	??0?$_Deque_iterator@V?$_Deque_val@U?$_Deque_simple_types@VStripPtR@@@std@@@std@@@std@@QEAA@AEBV01@@Z
	??0?$_Deque_iterator@V?$_Deque_val@U?$_Deque_simple_types@VStripPtR@@@std@@@std@@@std@@QEAA@XZ
	??0?$_Deque_iterator@V?$_Deque_val@U?$_Deque_simple_types@VStripPtR@@@std@@@std@@@std@@QEAA@_KPEBU_Container_base12@1@@Z
	??0?$_Deque_unchecked_const_iterator@V?$_Deque_val@U?$_Deque_simple_types@H@std@@@std@@@std@@QEAA@_KPEBU_Container_base12@1@@Z
	??0?$_Deque_unchecked_const_iterator@V?$_Deque_val@U?$_Deque_simple_types@V?$vector@HV?$allocator@H@std@@@std@@@std@@@std@@@std@@QEAA@_KPEBU_Container_base12@1@@Z
	??0?$_Deque_unchecked_const_iterator@V?$_Deque_val@U?$_Deque_simple_types@VStripPtR@@@std@@@std@@@std@@QEAA@_KPEBU_Container_base12@1@@Z
	??0?$_Deque_unchecked_iterator@V?$_Deque_val@U?$_Deque_simple_types@H@std@@@std@@@std@@QEAA@_KPEBU_Container_base12@1@@Z
	??0?$_Deque_unchecked_iterator@V?$_Deque_val@U?$_Deque_simple_types@V?$vector@HV?$allocator@H@std@@@std@@@std@@@std@@@std@@QEAA@_KPEBU_Container_base12@1@@Z
	??0?$_Deque_unchecked_iterator@V?$_Deque_val@U?$_Deque_simple_types@VStripPtR@@@std@@@std@@@std@@QEAA@_KPEBU_Container_base12@1@@Z
	??0?$_Deque_val@U?$_Deque_simple_types@H@std@@@std@@QEAA@XZ
	??0?$_Deque_val@U?$_Deque_simple_types@V?$vector@HV?$allocator@H@std@@@std@@@std@@@std@@QEAA@XZ
	??0?$_Deque_val@U?$_Deque_simple_types@VStripPtR@@@std@@@std@@QEAA@XZ
	??0?$_Ptr_base@VBB@@@std@@IEAA@XZ
	??0?$_Ptr_base@VLine@@@std@@IEAA@XZ
	??0?$_Ptr_base@VObj@@@std@@IEAA@XZ
	??0?$_Ref_count@VLine@@@std@@QEAA@PEAVLine@@@Z
	??0?$_String_val@U?$_Simple_types@D@std@@@std@@QEAA@XZ
	??0?$_Temporary_owner@VLine@@@std@@QEAA@QEAVLine@@@Z
	??0?$_Tree@V?$_Tmap_traits@HHU?$less@H@std@@V?$allocator@U?$pair@$$CBHH@std@@@2@$0A@@std@@@std@@QEAA@AEBU?$less@H@1@@Z
	??0?$_Tree@V?$_Tmap_traits@HV?$set@HU?$less@H@std@@V?$allocator@H@2@@std@@U?$less@H@2@V?$allocator@U?$pair@$$CBHV?$set@HU?$less@H@std@@V?$allocator@H@2@@std@@@std@@@2@$0A@@std@@@std@@QEAA@AEBU?$less@H@1@@Z
	??0?$_Tree@V?$_Tmap_traits@HV?$vector@HV?$allocator@H@std@@@std@@U?$less@H@2@V?$allocator@U?$pair@$$CBHV?$vector@HV?$allocator@H@std@@@std@@@std@@@2@$0A@@std@@@std@@QEAA@AEBU?$less@H@1@@Z
	??0?$_Tree@V?$_Tmap_traits@HV?$vector@V?$reference_wrapper@VStripPtR@@@std@@V?$allocator@V?$reference_wrapper@VStripPtR@@@std@@@2@@std@@U?$less@H@2@V?$allocator@U?$pair@$$CBHV?$vector@V?$reference_wrapper@VStripPtR@@@std@@V?$allocator@V?$reference_wrapper@VStripPtR@@@std@@@2@@std@@@std@@@2@$0A@@std@@@std@@QEAA@AEBU?$less@H@1@@Z
	??0?$_Tree@V?$_Tmap_traits@HVPStrips@@U?$less@H@std@@V?$allocator@U?$pair@$$CBHVPStrips@@@std@@@3@$0A@@std@@@std@@QEAA@AEBU?$less@H@1@@Z
	??0?$_Tree@V?$_Tmap_traits@HVStripPt@@U?$less@H@std@@V?$allocator@U?$pair@$$CBHVStripPt@@@std@@@3@$0A@@std@@@std@@QEAA@AEBU?$less@H@1@@Z
	??0?$_Tree@V?$_Tmap_traits@HW4Rel@@U?$less@H@std@@V?$allocator@U?$pair@$$CBHW4Rel@@@std@@@3@$0A@@std@@@std@@QEAA@AEBU?$less@H@1@@Z
	??0?$_Tree@V?$_Tmap_traits@VPair@@V?$map@HHU?$less@H@std@@V?$allocator@U?$pair@$$CBHH@std@@@2@@std@@U?$less@VPair@@@3@V?$allocator@U?$pair@$$CBVPair@@V?$map@HHU?$less@H@std@@V?$allocator@U?$pair@$$CBHH@std@@@2@@std@@@std@@@3@$0A@@std@@@std@@QEAA@AEBU?$less@VPair@@@1@@Z
	??0?$_Tree@V?$_Tset_traits@HU?$less@H@std@@V?$allocator@H@2@$0A@@std@@@std@@QEAA@AEBU?$less@H@1@@Z
	??0?$_Tree@V?$_Tset_traits@VPair@@U?$less@VPair@@@std@@V?$allocator@VPair@@@3@$0A@@std@@@std@@QEAA@AEBU?$less@VPair@@@1@@Z
	??0?$_Tree@V?$_Tset_traits@VStripPtL@@U?$less@VStripPtL@@@std@@V?$allocator@VStripPtL@@@3@$0A@@std@@@std@@QEAA@AEBU?$less@VStripPtL@@@1@@Z
	??0?$_Tree_const_iterator@V?$_Tree_val@U?$_Tree_simple_types@H@std@@@std@@@std@@QEAA@$$QEAV01@@Z
	??0?$_Tree_const_iterator@V?$_Tree_val@U?$_Tree_simple_types@H@std@@@std@@@std@@QEAA@PEAU?$_Tree_node@HPEAX@1@PEBV?$_Tree_val@U?$_Tree_simple_types@H@std@@@1@@Z
	??0?$_Tree_const_iterator@V?$_Tree_val@U?$_Tree_simple_types@U?$pair@$$CBHH@std@@@std@@@std@@@std@@QEAA@$$QEAV01@@Z
	??0?$_Tree_const_iterator@V?$_Tree_val@U?$_Tree_simple_types@U?$pair@$$CBHH@std@@@std@@@std@@@std@@QEAA@AEBV01@@Z
	??0?$_Tree_const_iterator@V?$_Tree_val@U?$_Tree_simple_types@U?$pair@$$CBHH@std@@@std@@@std@@@std@@QEAA@PEAU?$_Tree_node@U?$pair@$$CBHH@std@@PEAX@1@PEBV?$_Tree_val@U?$_Tree_simple_types@U?$pair@$$CBHH@std@@@std@@@1@@Z
	??0?$_Tree_const_iterator@V?$_Tree_val@U?$_Tree_simple_types@U?$pair@$$CBHH@std@@@std@@@std@@@std@@QEAA@XZ
	??0?$_Tree_const_iterator@V?$_Tree_val@U?$_Tree_simple_types@U?$pair@$$CBHV?$set@HU?$less@H@std@@V?$allocator@H@2@@std@@@std@@@std@@@std@@@std@@QEAA@PEAU?$_Tree_node@U?$pair@$$CBHV?$set@HU?$less@H@std@@V?$allocator@H@2@@std@@@std@@PEAX@1@PEBV?$_Tree_val@U?$_Tree_simple_types@U?$pair@$$CBHV?$set@HU?$less@H@std@@V?$allocator@H@2@@std@@@std@@@std@@@1@@Z
	??0?$_Tree_const_iterator@V?$_Tree_val@U?$_Tree_simple_types@U?$pair@$$CBHV?$set@HU?$less@H@std@@V?$allocator@H@2@@std@@@std@@@std@@@std@@@std@@QEAA@XZ
	??0?$_Tree_const_iterator@V?$_Tree_val@U?$_Tree_simple_types@U?$pair@$$CBHV?$vector@HV?$allocator@H@std@@@std@@@std@@@std@@@std@@@std@@QEAA@PEAU?$_Tree_node@U?$pair@$$CBHV?$vector@HV?$allocator@H@std@@@std@@@std@@PEAX@1@PEBV?$_Tree_val@U?$_Tree_simple_types@U?$pair@$$CBHV?$vector@HV?$allocator@H@std@@@std@@@std@@@std@@@1@@Z
	??0?$_Tree_const_iterator@V?$_Tree_val@U?$_Tree_simple_types@U?$pair@$$CBHV?$vector@HV?$allocator@H@std@@@std@@@std@@@std@@@std@@@std@@QEAA@XZ
	??0?$_Tree_const_iterator@V?$_Tree_val@U?$_Tree_simple_types@U?$pair@$$CBHV?$vector@V?$reference_wrapper@VStripPtR@@@std@@V?$allocator@V?$reference_wrapper@VStripPtR@@@std@@@2@@std@@@std@@@std@@@std@@@std@@QEAA@PEAU?$_Tree_node@U?$pair@$$CBHV?$vector@V?$reference_wrapper@VStripPtR@@@std@@V?$allocator@V?$reference_wrapper@VStripPtR@@@std@@@2@@std@@@std@@PEAX@1@PEBV?$_Tree_val@U?$_Tree_simple_types@U?$pair@$$CBHV?$vector@V?$reference_wrapper@VStripPtR@@@std@@V?$allocator@V?$reference_wrapper@VStripPtR@@@std@@@2@@std@@@std@@@std@@@1@@Z
	??0?$_Tree_const_iterator@V?$_Tree_val@U?$_Tree_simple_types@U?$pair@$$CBHV?$vector@V?$reference_wrapper@VStripPtR@@@std@@V?$allocator@V?$reference_wrapper@VStripPtR@@@std@@@2@@std@@@std@@@std@@@std@@@std@@QEAA@XZ
	??0?$_Tree_const_iterator@V?$_Tree_val@U?$_Tree_simple_types@U?$pair@$$CBHVPStrips@@@std@@@std@@@std@@@std@@QEAA@PEAU?$_Tree_node@U?$pair@$$CBHVPStrips@@@std@@PEAX@1@PEBV?$_Tree_val@U?$_Tree_simple_types@U?$pair@$$CBHVPStrips@@@std@@@std@@@1@@Z
	??0?$_Tree_const_iterator@V?$_Tree_val@U?$_Tree_simple_types@U?$pair@$$CBHVPStrips@@@std@@@std@@@std@@@std@@QEAA@XZ
	??0?$_Tree_const_iterator@V?$_Tree_val@U?$_Tree_simple_types@U?$pair@$$CBHVStripPt@@@std@@@std@@@std@@@std@@QEAA@PEAU?$_Tree_node@U?$pair@$$CBHVStripPt@@@std@@PEAX@1@PEBV?$_Tree_val@U?$_Tree_simple_types@U?$pair@$$CBHVStripPt@@@std@@@std@@@1@@Z
	??0?$_Tree_const_iterator@V?$_Tree_val@U?$_Tree_simple_types@U?$pair@$$CBHVStripPt@@@std@@@std@@@std@@@std@@QEAA@XZ
	??0?$_Tree_const_iterator@V?$_Tree_val@U?$_Tree_simple_types@U?$pair@$$CBHW4Rel@@@std@@@std@@@std@@@std@@QEAA@PEAU?$_Tree_node@U?$pair@$$CBHW4Rel@@@std@@PEAX@1@PEBV?$_Tree_val@U?$_Tree_simple_types@U?$pair@$$CBHW4Rel@@@std@@@std@@@1@@Z
	??0?$_Tree_const_iterator@V?$_Tree_val@U?$_Tree_simple_types@U?$pair@$$CBHW4Rel@@@std@@@std@@@std@@@std@@QEAA@XZ
	??0?$_Tree_const_iterator@V?$_Tree_val@U?$_Tree_simple_types@U?$pair@$$CBVPair@@V?$map@HHU?$less@H@std@@V?$allocator@U?$pair@$$CBHH@std@@@2@@std@@@std@@@std@@@std@@@std@@QEAA@PEAU?$_Tree_node@U?$pair@$$CBVPair@@V?$map@HHU?$less@H@std@@V?$allocator@U?$pair@$$CBHH@std@@@2@@std@@@std@@PEAX@1@PEBV?$_Tree_val@U?$_Tree_simple_types@U?$pair@$$CBVPair@@V?$map@HHU?$less@H@std@@V?$allocator@U?$pair@$$CBHH@std@@@2@@std@@@std@@@std@@@1@@Z
	??0?$_Tree_const_iterator@V?$_Tree_val@U?$_Tree_simple_types@U?$pair@$$CBVPair@@V?$map@HHU?$less@H@std@@V?$allocator@U?$pair@$$CBHH@std@@@2@@std@@@std@@@std@@@std@@@std@@QEAA@XZ
	??0?$_Tree_const_iterator@V?$_Tree_val@U?$_Tree_simple_types@V?$reference_wrapper@VStripPt@@@std@@@std@@@std@@@std@@QEAA@$$QEAV01@@Z
	??0?$_Tree_const_iterator@V?$_Tree_val@U?$_Tree_simple_types@V?$reference_wrapper@VStripPt@@@std@@@std@@@std@@@std@@QEAA@PEAU?$_Tree_node@V?$reference_wrapper@VStripPt@@@std@@PEAX@1@PEBV?$_Tree_val@U?$_Tree_simple_types@V?$reference_wrapper@VStripPt@@@std@@@std@@@1@@Z
	??0?$_Tree_const_iterator@V?$_Tree_val@U?$_Tree_simple_types@VPair@@@std@@@std@@@std@@QEAA@$$QEAV01@@Z
	??0?$_Tree_const_iterator@V?$_Tree_val@U?$_Tree_simple_types@VPair@@@std@@@std@@@std@@QEAA@PEAU?$_Tree_node@VPair@@PEAX@1@PEBV?$_Tree_val@U?$_Tree_simple_types@VPair@@@std@@@1@@Z
	??0?$_Tree_const_iterator@V?$_Tree_val@U?$_Tree_simple_types@VStripPtL3@@@std@@@std@@@std@@QEAA@$$QEAV01@@Z
	??0?$_Tree_const_iterator@V?$_Tree_val@U?$_Tree_simple_types@VStripPtL3@@@std@@@std@@@std@@QEAA@PEAU?$_Tree_node@VStripPtL3@@PEAX@1@PEBV?$_Tree_val@U?$_Tree_simple_types@VStripPtL3@@@std@@@1@@Z
	??0?$_Tree_const_iterator@V?$_Tree_val@U?$_Tree_simple_types@VStripPtL@@@std@@@std@@@std@@QEAA@$$QEAV01@@Z
	??0?$_Tree_const_iterator@V?$_Tree_val@U?$_Tree_simple_types@VStripPtL@@@std@@@std@@@std@@QEAA@PEAU?$_Tree_node@VStripPtL@@PEAX@1@PEBV?$_Tree_val@U?$_Tree_simple_types@VStripPtL@@@std@@@1@@Z
	??0?$_Tree_const_iterator@V?$_Tree_val@U?$_Tree_simple_types@VStripPtL@@@std@@@std@@@std@@QEAA@XZ
	??0?$_Tree_head_scoped_ptr@V?$allocator@U?$_Tree_node@U?$pair@$$CBHVStripPt@@@std@@PEAX@std@@@std@@V?$_Tree_val@U?$_Tree_simple_types@U?$pair@$$CBHVStripPt@@@std@@@std@@@2@@std@@QEAA@AEAV?$allocator@U?$_Tree_node@U?$pair@$$CBHVStripPt@@@std@@PEAX@std@@@1@AEAV?$_Tree_val@U?$_Tree_simple_types@U?$pair@$$CBHVStripPt@@@std@@@std@@@1@@Z
	??0?$_Tree_iterator@V?$_Tree_val@U?$_Tree_simple_types@U?$pair@$$CBHH@std@@@std@@@std@@@std@@QEAA@PEAU?$_Tree_node@U?$pair@$$CBHH@std@@PEAX@1@PEBV?$_Tree_val@U?$_Tree_simple_types@U?$pair@$$CBHH@std@@@std@@@1@@Z
	??0?$_Tree_iterator@V?$_Tree_val@U?$_Tree_simple_types@U?$pair@$$CBHH@std@@@std@@@std@@@std@@QEAA@XZ
	??0?$_Tree_iterator@V?$_Tree_val@U?$_Tree_simple_types@U?$pair@$$CBHV?$set@HU?$less@H@std@@V?$allocator@H@2@@std@@@std@@@std@@@std@@@std@@QEAA@PEAU?$_Tree_node@U?$pair@$$CBHV?$set@HU?$less@H@std@@V?$allocator@H@2@@std@@@std@@PEAX@1@PEBV?$_Tree_val@U?$_Tree_simple_types@U?$pair@$$CBHV?$set@HU?$less@H@std@@V?$allocator@H@2@@std@@@std@@@std@@@1@@Z
	??0?$_Tree_iterator@V?$_Tree_val@U?$_Tree_simple_types@U?$pair@$$CBHV?$set@HU?$less@H@std@@V?$allocator@H@2@@std@@@std@@@std@@@std@@@std@@QEAA@XZ
	??0?$_Tree_iterator@V?$_Tree_val@U?$_Tree_simple_types@U?$pair@$$CBHV?$vector@HV?$allocator@H@std@@@std@@@std@@@std@@@std@@@std@@QEAA@PEAU?$_Tree_node@U?$pair@$$CBHV?$vector@HV?$allocator@H@std@@@std@@@std@@PEAX@1@PEBV?$_Tree_val@U?$_Tree_simple_types@U?$pair@$$CBHV?$vector@HV?$allocator@H@std@@@std@@@std@@@std@@@1@@Z
	??0?$_Tree_iterator@V?$_Tree_val@U?$_Tree_simple_types@U?$pair@$$CBHV?$vector@HV?$allocator@H@std@@@std@@@std@@@std@@@std@@@std@@QEAA@XZ
	??0?$_Tree_iterator@V?$_Tree_val@U?$_Tree_simple_types@U?$pair@$$CBHV?$vector@V?$reference_wrapper@VStripPtR@@@std@@V?$allocator@V?$reference_wrapper@VStripPtR@@@std@@@2@@std@@@std@@@std@@@std@@@std@@QEAA@PEAU?$_Tree_node@U?$pair@$$CBHV?$vector@V?$reference_wrapper@VStripPtR@@@std@@V?$allocator@V?$reference_wrapper@VStripPtR@@@std@@@2@@std@@@std@@PEAX@1@PEBV?$_Tree_val@U?$_Tree_simple_types@U?$pair@$$CBHV?$vector@V?$reference_wrapper@VStripPtR@@@std@@V?$allocator@V?$reference_wrapper@VStripPtR@@@std@@@2@@std@@@std@@@std@@@1@@Z
	??0?$_Tree_iterator@V?$_Tree_val@U?$_Tree_simple_types@U?$pair@$$CBHV?$vector@V?$reference_wrapper@VStripPtR@@@std@@V?$allocator@V?$reference_wrapper@VStripPtR@@@std@@@2@@std@@@std@@@std@@@std@@@std@@QEAA@XZ
	??0?$_Tree_iterator@V?$_Tree_val@U?$_Tree_simple_types@U?$pair@$$CBHVPStrips@@@std@@@std@@@std@@@std@@QEAA@PEAU?$_Tree_node@U?$pair@$$CBHVPStrips@@@std@@PEAX@1@PEBV?$_Tree_val@U?$_Tree_simple_types@U?$pair@$$CBHVPStrips@@@std@@@std@@@1@@Z
	??0?$_Tree_iterator@V?$_Tree_val@U?$_Tree_simple_types@U?$pair@$$CBHVPStrips@@@std@@@std@@@std@@@std@@QEAA@XZ
	??0?$_Tree_iterator@V?$_Tree_val@U?$_Tree_simple_types@U?$pair@$$CBHVStripPt@@@std@@@std@@@std@@@std@@QEAA@PEAU?$_Tree_node@U?$pair@$$CBHVStripPt@@@std@@PEAX@1@PEBV?$_Tree_val@U?$_Tree_simple_types@U?$pair@$$CBHVStripPt@@@std@@@std@@@1@@Z
	??0?$_Tree_iterator@V?$_Tree_val@U?$_Tree_simple_types@U?$pair@$$CBHVStripPt@@@std@@@std@@@std@@@std@@QEAA@XZ
	??0?$_Tree_iterator@V?$_Tree_val@U?$_Tree_simple_types@U?$pair@$$CBHW4Rel@@@std@@@std@@@std@@@std@@QEAA@PEAU?$_Tree_node@U?$pair@$$CBHW4Rel@@@std@@PEAX@1@PEBV?$_Tree_val@U?$_Tree_simple_types@U?$pair@$$CBHW4Rel@@@std@@@std@@@1@@Z
	??0?$_Tree_iterator@V?$_Tree_val@U?$_Tree_simple_types@U?$pair@$$CBVPair@@V?$map@HHU?$less@H@std@@V?$allocator@U?$pair@$$CBHH@std@@@2@@std@@@std@@@std@@@std@@@std@@QEAA@PEAU?$_Tree_node@U?$pair@$$CBVPair@@V?$map@HHU?$less@H@std@@V?$allocator@U?$pair@$$CBHH@std@@@2@@std@@@std@@PEAX@1@PEBV?$_Tree_val@U?$_Tree_simple_types@U?$pair@$$CBVPair@@V?$map@HHU?$less@H@std@@V?$allocator@U?$pair@$$CBHH@std@@@2@@std@@@std@@@std@@@1@@Z
	??0?$_Tree_iterator@V?$_Tree_val@U?$_Tree_simple_types@U?$pair@$$CBVPair@@V?$map@HHU?$less@H@std@@V?$allocator@U?$pair@$$CBHH@std@@@2@@std@@@std@@@std@@@std@@@std@@QEAA@XZ
	??0?$_Tree_temp_node_alloc@V?$allocator@U?$_Tree_node@HPEAX@std@@@std@@@std@@QEAA@AEAV?$allocator@U?$_Tree_node@HPEAX@std@@@1@@Z
	??0?$_Tree_temp_node_alloc@V?$allocator@U?$_Tree_node@U?$pair@$$CBHH@std@@PEAX@std@@@std@@@std@@QEAA@AEAV?$allocator@U?$_Tree_node@U?$pair@$$CBHH@std@@PEAX@std@@@1@@Z
	??0?$_Tree_temp_node_alloc@V?$allocator@U?$_Tree_node@U?$pair@$$CBHV?$set@HU?$less@H@std@@V?$allocator@H@2@@std@@@std@@PEAX@std@@@std@@@std@@QEAA@AEAV?$allocator@U?$_Tree_node@U?$pair@$$CBHV?$set@HU?$less@H@std@@V?$allocator@H@2@@std@@@std@@PEAX@std@@@1@@Z
	??0?$_Tree_temp_node_alloc@V?$allocator@U?$_Tree_node@U?$pair@$$CBHV?$vector@HV?$allocator@H@std@@@std@@@std@@PEAX@std@@@std@@@std@@QEAA@AEAV?$allocator@U?$_Tree_node@U?$pair@$$CBHV?$vector@HV?$allocator@H@std@@@std@@@std@@PEAX@std@@@1@@Z
	??0?$_Tree_temp_node_alloc@V?$allocator@U?$_Tree_node@U?$pair@$$CBHV?$vector@V?$reference_wrapper@VStripPtR@@@std@@V?$allocator@V?$reference_wrapper@VStripPtR@@@std@@@2@@std@@@std@@PEAX@std@@@std@@@std@@QEAA@AEAV?$allocator@U?$_Tree_node@U?$pair@$$CBHV?$vector@V?$reference_wrapper@VStripPtR@@@std@@V?$allocator@V?$reference_wrapper@VStripPtR@@@std@@@2@@std@@@std@@PEAX@std@@@1@@Z
	??0?$_Tree_temp_node_alloc@V?$allocator@U?$_Tree_node@U?$pair@$$CBHVPStrips@@@std@@PEAX@std@@@std@@@std@@QEAA@AEAV?$allocator@U?$_Tree_node@U?$pair@$$CBHVPStrips@@@std@@PEAX@std@@@1@@Z
	??0?$_Tree_temp_node_alloc@V?$allocator@U?$_Tree_node@U?$pair@$$CBHVStripPt@@@std@@PEAX@std@@@std@@@std@@QEAA@AEAV?$allocator@U?$_Tree_node@U?$pair@$$CBHVStripPt@@@std@@PEAX@std@@@1@@Z
	??0?$_Tree_temp_node_alloc@V?$allocator@U?$_Tree_node@U?$pair@$$CBHW4Rel@@@std@@PEAX@std@@@std@@@std@@QEAA@AEAV?$allocator@U?$_Tree_node@U?$pair@$$CBHW4Rel@@@std@@PEAX@std@@@1@@Z
	??0?$_Tree_temp_node_alloc@V?$allocator@U?$_Tree_node@U?$pair@$$CBVPair@@V?$map@HHU?$less@H@std@@V?$allocator@U?$pair@$$CBHH@std@@@2@@std@@@std@@PEAX@std@@@std@@@std@@QEAA@AEAV?$allocator@U?$_Tree_node@U?$pair@$$CBVPair@@V?$map@HHU?$less@H@std@@V?$allocator@U?$pair@$$CBHH@std@@@2@@std@@@std@@PEAX@std@@@1@@Z
	??0?$_Tree_temp_node_alloc@V?$allocator@U?$_Tree_node@V?$reference_wrapper@VStripPt@@@std@@PEAX@std@@@std@@@std@@QEAA@AEAV?$allocator@U?$_Tree_node@V?$reference_wrapper@VStripPt@@@std@@PEAX@std@@@1@@Z
	??0?$_Tree_temp_node_alloc@V?$allocator@U?$_Tree_node@VPair@@PEAX@std@@@std@@@std@@QEAA@AEAV?$allocator@U?$_Tree_node@VPair@@PEAX@std@@@1@@Z
	??0?$_Tree_temp_node_alloc@V?$allocator@U?$_Tree_node@VStripPtL3@@PEAX@std@@@std@@@std@@QEAA@AEAV?$allocator@U?$_Tree_node@VStripPtL3@@PEAX@std@@@1@@Z
	??0?$_Tree_temp_node_alloc@V?$allocator@U?$_Tree_node@VStripPtL@@PEAX@std@@@std@@@std@@QEAA@AEAV?$allocator@U?$_Tree_node@VStripPtL@@PEAX@std@@@1@@Z
	??0?$_Tree_unchecked_const_iterator@V?$_Tree_val@U?$_Tree_simple_types@H@std@@@std@@U_Iterator_base0@2@@std@@QEAA@PEAU?$_Tree_node@HPEAX@1@PEBV?$_Tree_val@U?$_Tree_simple_types@H@std@@@1@@Z
	??0?$_Tree_unchecked_const_iterator@V?$_Tree_val@U?$_Tree_simple_types@H@std@@@std@@U_Iterator_base12@2@@std@@QEAA@$$QEAV01@@Z
	??0?$_Tree_unchecked_const_iterator@V?$_Tree_val@U?$_Tree_simple_types@H@std@@@std@@U_Iterator_base12@2@@std@@QEAA@PEAU?$_Tree_node@HPEAX@1@PEBV?$_Tree_val@U?$_Tree_simple_types@H@std@@@1@@Z
	??0?$_Tree_unchecked_const_iterator@V?$_Tree_val@U?$_Tree_simple_types@U?$pair@$$CBHH@std@@@std@@@std@@U_Iterator_base12@2@@std@@QEAA@$$QEAV01@@Z
	??0?$_Tree_unchecked_const_iterator@V?$_Tree_val@U?$_Tree_simple_types@U?$pair@$$CBHH@std@@@std@@@std@@U_Iterator_base12@2@@std@@QEAA@AEBV01@@Z
	??0?$_Tree_unchecked_const_iterator@V?$_Tree_val@U?$_Tree_simple_types@U?$pair@$$CBHH@std@@@std@@@std@@U_Iterator_base12@2@@std@@QEAA@PEAU?$_Tree_node@U?$pair@$$CBHH@std@@PEAX@1@PEBV?$_Tree_val@U?$_Tree_simple_types@U?$pair@$$CBHH@std@@@std@@@1@@Z
	??0?$_Tree_unchecked_const_iterator@V?$_Tree_val@U?$_Tree_simple_types@U?$pair@$$CBHH@std@@@std@@@std@@U_Iterator_base12@2@@std@@QEAA@XZ
	??0?$_Tree_unchecked_const_iterator@V?$_Tree_val@U?$_Tree_simple_types@U?$pair@$$CBHV?$set@HU?$less@H@std@@V?$allocator@H@2@@std@@@std@@@std@@@std@@U_Iterator_base12@2@@std@@QEAA@PEAU?$_Tree_node@U?$pair@$$CBHV?$set@HU?$less@H@std@@V?$allocator@H@2@@std@@@std@@PEAX@1@PEBV?$_Tree_val@U?$_Tree_simple_types@U?$pair@$$CBHV?$set@HU?$less@H@std@@V?$allocator@H@2@@std@@@std@@@std@@@1@@Z
	??0?$_Tree_unchecked_const_iterator@V?$_Tree_val@U?$_Tree_simple_types@U?$pair@$$CBHV?$set@HU?$less@H@std@@V?$allocator@H@2@@std@@@std@@@std@@@std@@U_Iterator_base12@2@@std@@QEAA@XZ
	??0?$_Tree_unchecked_const_iterator@V?$_Tree_val@U?$_Tree_simple_types@U?$pair@$$CBHV?$vector@HV?$allocator@H@std@@@std@@@std@@@std@@@std@@U_Iterator_base0@2@@std@@QEAA@PEAU?$_Tree_node@U?$pair@$$CBHV?$vector@HV?$allocator@H@std@@@std@@@std@@PEAX@1@PEBV?$_Tree_val@U?$_Tree_simple_types@U?$pair@$$CBHV?$vector@HV?$allocator@H@std@@@std@@@std@@@std@@@1@@Z
	??0?$_Tree_unchecked_const_iterator@V?$_Tree_val@U?$_Tree_simple_types@U?$pair@$$CBHV?$vector@HV?$allocator@H@std@@@std@@@std@@@std@@@std@@U_Iterator_base12@2@@std@@QEAA@PEAU?$_Tree_node@U?$pair@$$CBHV?$vector@HV?$allocator@H@std@@@std@@@std@@PEAX@1@PEBV?$_Tree_val@U?$_Tree_simple_types@U?$pair@$$CBHV?$vector@HV?$allocator@H@std@@@std@@@std@@@std@@@1@@Z
	??0?$_Tree_unchecked_const_iterator@V?$_Tree_val@U?$_Tree_simple_types@U?$pair@$$CBHV?$vector@HV?$allocator@H@std@@@std@@@std@@@std@@@std@@U_Iterator_base12@2@@std@@QEAA@XZ
	??0?$_Tree_unchecked_const_iterator@V?$_Tree_val@U?$_Tree_simple_types@U?$pair@$$CBHV?$vector@V?$reference_wrapper@VStripPtR@@@std@@V?$allocator@V?$reference_wrapper@VStripPtR@@@std@@@2@@std@@@std@@@std@@@std@@U_Iterator_base12@2@@std@@QEAA@PEAU?$_Tree_node@U?$pair@$$CBHV?$vector@V?$reference_wrapper@VStripPtR@@@std@@V?$allocator@V?$reference_wrapper@VStripPtR@@@std@@@2@@std@@@std@@PEAX@1@PEBV?$_Tree_val@U?$_Tree_simple_types@U?$pair@$$CBHV?$vector@V?$reference_wrapper@VStripPtR@@@std@@V?$allocator@V?$reference_wrapper@VStripPtR@@@std@@@2@@std@@@std@@@std@@@1@@Z
	??0?$_Tree_unchecked_const_iterator@V?$_Tree_val@U?$_Tree_simple_types@U?$pair@$$CBHV?$vector@V?$reference_wrapper@VStripPtR@@@std@@V?$allocator@V?$reference_wrapper@VStripPtR@@@std@@@2@@std@@@std@@@std@@@std@@U_Iterator_base12@2@@std@@QEAA@XZ
	??0?$_Tree_unchecked_const_iterator@V?$_Tree_val@U?$_Tree_simple_types@U?$pair@$$CBHVPStrips@@@std@@@std@@@std@@U_Iterator_base0@2@@std@@QEAA@PEAU?$_Tree_node@U?$pair@$$CBHVPStrips@@@std@@PEAX@1@PEBV?$_Tree_val@U?$_Tree_simple_types@U?$pair@$$CBHVPStrips@@@std@@@std@@@1@@Z
	??0?$_Tree_unchecked_const_iterator@V?$_Tree_val@U?$_Tree_simple_types@U?$pair@$$CBHVPStrips@@@std@@@std@@@std@@U_Iterator_base12@2@@std@@QEAA@PEAU?$_Tree_node@U?$pair@$$CBHVPStrips@@@std@@PEAX@1@PEBV?$_Tree_val@U?$_Tree_simple_types@U?$pair@$$CBHVPStrips@@@std@@@std@@@1@@Z
	??0?$_Tree_unchecked_const_iterator@V?$_Tree_val@U?$_Tree_simple_types@U?$pair@$$CBHVPStrips@@@std@@@std@@@std@@U_Iterator_base12@2@@std@@QEAA@XZ
	??0?$_Tree_unchecked_const_iterator@V?$_Tree_val@U?$_Tree_simple_types@U?$pair@$$CBHVStripPt@@@std@@@std@@@std@@U_Iterator_base0@2@@std@@QEAA@PEAU?$_Tree_node@U?$pair@$$CBHVStripPt@@@std@@PEAX@1@PEBV?$_Tree_val@U?$_Tree_simple_types@U?$pair@$$CBHVStripPt@@@std@@@std@@@1@@Z
	??0?$_Tree_unchecked_const_iterator@V?$_Tree_val@U?$_Tree_simple_types@U?$pair@$$CBHVStripPt@@@std@@@std@@@std@@U_Iterator_base12@2@@std@@QEAA@PEAU?$_Tree_node@U?$pair@$$CBHVStripPt@@@std@@PEAX@1@PEBV?$_Tree_val@U?$_Tree_simple_types@U?$pair@$$CBHVStripPt@@@std@@@std@@@1@@Z
	??0?$_Tree_unchecked_const_iterator@V?$_Tree_val@U?$_Tree_simple_types@U?$pair@$$CBHVStripPt@@@std@@@std@@@std@@U_Iterator_base12@2@@std@@QEAA@XZ
	??0?$_Tree_unchecked_const_iterator@V?$_Tree_val@U?$_Tree_simple_types@U?$pair@$$CBHW4Rel@@@std@@@std@@@std@@U_Iterator_base12@2@@std@@QEAA@PEAU?$_Tree_node@U?$pair@$$CBHW4Rel@@@std@@PEAX@1@PEBV?$_Tree_val@U?$_Tree_simple_types@U?$pair@$$CBHW4Rel@@@std@@@std@@@1@@Z
	??0?$_Tree_unchecked_const_iterator@V?$_Tree_val@U?$_Tree_simple_types@U?$pair@$$CBHW4Rel@@@std@@@std@@@std@@U_Iterator_base12@2@@std@@QEAA@XZ
	??0?$_Tree_unchecked_const_iterator@V?$_Tree_val@U?$_Tree_simple_types@U?$pair@$$CBVPair@@V?$map@HHU?$less@H@std@@V?$allocator@U?$pair@$$CBHH@std@@@2@@std@@@std@@@std@@@std@@U_Iterator_base12@2@@std@@QEAA@PEAU?$_Tree_node@U?$pair@$$CBVPair@@V?$map@HHU?$less@H@std@@V?$allocator@U?$pair@$$CBHH@std@@@2@@std@@@std@@PEAX@1@PEBV?$_Tree_val@U?$_Tree_simple_types@U?$pair@$$CBVPair@@V?$map@HHU?$less@H@std@@V?$allocator@U?$pair@$$CBHH@std@@@2@@std@@@std@@@std@@@1@@Z
	??0?$_Tree_unchecked_const_iterator@V?$_Tree_val@U?$_Tree_simple_types@U?$pair@$$CBVPair@@V?$map@HHU?$less@H@std@@V?$allocator@U?$pair@$$CBHH@std@@@2@@std@@@std@@@std@@@std@@U_Iterator_base12@2@@std@@QEAA@XZ
	??0?$_Tree_unchecked_const_iterator@V?$_Tree_val@U?$_Tree_simple_types@V?$reference_wrapper@VStripPt@@@std@@@std@@@std@@U_Iterator_base12@2@@std@@QEAA@$$QEAV01@@Z
	??0?$_Tree_unchecked_const_iterator@V?$_Tree_val@U?$_Tree_simple_types@V?$reference_wrapper@VStripPt@@@std@@@std@@@std@@U_Iterator_base12@2@@std@@QEAA@PEAU?$_Tree_node@V?$reference_wrapper@VStripPt@@@std@@PEAX@1@PEBV?$_Tree_val@U?$_Tree_simple_types@V?$reference_wrapper@VStripPt@@@std@@@std@@@1@@Z
	??0?$_Tree_unchecked_const_iterator@V?$_Tree_val@U?$_Tree_simple_types@VPair@@@std@@@std@@U_Iterator_base12@2@@std@@QEAA@$$QEAV01@@Z
	??0?$_Tree_unchecked_const_iterator@V?$_Tree_val@U?$_Tree_simple_types@VPair@@@std@@@std@@U_Iterator_base12@2@@std@@QEAA@PEAU?$_Tree_node@VPair@@PEAX@1@PEBV?$_Tree_val@U?$_Tree_simple_types@VPair@@@std@@@1@@Z
	??0?$_Tree_unchecked_const_iterator@V?$_Tree_val@U?$_Tree_simple_types@VStripPtL3@@@std@@@std@@U_Iterator_base0@2@@std@@QEAA@PEAU?$_Tree_node@VStripPtL3@@PEAX@1@PEBV?$_Tree_val@U?$_Tree_simple_types@VStripPtL3@@@std@@@1@@Z
	??0?$_Tree_unchecked_const_iterator@V?$_Tree_val@U?$_Tree_simple_types@VStripPtL3@@@std@@@std@@U_Iterator_base12@2@@std@@QEAA@$$QEAV01@@Z
	??0?$_Tree_unchecked_const_iterator@V?$_Tree_val@U?$_Tree_simple_types@VStripPtL3@@@std@@@std@@U_Iterator_base12@2@@std@@QEAA@PEAU?$_Tree_node@VStripPtL3@@PEAX@1@PEBV?$_Tree_val@U?$_Tree_simple_types@VStripPtL3@@@std@@@1@@Z
	??0?$_Tree_unchecked_const_iterator@V?$_Tree_val@U?$_Tree_simple_types@VStripPtL@@@std@@@std@@U_Iterator_base12@2@@std@@QEAA@$$QEAV01@@Z
	??0?$_Tree_unchecked_const_iterator@V?$_Tree_val@U?$_Tree_simple_types@VStripPtL@@@std@@@std@@U_Iterator_base12@2@@std@@QEAA@PEAU?$_Tree_node@VStripPtL@@PEAX@1@PEBV?$_Tree_val@U?$_Tree_simple_types@VStripPtL@@@std@@@1@@Z
	??0?$_Tree_unchecked_const_iterator@V?$_Tree_val@U?$_Tree_simple_types@VStripPtL@@@std@@@std@@U_Iterator_base12@2@@std@@QEAA@XZ
	??0?$_Tree_unchecked_iterator@V?$_Tree_val@U?$_Tree_simple_types@U?$pair@$$CBHV?$vector@HV?$allocator@H@std@@@std@@@std@@@std@@@std@@@std@@QEAA@PEAU?$_Tree_node@U?$pair@$$CBHV?$vector@HV?$allocator@H@std@@@std@@@std@@PEAX@1@PEBV?$_Tree_val@U?$_Tree_simple_types@U?$pair@$$CBHV?$vector@HV?$allocator@H@std@@@std@@@std@@@std@@@1@@Z
	??0?$_Tree_unchecked_iterator@V?$_Tree_val@U?$_Tree_simple_types@U?$pair@$$CBHVPStrips@@@std@@@std@@@std@@@std@@QEAA@PEAU?$_Tree_node@U?$pair@$$CBHVPStrips@@@std@@PEAX@1@PEBV?$_Tree_val@U?$_Tree_simple_types@U?$pair@$$CBHVPStrips@@@std@@@std@@@1@@Z
	??0?$_Tree_unchecked_iterator@V?$_Tree_val@U?$_Tree_simple_types@U?$pair@$$CBHVStripPt@@@std@@@std@@@std@@@std@@QEAA@PEAU?$_Tree_node@U?$pair@$$CBHVStripPt@@@std@@PEAX@1@PEBV?$_Tree_val@U?$_Tree_simple_types@U?$pair@$$CBHVStripPt@@@std@@@std@@@1@@Z
	??0?$_Tree_val@U?$_Tree_simple_types@H@std@@@std@@QEAA@XZ
	??0?$_Tree_val@U?$_Tree_simple_types@U?$pair@$$CBHH@std@@@std@@@std@@QEAA@XZ
	??0?$_Tree_val@U?$_Tree_simple_types@U?$pair@$$CBHV?$set@HU?$less@H@std@@V?$allocator@H@2@@std@@@std@@@std@@@std@@QEAA@XZ
	??0?$_Tree_val@U?$_Tree_simple_types@U?$pair@$$CBHV?$vector@HV?$allocator@H@std@@@std@@@std@@@std@@@std@@QEAA@XZ
	??0?$_Tree_val@U?$_Tree_simple_types@U?$pair@$$CBHV?$vector@V?$reference_wrapper@VStripPtR@@@std@@V?$allocator@V?$reference_wrapper@VStripPtR@@@std@@@2@@std@@@std@@@std@@@std@@QEAA@XZ
	??0?$_Tree_val@U?$_Tree_simple_types@U?$pair@$$CBHVPStrips@@@std@@@std@@@std@@QEAA@XZ
	??0?$_Tree_val@U?$_Tree_simple_types@U?$pair@$$CBHVStripPt@@@std@@@std@@@std@@QEAA@XZ
	??0?$_Tree_val@U?$_Tree_simple_types@U?$pair@$$CBHW4Rel@@@std@@@std@@@std@@QEAA@XZ
	??0?$_Tree_val@U?$_Tree_simple_types@U?$pair@$$CBVPair@@V?$map@HHU?$less@H@std@@V?$allocator@U?$pair@$$CBHH@std@@@2@@std@@@std@@@std@@@std@@QEAA@XZ
	??0?$_Tree_val@U?$_Tree_simple_types@V?$reference_wrapper@VStripPt@@@std@@@std@@@std@@QEAA@XZ
	??0?$_Tree_val@U?$_Tree_simple_types@VPair@@@std@@@std@@QEAA@XZ
	??0?$_Tree_val@U?$_Tree_simple_types@VStripPtL3@@@std@@@std@@QEAA@XZ
	??0?$_Tree_val@U?$_Tree_simple_types@VStripPtL@@@std@@@std@@QEAA@XZ
	??0?$_Uninitialized_backout_al@V?$allocator@U?$pair@VInterPtType@@V1@@std@@@std@@@std@@QEAA@PEAU?$pair@VInterPtType@@V1@@1@AEAV?$allocator@U?$pair@VInterPtType@@V1@@std@@@1@@Z
	??0?$_Uninitialized_backout_al@V?$allocator@V?$deque@VStripPtR@@V?$allocator@VStripPtR@@@std@@@std@@@std@@@std@@QEAA@PEAV?$deque@VStripPtR@@V?$allocator@VStripPtR@@@std@@@1@AEAV?$allocator@V?$deque@VStripPtR@@V?$allocator@VStripPtR@@@std@@@std@@@1@@Z
	??0?$_Uninitialized_backout_al@V?$allocator@V?$reference_wrapper@VStripPt@@@std@@@std@@@std@@QEAA@PEAV?$reference_wrapper@VStripPt@@@1@AEAV?$allocator@V?$reference_wrapper@VStripPt@@@std@@@1@@Z
	??0?$_Uninitialized_backout_al@V?$allocator@V?$reference_wrapper@VStripPtR@@@std@@@std@@@std@@QEAA@PEAV?$reference_wrapper@VStripPtR@@@1@AEAV?$allocator@V?$reference_wrapper@VStripPtR@@@std@@@1@@Z
	??0?$_Uninitialized_backout_al@V?$allocator@V?$shared_ptr@VLine@@@std@@@std@@@std@@QEAA@PEAV?$shared_ptr@VLine@@@1@AEAV?$allocator@V?$shared_ptr@VLine@@@std@@@1@@Z
	??0?$_Uninitialized_backout_al@V?$allocator@V?$shared_ptr@VObj@@@std@@@std@@@std@@QEAA@PEAV?$shared_ptr@VObj@@@1@AEAV?$allocator@V?$shared_ptr@VObj@@@std@@@1@@Z
	??0?$_Uninitialized_backout_al@V?$allocator@V?$vector@HV?$allocator@H@std@@@std@@@std@@@std@@QEAA@PEAV?$vector@HV?$allocator@H@std@@@1@AEAV?$allocator@V?$vector@HV?$allocator@H@std@@@std@@@1@@Z
	??0?$_Uninitialized_backout_al@V?$allocator@VInterPtType@@@std@@@std@@QEAA@PEAVInterPtType@@AEAV?$allocator@VInterPtType@@@1@@Z
	??0?$_Uninitialized_backout_al@V?$allocator@VMergePt@@@std@@@std@@QEAA@PEAVMergePt@@AEAV?$allocator@VMergePt@@@1@@Z
	??0?$_Uninitialized_backout_al@V?$allocator@VNode@@@std@@@std@@QEAA@PEAVNode@@AEAV?$allocator@VNode@@@1@@Z
	??0?$_Uninitialized_backout_al@V?$allocator@VPair@@@std@@@std@@QEAA@PEAVPair@@AEAV?$allocator@VPair@@@1@@Z
	??0?$_Uninitialized_backout_al@V?$allocator@VPoint@@@std@@@std@@QEAA@PEAVPoint@@AEAV?$allocator@VPoint@@@1@@Z
	??0?$_Uninitialized_backout_al@V?$allocator@VPolyAtEdge@@@std@@@std@@QEAA@PEAVPolyAtEdge@@AEAV?$allocator@VPolyAtEdge@@@1@@Z
	??0?$_Uninitialized_backout_al@V?$allocator@VStripPtL2@@@std@@@std@@QEAA@PEAVStripPtL2@@AEAV?$allocator@VStripPtL2@@@1@@Z
	??0?$_Uninitialized_backout_al@V?$allocator@VStripPtL3@@@std@@@std@@QEAA@PEAVStripPtL3@@AEAV?$allocator@VStripPtL3@@@1@@Z
	??0?$_Uninitialized_backout_al@V?$allocator@VStripPtL@@@std@@@std@@QEAA@PEAVStripPtL@@AEAV?$allocator@VStripPtL@@@1@@Z
	??0?$_Vector_const_iterator@V?$_Vector_val@U?$_Simple_types@H@std@@@std@@@std@@QEAA@$$QEAV01@@Z
	??0?$_Vector_const_iterator@V?$_Vector_val@U?$_Simple_types@H@std@@@std@@@std@@QEAA@AEBV01@@Z
	??0?$_Vector_const_iterator@V?$_Vector_val@U?$_Simple_types@H@std@@@std@@@std@@QEAA@PEAHPEBU_Container_base12@1@@Z
	??0?$_Vector_const_iterator@V?$_Vector_val@U?$_Simple_types@H@std@@@std@@@std@@QEAA@XZ
	??0?$_Vector_const_iterator@V?$_Vector_val@U?$_Simple_types@PEBVInterPtType@@@std@@@std@@@std@@QEAA@PEAPEBVInterPtType@@PEBU_Container_base12@1@@Z
	??0?$_Vector_const_iterator@V?$_Vector_val@U?$_Simple_types@U?$pair@VInterPtType@@V1@@std@@@std@@@std@@@std@@QEAA@PEAU?$pair@VInterPtType@@V1@@1@PEBU_Container_base12@1@@Z
	??0?$_Vector_const_iterator@V?$_Vector_val@U?$_Simple_types@U?$pair@VInterPtType@@V1@@std@@@std@@@std@@@std@@QEAA@XZ
	??0?$_Vector_const_iterator@V?$_Vector_val@U?$_Simple_types@V?$deque@VStripPtR@@V?$allocator@VStripPtR@@@std@@@std@@@std@@@std@@@std@@QEAA@$$QEAV01@@Z
	??0?$_Vector_const_iterator@V?$_Vector_val@U?$_Simple_types@V?$deque@VStripPtR@@V?$allocator@VStripPtR@@@std@@@std@@@std@@@std@@@std@@QEAA@PEAV?$deque@VStripPtR@@V?$allocator@VStripPtR@@@std@@@1@PEBU_Container_base12@1@@Z
	??0?$_Vector_const_iterator@V?$_Vector_val@U?$_Simple_types@V?$deque@VStripPtR@@V?$allocator@VStripPtR@@@std@@@std@@@std@@@std@@@std@@QEAA@XZ
	??0?$_Vector_const_iterator@V?$_Vector_val@U?$_Simple_types@V?$reference_wrapper@VStripPtR@@@std@@@std@@@std@@@std@@QEAA@$$QEAV01@@Z
	??0?$_Vector_const_iterator@V?$_Vector_val@U?$_Simple_types@V?$reference_wrapper@VStripPtR@@@std@@@std@@@std@@@std@@QEAA@AEBV01@@Z
	??0?$_Vector_const_iterator@V?$_Vector_val@U?$_Simple_types@V?$reference_wrapper@VStripPtR@@@std@@@std@@@std@@@std@@QEAA@PEAV?$reference_wrapper@VStripPtR@@@1@PEBU_Container_base12@1@@Z
	??0?$_Vector_const_iterator@V?$_Vector_val@U?$_Simple_types@V?$reference_wrapper@VStripPtR@@@std@@@std@@@std@@@std@@QEAA@XZ
	??0?$_Vector_const_iterator@V?$_Vector_val@U?$_Simple_types@V?$shared_ptr@VLine@@@std@@@std@@@std@@@std@@QEAA@PEAV?$shared_ptr@VLine@@@1@PEBU_Container_base12@1@@Z
	??0?$_Vector_const_iterator@V?$_Vector_val@U?$_Simple_types@V?$shared_ptr@VLine@@@std@@@std@@@std@@@std@@QEAA@XZ
	??0?$_Vector_const_iterator@V?$_Vector_val@U?$_Simple_types@V?$shared_ptr@VObj@@@std@@@std@@@std@@@std@@QEAA@PEAV?$shared_ptr@VObj@@@1@PEBU_Container_base12@1@@Z
	??0?$_Vector_const_iterator@V?$_Vector_val@U?$_Simple_types@V?$shared_ptr@VObj@@@std@@@std@@@std@@@std@@QEAA@XZ
	??0?$_Vector_const_iterator@V?$_Vector_val@U?$_Simple_types@V?$vector@HV?$allocator@H@std@@@std@@@std@@@std@@@std@@QEAA@PEAV?$vector@HV?$allocator@H@std@@@1@PEBU_Container_base12@1@@Z
	??0?$_Vector_const_iterator@V?$_Vector_val@U?$_Simple_types@V?$vector@HV?$allocator@H@std@@@std@@@std@@@std@@@std@@QEAA@XZ
	??0?$_Vector_const_iterator@V?$_Vector_val@U?$_Simple_types@VInterPtType@@@std@@@std@@@std@@QEAA@$$QEAV01@@Z
	??0?$_Vector_const_iterator@V?$_Vector_val@U?$_Simple_types@VInterPtType@@@std@@@std@@@std@@QEAA@AEBV01@@Z
	??0?$_Vector_const_iterator@V?$_Vector_val@U?$_Simple_types@VInterPtType@@@std@@@std@@@std@@QEAA@PEAVInterPtType@@PEBU_Container_base12@1@@Z
	??0?$_Vector_const_iterator@V?$_Vector_val@U?$_Simple_types@VInterPtType@@@std@@@std@@@std@@QEAA@XZ
	??0?$_Vector_const_iterator@V?$_Vector_val@U?$_Simple_types@VMergePt@@@std@@@std@@@std@@QEAA@AEBV01@@Z
	??0?$_Vector_const_iterator@V?$_Vector_val@U?$_Simple_types@VMergePt@@@std@@@std@@@std@@QEAA@PEAVMergePt@@PEBU_Container_base12@1@@Z
	??0?$_Vector_const_iterator@V?$_Vector_val@U?$_Simple_types@VMergePt@@@std@@@std@@@std@@QEAA@XZ
	??0?$_Vector_const_iterator@V?$_Vector_val@U?$_Simple_types@VPair@@@std@@@std@@@std@@QEAA@$$QEAV01@@Z
	??0?$_Vector_const_iterator@V?$_Vector_val@U?$_Simple_types@VPair@@@std@@@std@@@std@@QEAA@AEBV01@@Z
	??0?$_Vector_const_iterator@V?$_Vector_val@U?$_Simple_types@VPair@@@std@@@std@@@std@@QEAA@PEAVPair@@PEBU_Container_base12@1@@Z
	??0?$_Vector_const_iterator@V?$_Vector_val@U?$_Simple_types@VPair@@@std@@@std@@@std@@QEAA@XZ
	??0?$_Vector_const_iterator@V?$_Vector_val@U?$_Simple_types@VPoint@@@std@@@std@@@std@@QEAA@PEAVPoint@@PEBU_Container_base12@1@@Z
	??0?$_Vector_const_iterator@V?$_Vector_val@U?$_Simple_types@VStripPtL2@@@std@@@std@@@std@@QEAA@PEAVStripPtL2@@PEBU_Container_base12@1@@Z
	??0?$_Vector_const_iterator@V?$_Vector_val@U?$_Simple_types@VStripPtL2@@@std@@@std@@@std@@QEAA@XZ
	??0?$_Vector_const_iterator@V?$_Vector_val@U?$_Simple_types@VStripPtL3@@@std@@@std@@@std@@QEAA@AEBV01@@Z
	??0?$_Vector_const_iterator@V?$_Vector_val@U?$_Simple_types@VStripPtL3@@@std@@@std@@@std@@QEAA@PEAVStripPtL3@@PEBU_Container_base12@1@@Z
	??0?$_Vector_const_iterator@V?$_Vector_val@U?$_Simple_types@VStripPtL3@@@std@@@std@@@std@@QEAA@XZ
	??0?$_Vector_const_iterator@V?$_Vector_val@U?$_Simple_types@VStripPtL@@@std@@@std@@@std@@QEAA@PEAVStripPtL@@PEBU_Container_base12@1@@Z
	??0?$_Vector_const_iterator@V?$_Vector_val@U?$_Simple_types@VStripPtL@@@std@@@std@@@std@@QEAA@XZ
	??0?$_Vector_iterator@V?$_Vector_val@U?$_Simple_types@H@std@@@std@@@std@@QEAA@$$QEAV01@@Z
	??0?$_Vector_iterator@V?$_Vector_val@U?$_Simple_types@H@std@@@std@@@std@@QEAA@AEBV01@@Z
	??0?$_Vector_iterator@V?$_Vector_val@U?$_Simple_types@H@std@@@std@@@std@@QEAA@PEAHPEBU_Container_base12@1@@Z
	??0?$_Vector_iterator@V?$_Vector_val@U?$_Simple_types@H@std@@@std@@@std@@QEAA@XZ
	??0?$_Vector_iterator@V?$_Vector_val@U?$_Simple_types@PEBVInterPtType@@@std@@@std@@@std@@QEAA@PEAPEBVInterPtType@@PEBU_Container_base12@1@@Z
	??0?$_Vector_iterator@V?$_Vector_val@U?$_Simple_types@U?$pair@VInterPtType@@V1@@std@@@std@@@std@@@std@@QEAA@PEAU?$pair@VInterPtType@@V1@@1@PEBU_Container_base12@1@@Z
	??0?$_Vector_iterator@V?$_Vector_val@U?$_Simple_types@V?$deque@VStripPtR@@V?$allocator@VStripPtR@@@std@@@std@@@std@@@std@@@std@@QEAA@$$QEAV01@@Z
	??0?$_Vector_iterator@V?$_Vector_val@U?$_Simple_types@V?$deque@VStripPtR@@V?$allocator@VStripPtR@@@std@@@std@@@std@@@std@@@std@@QEAA@PEAV?$deque@VStripPtR@@V?$allocator@VStripPtR@@@std@@@1@PEBU_Container_base12@1@@Z
	??0?$_Vector_iterator@V?$_Vector_val@U?$_Simple_types@V?$deque@VStripPtR@@V?$allocator@VStripPtR@@@std@@@std@@@std@@@std@@@std@@QEAA@XZ
	??0?$_Vector_iterator@V?$_Vector_val@U?$_Simple_types@V?$reference_wrapper@VStripPtR@@@std@@@std@@@std@@@std@@QEAA@$$QEAV01@@Z
	??0?$_Vector_iterator@V?$_Vector_val@U?$_Simple_types@V?$reference_wrapper@VStripPtR@@@std@@@std@@@std@@@std@@QEAA@AEBV01@@Z
	??0?$_Vector_iterator@V?$_Vector_val@U?$_Simple_types@V?$reference_wrapper@VStripPtR@@@std@@@std@@@std@@@std@@QEAA@PEAV?$reference_wrapper@VStripPtR@@@1@PEBU_Container_base12@1@@Z
	??0?$_Vector_iterator@V?$_Vector_val@U?$_Simple_types@V?$reference_wrapper@VStripPtR@@@std@@@std@@@std@@@std@@QEAA@XZ
	??0?$_Vector_iterator@V?$_Vector_val@U?$_Simple_types@V?$shared_ptr@VLine@@@std@@@std@@@std@@@std@@QEAA@PEAV?$shared_ptr@VLine@@@1@PEBU_Container_base12@1@@Z
	??0?$_Vector_iterator@V?$_Vector_val@U?$_Simple_types@V?$shared_ptr@VObj@@@std@@@std@@@std@@@std@@QEAA@PEAV?$shared_ptr@VObj@@@1@PEBU_Container_base12@1@@Z
	??0?$_Vector_iterator@V?$_Vector_val@U?$_Simple_types@V?$vector@HV?$allocator@H@std@@@std@@@std@@@std@@@std@@QEAA@PEAV?$vector@HV?$allocator@H@std@@@1@PEBU_Container_base12@1@@Z
	??0?$_Vector_iterator@V?$_Vector_val@U?$_Simple_types@V?$vector@HV?$allocator@H@std@@@std@@@std@@@std@@@std@@QEAA@XZ
	??0?$_Vector_iterator@V?$_Vector_val@U?$_Simple_types@VInterPtType@@@std@@@std@@@std@@QEAA@$$QEAV01@@Z
	??0?$_Vector_iterator@V?$_Vector_val@U?$_Simple_types@VInterPtType@@@std@@@std@@@std@@QEAA@AEBV01@@Z
	??0?$_Vector_iterator@V?$_Vector_val@U?$_Simple_types@VInterPtType@@@std@@@std@@@std@@QEAA@PEAVInterPtType@@PEBU_Container_base12@1@@Z
	??0?$_Vector_iterator@V?$_Vector_val@U?$_Simple_types@VInterPtType@@@std@@@std@@@std@@QEAA@XZ
	??0?$_Vector_iterator@V?$_Vector_val@U?$_Simple_types@VMergePt@@@std@@@std@@@std@@QEAA@AEBV01@@Z
	??0?$_Vector_iterator@V?$_Vector_val@U?$_Simple_types@VMergePt@@@std@@@std@@@std@@QEAA@PEAVMergePt@@PEBU_Container_base12@1@@Z
	??0?$_Vector_iterator@V?$_Vector_val@U?$_Simple_types@VMergePt@@@std@@@std@@@std@@QEAA@XZ
	??0?$_Vector_iterator@V?$_Vector_val@U?$_Simple_types@VPair@@@std@@@std@@@std@@QEAA@AEBV01@@Z
	??0?$_Vector_iterator@V?$_Vector_val@U?$_Simple_types@VPair@@@std@@@std@@@std@@QEAA@PEAVPair@@PEBU_Container_base12@1@@Z
	??0?$_Vector_iterator@V?$_Vector_val@U?$_Simple_types@VPoint@@@std@@@std@@@std@@QEAA@PEAVPoint@@PEBU_Container_base12@1@@Z
	??0?$_Vector_iterator@V?$_Vector_val@U?$_Simple_types@VStripPtL2@@@std@@@std@@@std@@QEAA@PEAVStripPtL2@@PEBU_Container_base12@1@@Z
	??0?$_Vector_iterator@V?$_Vector_val@U?$_Simple_types@VStripPtL3@@@std@@@std@@@std@@QEAA@AEBV01@@Z
	??0?$_Vector_iterator@V?$_Vector_val@U?$_Simple_types@VStripPtL3@@@std@@@std@@@std@@QEAA@PEAVStripPtL3@@PEBU_Container_base12@1@@Z
	??0?$_Vector_iterator@V?$_Vector_val@U?$_Simple_types@VStripPtL3@@@std@@@std@@@std@@QEAA@XZ
	??0?$_Vector_iterator@V?$_Vector_val@U?$_Simple_types@VStripPtL@@@std@@@std@@@std@@QEAA@PEAVStripPtL@@PEBU_Container_base12@1@@Z
	??0?$_Vector_val@U?$_Simple_types@H@std@@@std@@QEAA@XZ
	??0?$_Vector_val@U?$_Simple_types@PEBVInterPtType@@@std@@@std@@QEAA@XZ
	??0?$_Vector_val@U?$_Simple_types@U?$pair@VInterPtType@@V1@@std@@@std@@@std@@QEAA@XZ
	??0?$_Vector_val@U?$_Simple_types@V?$deque@VStripPtR@@V?$allocator@VStripPtR@@@std@@@std@@@std@@@std@@QEAA@XZ
	??0?$_Vector_val@U?$_Simple_types@V?$reference_wrapper@VStripPt@@@std@@@std@@@std@@QEAA@XZ
	??0?$_Vector_val@U?$_Simple_types@V?$reference_wrapper@VStripPtR@@@std@@@std@@@std@@QEAA@XZ
	??0?$_Vector_val@U?$_Simple_types@V?$shared_ptr@VLine@@@std@@@std@@@std@@QEAA@XZ
	??0?$_Vector_val@U?$_Simple_types@V?$shared_ptr@VObj@@@std@@@std@@@std@@QEAA@XZ
	??0?$_Vector_val@U?$_Simple_types@V?$vector@HV?$allocator@H@std@@@std@@@std@@@std@@QEAA@XZ
	??0?$_Vector_val@U?$_Simple_types@V?$vector@VPoint@@V?$allocator@VPoint@@@std@@@std@@@std@@@std@@QEAA@XZ
	??0?$_Vector_val@U?$_Simple_types@VInterPtType@@@std@@@std@@QEAA@XZ
	??0?$_Vector_val@U?$_Simple_types@VMergePt@@@std@@@std@@QEAA@XZ
	??0?$_Vector_val@U?$_Simple_types@VNode@@@std@@@std@@QEAA@XZ
	??0?$_Vector_val@U?$_Simple_types@VPair@@@std@@@std@@QEAA@XZ
	??0?$_Vector_val@U?$_Simple_types@VPoint@@@std@@@std@@QEAA@XZ
	??0?$_Vector_val@U?$_Simple_types@VPolyAtEdge@@@std@@@std@@QEAA@XZ
	??0?$_Vector_val@U?$_Simple_types@VStripPtL2@@@std@@@std@@QEAA@XZ
	??0?$_Vector_val@U?$_Simple_types@VStripPtL3@@@std@@@std@@QEAA@XZ
	??0?$_Vector_val@U?$_Simple_types@VStripPtL@@@std@@@std@@QEAA@XZ
	??0?$allocator@D@std@@QEAA@XZ
	??0?$allocator@H@std@@QEAA@XZ
	??0?$allocator@PEBVInterPtType@@@std@@QEAA@XZ
	??0?$allocator@U?$_Tree_node@HPEAX@std@@@std@@QEAA@XZ
	??0?$allocator@U?$_Tree_node@U?$pair@$$CBHH@std@@PEAX@std@@@std@@QEAA@XZ
	??0?$allocator@U?$_Tree_node@U?$pair@$$CBHV?$set@HU?$less@H@std@@V?$allocator@H@2@@std@@@std@@PEAX@std@@@std@@QEAA@XZ
	??0?$allocator@U?$_Tree_node@U?$pair@$$CBHV?$vector@HV?$allocator@H@std@@@std@@@std@@PEAX@std@@@std@@QEAA@XZ
	??0?$allocator@U?$_Tree_node@U?$pair@$$CBHV?$vector@V?$reference_wrapper@VStripPtR@@@std@@V?$allocator@V?$reference_wrapper@VStripPtR@@@std@@@2@@std@@@std@@PEAX@std@@@std@@QEAA@XZ
	??0?$allocator@U?$_Tree_node@U?$pair@$$CBHVPStrips@@@std@@PEAX@std@@@std@@QEAA@XZ
	??0?$allocator@U?$_Tree_node@U?$pair@$$CBHVStripPt@@@std@@PEAX@std@@@std@@QEAA@XZ
	??0?$allocator@U?$_Tree_node@U?$pair@$$CBHW4Rel@@@std@@PEAX@std@@@std@@QEAA@XZ
	??0?$allocator@U?$_Tree_node@U?$pair@$$CBVPair@@V?$map@HHU?$less@H@std@@V?$allocator@U?$pair@$$CBHH@std@@@2@@std@@@std@@PEAX@std@@@std@@QEAA@XZ
	??0?$allocator@U?$_Tree_node@V?$reference_wrapper@VStripPt@@@std@@PEAX@std@@@std@@QEAA@XZ
	??0?$allocator@U?$_Tree_node@VPair@@PEAX@std@@@std@@QEAA@XZ
	??0?$allocator@U?$_Tree_node@VStripPtL3@@PEAX@std@@@std@@QEAA@XZ
	??0?$allocator@U?$_Tree_node@VStripPtL@@PEAX@std@@@std@@QEAA@XZ
	??0?$allocator@U?$pair@VInterPtType@@V1@@std@@@std@@QEAA@XZ
	??0?$allocator@V?$deque@VStripPtR@@V?$allocator@VStripPtR@@@std@@@std@@@std@@QEAA@XZ
	??0?$allocator@V?$reference_wrapper@VStripPt@@@std@@@std@@QEAA@XZ
	??0?$allocator@V?$reference_wrapper@VStripPtR@@@std@@@std@@QEAA@XZ
	??0?$allocator@V?$shared_ptr@VLine@@@std@@@std@@QEAA@XZ
	??0?$allocator@V?$shared_ptr@VObj@@@std@@@std@@QEAA@XZ
	??0?$allocator@V?$vector@HV?$allocator@H@std@@@std@@@std@@QEAA@XZ
	??0?$allocator@V?$vector@VPoint@@V?$allocator@VPoint@@@std@@@std@@@std@@QEAA@XZ
	??0?$allocator@VInterPtType@@@std@@QEAA@XZ
	??0?$allocator@VMergePt@@@std@@QEAA@XZ
	??0?$allocator@VNode@@@std@@QEAA@XZ
	??0?$allocator@VPair@@@std@@QEAA@XZ
	??0?$allocator@VPoint@@@std@@QEAA@XZ
	??0?$allocator@VPolyAtEdge@@@std@@QEAA@XZ
	??0?$allocator@VStripPtL2@@@std@@QEAA@XZ
	??0?$allocator@VStripPtL3@@@std@@QEAA@XZ
	??0?$allocator@VStripPtL@@@std@@QEAA@XZ
	??0?$allocator@VStripPtR@@@std@@QEAA@XZ
	??0?$basic_filebuf@DU?$char_traits@D@std@@@std@@QEAA@PEAU_iobuf@@@Z
	??0?$basic_ofstream@DU?$char_traits@D@std@@@std@@QEAA@PEBDHH@Z
	??0?$basic_string@DU?$char_traits@D@std@@V?$allocator@D@2@@std@@QEAA@XZ
	??0?$deque@HV?$allocator@H@std@@@std@@QEAA@V?$initializer_list@H@1@AEBV?$allocator@H@1@@Z
	??0?$deque@HV?$allocator@H@std@@@std@@QEAA@XZ
	??0?$deque@V?$vector@HV?$allocator@H@std@@@std@@V?$allocator@V?$vector@HV?$allocator@H@std@@@std@@@2@@std@@QEAA@XZ
	??0?$deque@VStripPtR@@V?$allocator@VStripPtR@@@std@@@std@@QEAA@$$QEAV01@@Z
	??0?$deque@VStripPtR@@V?$allocator@VStripPtR@@@std@@@std@@QEAA@AEBV01@@Z
	??0?$deque@VStripPtR@@V?$allocator@VStripPtR@@@std@@@std@@QEAA@XZ
	??0?$fpos@U_Mbstatet@@@std@@QEAA@U_Mbstatet@@_J@Z
	??0?$fpos@U_Mbstatet@@@std@@QEAA@_J@Z
	??0?$initializer_list@H@std@@QEAA@PEBH0@Z
	??0?$map@HHU?$less@H@std@@V?$allocator@U?$pair@$$CBHH@std@@@2@@std@@QEAA@XZ
	??0?$map@HV?$set@HU?$less@H@std@@V?$allocator@H@2@@std@@U?$less@H@2@V?$allocator@U?$pair@$$CBHV?$set@HU?$less@H@std@@V?$allocator@H@2@@std@@@std@@@2@@std@@QEAA@XZ
	??0?$map@HV?$vector@HV?$allocator@H@std@@@std@@U?$less@H@2@V?$allocator@U?$pair@$$CBHV?$vector@HV?$allocator@H@std@@@std@@@std@@@2@@std@@QEAA@XZ
	??0?$map@HV?$vector@V?$reference_wrapper@VStripPtR@@@std@@V?$allocator@V?$reference_wrapper@VStripPtR@@@std@@@2@@std@@U?$less@H@2@V?$allocator@U?$pair@$$CBHV?$vector@V?$reference_wrapper@VStripPtR@@@std@@V?$allocator@V?$reference_wrapper@VStripPtR@@@std@@@2@@std@@@std@@@2@@std@@QEAA@XZ
	??0?$map@HVPStrips@@U?$less@H@std@@V?$allocator@U?$pair@$$CBHVPStrips@@@std@@@3@@std@@QEAA@XZ
	??0?$map@HVStripPt@@U?$less@H@std@@V?$allocator@U?$pair@$$CBHVStripPt@@@std@@@3@@std@@QEAA@AEBV01@@Z
	??0?$map@HVStripPt@@U?$less@H@std@@V?$allocator@U?$pair@$$CBHVStripPt@@@std@@@3@@std@@QEAA@XZ
	??0?$map@HW4Rel@@U?$less@H@std@@V?$allocator@U?$pair@$$CBHW4Rel@@@std@@@3@@std@@QEAA@XZ
	??0?$map@VPair@@V?$map@HHU?$less@H@std@@V?$allocator@U?$pair@$$CBHH@std@@@2@@std@@U?$less@VPair@@@3@V?$allocator@U?$pair@$$CBVPair@@V?$map@HHU?$less@H@std@@V?$allocator@U?$pair@$$CBHH@std@@@2@@std@@@std@@@3@@std@@QEAA@XZ
	??0?$pair@$$CBHVStripPt@@@std@@QEAA@AEBU01@@Z
	??0?$reverse_iterator@PEAVStripPtL3@@@std@@QEAA@PEAVStripPtL3@@@Z
	??0?$reverse_iterator@V?$_Deque_iterator@V?$_Deque_val@U?$_Deque_simple_types@VStripPtR@@@std@@@std@@@std@@@std@@QEAA@AEBV01@@Z
	??0?$reverse_iterator@V?$_Deque_iterator@V?$_Deque_val@U?$_Deque_simple_types@VStripPtR@@@std@@@std@@@std@@@std@@QEAA@V?$_Deque_iterator@V?$_Deque_val@U?$_Deque_simple_types@VStripPtR@@@std@@@std@@@1@@Z
	??0?$reverse_iterator@V?$_Deque_iterator@V?$_Deque_val@U?$_Deque_simple_types@VStripPtR@@@std@@@std@@@std@@@std@@QEAA@XZ
	??0?$reverse_iterator@V?$_Deque_unchecked_iterator@V?$_Deque_val@U?$_Deque_simple_types@VStripPtR@@@std@@@std@@@std@@@std@@QEAA@V?$_Deque_unchecked_iterator@V?$_Deque_val@U?$_Deque_simple_types@VStripPtR@@@std@@@std@@@1@@Z
	??0?$reverse_iterator@V?$_Vector_const_iterator@V?$_Vector_val@U?$_Simple_types@VPair@@@std@@@std@@@std@@@std@@QEAA@V?$_Vector_const_iterator@V?$_Vector_val@U?$_Simple_types@VPair@@@std@@@std@@@1@@Z
	??0?$reverse_iterator@V?$_Vector_const_iterator@V?$_Vector_val@U?$_Simple_types@VPair@@@std@@@std@@@std@@@std@@QEAA@XZ
	??0?$reverse_iterator@V?$_Vector_iterator@V?$_Vector_val@U?$_Simple_types@V?$reference_wrapper@VStripPtR@@@std@@@std@@@std@@@std@@@std@@QEAA@V?$_Vector_iterator@V?$_Vector_val@U?$_Simple_types@V?$reference_wrapper@VStripPtR@@@std@@@std@@@std@@@1@@Z
	??0?$reverse_iterator@V?$_Vector_iterator@V?$_Vector_val@U?$_Simple_types@VStripPtL3@@@std@@@std@@@std@@@std@@QEAA@AEBV01@@Z
	??0?$reverse_iterator@V?$_Vector_iterator@V?$_Vector_val@U?$_Simple_types@VStripPtL3@@@std@@@std@@@std@@@std@@QEAA@V?$_Vector_iterator@V?$_Vector_val@U?$_Simple_types@VStripPtL3@@@std@@@std@@@1@@Z
	??0?$set@HU?$less@H@std@@V?$allocator@H@2@@std@@QEAA@XZ
	??0?$set@VPair@@U?$less@VPair@@@std@@V?$allocator@VPair@@@3@@std@@QEAA@XZ
	??0?$set@VStripPtL@@U?$less@VStripPtL@@@std@@V?$allocator@VStripPtL@@@3@@std@@QEAA@XZ
	??0?$shared_ptr@VBB@@@std@@QEAA@$$QEAV01@@Z
	??0?$shared_ptr@VBB@@@std@@QEAA@XZ
	??0?$shared_ptr@VLine@@@std@@QEAA@$$QEAV01@@Z
	??0?$shared_ptr@VObj@@@std@@QEAA@$$QEAV01@@Z
	??0?$shared_ptr@VObj@@@std@@QEAA@$$T@Z
	??0?$shared_ptr@VObj@@@std@@QEAA@AEBV01@@Z
	??0?$tuple@$$QEAVPair@@@std@@QEAA@$$QEAV01@@Z
	??0?$tuple@$$V@std@@QEAA@AEBV01@@Z
	??0?$tuple@$$V@std@@QEAA@XZ
	??0?$tuple@AEBH@std@@QEAA@$$QEAV01@@Z
	??0?$tuple@AEBVStripPt@@@std@@QEAA@$$QEAV01@@Z
	??0?$vector@HV?$allocator@H@std@@@std@@QEAA@$$QEAV01@@Z
	??0?$vector@HV?$allocator@H@std@@@std@@QEAA@AEBV01@@Z
	??0?$vector@HV?$allocator@H@std@@@std@@QEAA@XZ
	??0?$vector@PEBVInterPtType@@V?$allocator@PEBVInterPtType@@@std@@@std@@QEAA@XZ
	??0?$vector@U?$pair@VInterPtType@@V1@@std@@V?$allocator@U?$pair@VInterPtType@@V1@@std@@@2@@std@@QEAA@$$QEAV01@@Z
	??0?$vector@U?$pair@VInterPtType@@V1@@std@@V?$allocator@U?$pair@VInterPtType@@V1@@std@@@2@@std@@QEAA@XZ
	??0?$vector@V?$deque@VStripPtR@@V?$allocator@VStripPtR@@@std@@@std@@V?$allocator@V?$deque@VStripPtR@@V?$allocator@VStripPtR@@@std@@@std@@@2@@std@@QEAA@AEBV01@@Z
	??0?$vector@V?$deque@VStripPtR@@V?$allocator@VStripPtR@@@std@@@std@@V?$allocator@V?$deque@VStripPtR@@V?$allocator@VStripPtR@@@std@@@std@@@2@@std@@QEAA@XZ
	??0?$vector@V?$reference_wrapper@VStripPt@@@std@@V?$allocator@V?$reference_wrapper@VStripPt@@@std@@@2@@std@@QEAA@XZ
	??0?$vector@V?$reference_wrapper@VStripPtR@@@std@@V?$allocator@V?$reference_wrapper@VStripPtR@@@std@@@2@@std@@QEAA@XZ
	??0?$vector@V?$shared_ptr@VLine@@@std@@V?$allocator@V?$shared_ptr@VLine@@@std@@@2@@std@@QEAA@XZ
	??0?$vector@V?$shared_ptr@VObj@@@std@@V?$allocator@V?$shared_ptr@VObj@@@std@@@2@@std@@QEAA@$$QEAV01@@Z
	??0?$vector@V?$shared_ptr@VObj@@@std@@V?$allocator@V?$shared_ptr@VObj@@@std@@@2@@std@@QEAA@XZ
	??0?$vector@V?$vector@HV?$allocator@H@std@@@std@@V?$allocator@V?$vector@HV?$allocator@H@std@@@std@@@2@@std@@QEAA@XZ
	??0?$vector@V?$vector@HV?$allocator@H@std@@@std@@V?$allocator@V?$vector@HV?$allocator@H@std@@@std@@@2@@std@@QEAA@_KAEBV?$allocator@V?$vector@HV?$allocator@H@std@@@std@@@1@@Z
	??0?$vector@V?$vector@VPoint@@V?$allocator@VPoint@@@std@@@std@@V?$allocator@V?$vector@VPoint@@V?$allocator@VPoint@@@std@@@std@@@2@@std@@QEAA@XZ
	??0?$vector@VInterPtType@@V?$allocator@VInterPtType@@@std@@@std@@QEAA@$$QEAV01@@Z
	??0?$vector@VInterPtType@@V?$allocator@VInterPtType@@@std@@@std@@QEAA@XZ
	??0?$vector@VMergePt@@V?$allocator@VMergePt@@@std@@@std@@QEAA@XZ
	??0?$vector@VNode@@V?$allocator@VNode@@@std@@@std@@QEAA@XZ
	??0?$vector@VPair@@V?$allocator@VPair@@@std@@@std@@QEAA@$$QEAV01@@Z
	??0?$vector@VPair@@V?$allocator@VPair@@@std@@@std@@QEAA@AEBV01@@Z
	??0?$vector@VPair@@V?$allocator@VPair@@@std@@@std@@QEAA@XZ
	??0?$vector@VPoint@@V?$allocator@VPoint@@@std@@@std@@QEAA@XZ
	??0?$vector@VPolyAtEdge@@V?$allocator@VPolyAtEdge@@@std@@@std@@QEAA@XZ
	??0?$vector@VStripPtL2@@V?$allocator@VStripPtL2@@@std@@@std@@QEAA@XZ
	??0?$vector@VStripPtL@@V?$allocator@VStripPtL@@@std@@@std@@QEAA@XZ
	??0AABB@@QEAA@XZ
	??0BB@@QEAA@NNNN@Z
	??0BB@@QEAA@XZ
	??0Base@@QEAA@PEAVvtkPoints@@PEAVvtkIdList@@@Z
	??0Base@@QEAA@XZ
	??0Bnds@@QEAA@NNNN@Z
	??0InterPtType@@QEAA@XZ
	??0Line@@QEAA@AEBVPoint@@0H@Z
	??0MergePt@@QEAA@HHPEAN@Z
	??0Merger@@QEAA@XZ
	??0Node@@QEAA@$$QEAV0@@Z
	??0Node@@QEAA@V?$shared_ptr@VObj@@@std@@@Z
	??0Obj@@QEAA@XZ
	??0PStrips@@QEAA@AEBV0@@Z
	??0PStrips@@QEAA@XZ
	??0Pair@@QEAA@HH@Z
	??0Point@@QEAA@AEBV0@@Z
	??0Point@@QEAA@NNH@Z
	??0Point@@QEAA@PEANH@Z
	??0PolyAtEdge@@QEAA@PEAVvtkPolyData@@HHH@Z
	??0PolyPair@@QEAA@VPolyAtEdge@@0@Z
	??0StripPt@@QEAA@AEBV0@@Z
	??0StripPt@@QEAA@XZ
	??0StripPtL2@@QEAA@$$QEAV0@@Z
	??0StripPtL2@@QEAA@AEBVStripPt@@@Z
	??0StripPtL3@@QEAA@PEBNNH@Z
	??0StripPtL@@QEAA@AEBVStripPt@@@Z
	??0StripPtR@@QEAA@H@Z
	??0_Bxty@?$_String_val@U?$_Simple_types@D@std@@@std@@QEAA@XZ
	??0_Container_base12@std@@QEAA@XZ
	??0_Container_proxy@std@@QEAA@PEAU_Container_base12@1@@Z
	??0_Iterator_base12@std@@QEAA@AEBU01@@Z
	??0_Iterator_base12@std@@QEAA@XZ
	??0_Ref_count_base@std@@IEAA@XZ
	??0_Sentry_base@?$basic_ostream@DU?$char_traits@D@std@@@std@@QEAA@AEAV12@@Z
	??0_Wrapper@@QEAA@PEAVvtkPolyData@@AEAV?$vector@HV?$allocator@H@std@@@std@@H@Z
	??0bad_cast@std@@QEAA@AEBV01@@Z
	??0bad_cast@std@@QEAA@XZ
	??0exception@std@@QEAA@AEBV01@@Z
	??0exception@std@@QEAA@QEBDH@Z
	??0sentry@?$basic_ostream@DU?$char_traits@D@std@@@std@@QEAA@AEAV12@@Z
	??0vtkPolyDataBooleanFilter@@IEAA@XZ
	??0vtkPolyDataContactFilter@@IEAA@XZ
	??1?$_Alloc_construct_ptr@V?$allocator@U?$_Tree_node@HPEAX@std@@@std@@@std@@QEAA@XZ
	??1?$_Alloc_construct_ptr@V?$allocator@U?$_Tree_node@U?$pair@$$CBHH@std@@PEAX@std@@@std@@@std@@QEAA@XZ
	??1?$_Alloc_construct_ptr@V?$allocator@U?$_Tree_node@U?$pair@$$CBHV?$set@HU?$less@H@std@@V?$allocator@H@2@@std@@@std@@PEAX@std@@@std@@@std@@QEAA@XZ
	??1?$_Alloc_construct_ptr@V?$allocator@U?$_Tree_node@U?$pair@$$CBHV?$vector@HV?$allocator@H@std@@@std@@@std@@PEAX@std@@@std@@@std@@QEAA@XZ
	??1?$_Alloc_construct_ptr@V?$allocator@U?$_Tree_node@U?$pair@$$CBHV?$vector@V?$reference_wrapper@VStripPtR@@@std@@V?$allocator@V?$reference_wrapper@VStripPtR@@@std@@@2@@std@@@std@@PEAX@std@@@std@@@std@@QEAA@XZ
	??1?$_Alloc_construct_ptr@V?$allocator@U?$_Tree_node@U?$pair@$$CBHVPStrips@@@std@@PEAX@std@@@std@@@std@@QEAA@XZ
	??1?$_Alloc_construct_ptr@V?$allocator@U?$_Tree_node@U?$pair@$$CBHVStripPt@@@std@@PEAX@std@@@std@@@std@@QEAA@XZ
	??1?$_Alloc_construct_ptr@V?$allocator@U?$_Tree_node@U?$pair@$$CBHW4Rel@@@std@@PEAX@std@@@std@@@std@@QEAA@XZ
	??1?$_Alloc_construct_ptr@V?$allocator@U?$_Tree_node@U?$pair@$$CBVPair@@V?$map@HHU?$less@H@std@@V?$allocator@U?$pair@$$CBHH@std@@@2@@std@@@std@@PEAX@std@@@std@@@std@@QEAA@XZ
	??1?$_Alloc_construct_ptr@V?$allocator@U?$_Tree_node@V?$reference_wrapper@VStripPt@@@std@@PEAX@std@@@std@@@std@@QEAA@XZ
	??1?$_Alloc_construct_ptr@V?$allocator@U?$_Tree_node@VPair@@PEAX@std@@@std@@@std@@QEAA@XZ
	??1?$_Alloc_construct_ptr@V?$allocator@U?$_Tree_node@VStripPtL3@@PEAX@std@@@std@@@std@@QEAA@XZ
	??1?$_Alloc_construct_ptr@V?$allocator@U?$_Tree_node@VStripPtL@@PEAX@std@@@std@@@std@@QEAA@XZ
	??1?$_Compressed_pair@V?$allocator@D@std@@V?$_String_val@U?$_Simple_types@D@std@@@2@$00@std@@QEAA@XZ
	??1?$_Container_proxy_ptr12@V?$allocator@U_Container_proxy@std@@@std@@@std@@QEAA@XZ
	??1?$_Deque_const_iterator@V?$_Deque_val@U?$_Deque_simple_types@H@std@@@std@@@std@@QEAA@XZ
	??1?$_Deque_const_iterator@V?$_Deque_val@U?$_Deque_simple_types@V?$vector@HV?$allocator@H@std@@@std@@@std@@@std@@@std@@QEAA@XZ
	??1?$_Deque_const_iterator@V?$_Deque_val@U?$_Deque_simple_types@VStripPtR@@@std@@@std@@@std@@QEAA@XZ
	??1?$_Deque_iterator@V?$_Deque_val@U?$_Deque_simple_types@H@std@@@std@@@std@@QEAA@XZ
	??1?$_Deque_iterator@V?$_Deque_val@U?$_Deque_simple_types@V?$vector@HV?$allocator@H@std@@@std@@@std@@@std@@@std@@QEAA@XZ
	??1?$_Deque_iterator@V?$_Deque_val@U?$_Deque_simple_types@VStripPtR@@@std@@@std@@@std@@QEAA@XZ
	??1?$_Hash@V?$_Umap_traits@VPair@@VSubP@@V?$_Uhash_compare@VPair@@Up_h@@U?$equal_to@VPair@@@std@@@std@@V?$allocator@U?$pair@$$CBVPair@@VSubP@@@std@@@4@$0A@@std@@@std@@QEAA@XZ
	??1?$_Hash@V?$_Uset_traits@VPair@@V?$_Uhash_compare@VPair@@Up_h@@U?$equal_to@VPair@@@std@@@std@@V?$allocator@VPair@@@3@$0A@@std@@@std@@QEAA@XZ
	??1?$_Ref_count@VLine@@@std@@UEAA@XZ
	??1?$_Ref_count_obj@VBB@@@std@@UEAA@XZ
	??1?$_String_val@U?$_Simple_types@D@std@@@std@@QEAA@XZ
	??1?$_Temporary_owner@VLine@@@std@@QEAA@XZ
	??1?$_Tidy_guard@V?$deque@HV?$allocator@H@std@@@std@@@std@@QEAA@XZ
	??1?$_Tidy_guard@V?$deque@VStripPtR@@V?$allocator@VStripPtR@@@std@@@std@@@std@@QEAA@XZ
	??1?$_Tidy_guard@V?$vector@HV?$allocator@H@std@@@std@@@std@@QEAA@XZ
	??1?$_Tidy_guard@V?$vector@V?$deque@VStripPtR@@V?$allocator@VStripPtR@@@std@@@std@@V?$allocator@V?$deque@VStripPtR@@V?$allocator@VStripPtR@@@std@@@std@@@2@@std@@@std@@QEAA@XZ
	??1?$_Tidy_guard@V?$vector@V?$reference_wrapper@VStripPtR@@@std@@V?$allocator@V?$reference_wrapper@VStripPtR@@@std@@@2@@std@@@std@@QEAA@XZ
	??1?$_Tidy_guard@V?$vector@V?$vector@HV?$allocator@H@std@@@std@@V?$allocator@V?$vector@HV?$allocator@H@std@@@std@@@2@@std@@@std@@QEAA@XZ
	??1?$_Tidy_guard@V?$vector@VPair@@V?$allocator@VPair@@@std@@@std@@@std@@QEAA@XZ
	??1?$_Tidy_guard@V?$vector@VStripPtL3@@V?$allocator@VStripPtL3@@@std@@@std@@@std@@QEAA@XZ
	??1?$_Tree@V?$_Tmap_traits@HHU?$less@H@std@@V?$allocator@U?$pair@$$CBHH@std@@@2@$0A@@std@@@std@@QEAA@XZ
	??1?$_Tree@V?$_Tmap_traits@HV?$set@HU?$less@H@std@@V?$allocator@H@2@@std@@U?$less@H@2@V?$allocator@U?$pair@$$CBHV?$set@HU?$less@H@std@@V?$allocator@H@2@@std@@@std@@@2@$0A@@std@@@std@@QEAA@XZ
	??1?$_Tree@V?$_Tmap_traits@HV?$vector@HV?$allocator@H@std@@@std@@U?$less@H@2@V?$allocator@U?$pair@$$CBHV?$vector@HV?$allocator@H@std@@@std@@@std@@@2@$0A@@std@@@std@@QEAA@XZ
	??1?$_Tree@V?$_Tmap_traits@HV?$vector@V?$reference_wrapper@VStripPtR@@@std@@V?$allocator@V?$reference_wrapper@VStripPtR@@@std@@@2@@std@@U?$less@H@2@V?$allocator@U?$pair@$$CBHV?$vector@V?$reference_wrapper@VStripPtR@@@std@@V?$allocator@V?$reference_wrapper@VStripPtR@@@std@@@2@@std@@@std@@@2@$0A@@std@@@std@@QEAA@XZ
	??1?$_Tree@V?$_Tmap_traits@HVPStrips@@U?$less@H@std@@V?$allocator@U?$pair@$$CBHVPStrips@@@std@@@3@$0A@@std@@@std@@QEAA@XZ
	??1?$_Tree@V?$_Tmap_traits@HVStripPt@@U?$less@H@std@@V?$allocator@U?$pair@$$CBHVStripPt@@@std@@@3@$0A@@std@@@std@@QEAA@XZ
	??1?$_Tree@V?$_Tmap_traits@HW4Rel@@U?$less@H@std@@V?$allocator@U?$pair@$$CBHW4Rel@@@std@@@3@$0A@@std@@@std@@QEAA@XZ
	??1?$_Tree@V?$_Tmap_traits@VPair@@V?$map@HHU?$less@H@std@@V?$allocator@U?$pair@$$CBHH@std@@@2@@std@@U?$less@VPair@@@3@V?$allocator@U?$pair@$$CBVPair@@V?$map@HHU?$less@H@std@@V?$allocator@U?$pair@$$CBHH@std@@@2@@std@@@std@@@3@$0A@@std@@@std@@QEAA@XZ
	??1?$_Tree@V?$_Tset_traits@HU?$less@H@std@@V?$allocator@H@2@$0A@@std@@@std@@QEAA@XZ
	??1?$_Tree@V?$_Tset_traits@VPair@@U?$less@VPair@@@std@@V?$allocator@VPair@@@3@$0A@@std@@@std@@QEAA@XZ
	??1?$_Tree@V?$_Tset_traits@VStripPtL@@U?$less@VStripPtL@@@std@@V?$allocator@VStripPtL@@@3@$0A@@std@@@std@@QEAA@XZ
	??1?$_Tree_const_iterator@V?$_Tree_val@U?$_Tree_simple_types@H@std@@@std@@@std@@QEAA@XZ
	??1?$_Tree_const_iterator@V?$_Tree_val@U?$_Tree_simple_types@U?$pair@$$CBHH@std@@@std@@@std@@@std@@QEAA@XZ
	??1?$_Tree_const_iterator@V?$_Tree_val@U?$_Tree_simple_types@U?$pair@$$CBHV?$set@HU?$less@H@std@@V?$allocator@H@2@@std@@@std@@@std@@@std@@@std@@QEAA@XZ
	??1?$_Tree_const_iterator@V?$_Tree_val@U?$_Tree_simple_types@U?$pair@$$CBHV?$vector@HV?$allocator@H@std@@@std@@@std@@@std@@@std@@@std@@QEAA@XZ
	??1?$_Tree_const_iterator@V?$_Tree_val@U?$_Tree_simple_types@U?$pair@$$CBHV?$vector@V?$reference_wrapper@VStripPtR@@@std@@V?$allocator@V?$reference_wrapper@VStripPtR@@@std@@@2@@std@@@std@@@std@@@std@@@std@@QEAA@XZ
	??1?$_Tree_const_iterator@V?$_Tree_val@U?$_Tree_simple_types@U?$pair@$$CBHVPStrips@@@std@@@std@@@std@@@std@@QEAA@XZ
	??1?$_Tree_const_iterator@V?$_Tree_val@U?$_Tree_simple_types@U?$pair@$$CBHVStripPt@@@std@@@std@@@std@@@std@@QEAA@XZ
	??1?$_Tree_const_iterator@V?$_Tree_val@U?$_Tree_simple_types@U?$pair@$$CBHW4Rel@@@std@@@std@@@std@@@std@@QEAA@XZ
	??1?$_Tree_const_iterator@V?$_Tree_val@U?$_Tree_simple_types@U?$pair@$$CBVPair@@V?$map@HHU?$less@H@std@@V?$allocator@U?$pair@$$CBHH@std@@@2@@std@@@std@@@std@@@std@@@std@@QEAA@XZ
	??1?$_Tree_const_iterator@V?$_Tree_val@U?$_Tree_simple_types@V?$reference_wrapper@VStripPt@@@std@@@std@@@std@@@std@@QEAA@XZ
	??1?$_Tree_const_iterator@V?$_Tree_val@U?$_Tree_simple_types@VPair@@@std@@@std@@@std@@QEAA@XZ
	??1?$_Tree_const_iterator@V?$_Tree_val@U?$_Tree_simple_types@VStripPtL3@@@std@@@std@@@std@@QEAA@XZ
	??1?$_Tree_const_iterator@V?$_Tree_val@U?$_Tree_simple_types@VStripPtL@@@std@@@std@@@std@@QEAA@XZ
	??1?$_Tree_head_scoped_ptr@V?$allocator@U?$_Tree_node@U?$pair@$$CBHVStripPt@@@std@@PEAX@std@@@std@@V?$_Tree_val@U?$_Tree_simple_types@U?$pair@$$CBHVStripPt@@@std@@@std@@@2@@std@@QEAA@XZ
	??1?$_Tree_iterator@V?$_Tree_val@U?$_Tree_simple_types@U?$pair@$$CBHH@std@@@std@@@std@@@std@@QEAA@XZ
	??1?$_Tree_iterator@V?$_Tree_val@U?$_Tree_simple_types@U?$pair@$$CBHV?$set@HU?$less@H@std@@V?$allocator@H@2@@std@@@std@@@std@@@std@@@std@@QEAA@XZ
	??1?$_Tree_iterator@V?$_Tree_val@U?$_Tree_simple_types@U?$pair@$$CBHV?$vector@HV?$allocator@H@std@@@std@@@std@@@std@@@std@@@std@@QEAA@XZ
	??1?$_Tree_iterator@V?$_Tree_val@U?$_Tree_simple_types@U?$pair@$$CBHV?$vector@V?$reference_wrapper@VStripPtR@@@std@@V?$allocator@V?$reference_wrapper@VStripPtR@@@std@@@2@@std@@@std@@@std@@@std@@@std@@QEAA@XZ
	??1?$_Tree_iterator@V?$_Tree_val@U?$_Tree_simple_types@U?$pair@$$CBHVPStrips@@@std@@@std@@@std@@@std@@QEAA@XZ
	??1?$_Tree_iterator@V?$_Tree_val@U?$_Tree_simple_types@U?$pair@$$CBHVStripPt@@@std@@@std@@@std@@@std@@QEAA@XZ
	??1?$_Tree_iterator@V?$_Tree_val@U?$_Tree_simple_types@U?$pair@$$CBHW4Rel@@@std@@@std@@@std@@@std@@QEAA@XZ
	??1?$_Tree_iterator@V?$_Tree_val@U?$_Tree_simple_types@U?$pair@$$CBVPair@@V?$map@HHU?$less@H@std@@V?$allocator@U?$pair@$$CBHH@std@@@2@@std@@@std@@@std@@@std@@@std@@QEAA@XZ
	??1?$_Tree_temp_node@V?$allocator@U?$_Tree_node@HPEAX@std@@@std@@@std@@QEAA@XZ
	??1?$_Tree_temp_node@V?$allocator@U?$_Tree_node@U?$pair@$$CBHH@std@@PEAX@std@@@std@@@std@@QEAA@XZ
	??1?$_Tree_temp_node@V?$allocator@U?$_Tree_node@U?$pair@$$CBHV?$set@HU?$less@H@std@@V?$allocator@H@2@@std@@@std@@PEAX@std@@@std@@@std@@QEAA@XZ
	??1?$_Tree_temp_node@V?$allocator@U?$_Tree_node@U?$pair@$$CBHV?$vector@HV?$allocator@H@std@@@std@@@std@@PEAX@std@@@std@@@std@@QEAA@XZ
	??1?$_Tree_temp_node@V?$allocator@U?$_Tree_node@U?$pair@$$CBHV?$vector@V?$reference_wrapper@VStripPtR@@@std@@V?$allocator@V?$reference_wrapper@VStripPtR@@@std@@@2@@std@@@std@@PEAX@std@@@std@@@std@@QEAA@XZ
	??1?$_Tree_temp_node@V?$allocator@U?$_Tree_node@U?$pair@$$CBHVPStrips@@@std@@PEAX@std@@@std@@@std@@QEAA@XZ
	??1?$_Tree_temp_node@V?$allocator@U?$_Tree_node@U?$pair@$$CBHVStripPt@@@std@@PEAX@std@@@std@@@std@@QEAA@XZ
	??1?$_Tree_temp_node@V?$allocator@U?$_Tree_node@U?$pair@$$CBHW4Rel@@@std@@PEAX@std@@@std@@@std@@QEAA@XZ
	??1?$_Tree_temp_node@V?$allocator@U?$_Tree_node@U?$pair@$$CBVPair@@V?$map@HHU?$less@H@std@@V?$allocator@U?$pair@$$CBHH@std@@@2@@std@@@std@@PEAX@std@@@std@@@std@@QEAA@XZ
	??1?$_Tree_temp_node@V?$allocator@U?$_Tree_node@V?$reference_wrapper@VStripPt@@@std@@PEAX@std@@@std@@@std@@QEAA@XZ
	??1?$_Tree_temp_node@V?$allocator@U?$_Tree_node@VPair@@PEAX@std@@@std@@@std@@QEAA@XZ
	??1?$_Tree_temp_node@V?$allocator@U?$_Tree_node@VStripPtL3@@PEAX@std@@@std@@@std@@QEAA@XZ
	??1?$_Tree_temp_node@V?$allocator@U?$_Tree_node@VStripPtL@@PEAX@std@@@std@@@std@@QEAA@XZ
	??1?$_Tree_temp_node_alloc@V?$allocator@U?$_Tree_node@HPEAX@std@@@std@@@std@@QEAA@XZ
	??1?$_Tree_temp_node_alloc@V?$allocator@U?$_Tree_node@U?$pair@$$CBHH@std@@PEAX@std@@@std@@@std@@QEAA@XZ
	??1?$_Tree_temp_node_alloc@V?$allocator@U?$_Tree_node@U?$pair@$$CBHV?$set@HU?$less@H@std@@V?$allocator@H@2@@std@@@std@@PEAX@std@@@std@@@std@@QEAA@XZ
	??1?$_Tree_temp_node_alloc@V?$allocator@U?$_Tree_node@U?$pair@$$CBHV?$vector@HV?$allocator@H@std@@@std@@@std@@PEAX@std@@@std@@@std@@QEAA@XZ
	??1?$_Tree_temp_node_alloc@V?$allocator@U?$_Tree_node@U?$pair@$$CBHV?$vector@V?$reference_wrapper@VStripPtR@@@std@@V?$allocator@V?$reference_wrapper@VStripPtR@@@std@@@2@@std@@@std@@PEAX@std@@@std@@@std@@QEAA@XZ
	??1?$_Tree_temp_node_alloc@V?$allocator@U?$_Tree_node@U?$pair@$$CBHVPStrips@@@std@@PEAX@std@@@std@@@std@@QEAA@XZ
	??1?$_Tree_temp_node_alloc@V?$allocator@U?$_Tree_node@U?$pair@$$CBHVStripPt@@@std@@PEAX@std@@@std@@@std@@QEAA@XZ
	??1?$_Tree_temp_node_alloc@V?$allocator@U?$_Tree_node@U?$pair@$$CBHW4Rel@@@std@@PEAX@std@@@std@@@std@@QEAA@XZ
	??1?$_Tree_temp_node_alloc@V?$allocator@U?$_Tree_node@U?$pair@$$CBVPair@@V?$map@HHU?$less@H@std@@V?$allocator@U?$pair@$$CBHH@std@@@2@@std@@@std@@PEAX@std@@@std@@@std@@QEAA@XZ
	??1?$_Tree_temp_node_alloc@V?$allocator@U?$_Tree_node@V?$reference_wrapper@VStripPt@@@std@@PEAX@std@@@std@@@std@@QEAA@XZ
	??1?$_Tree_temp_node_alloc@V?$allocator@U?$_Tree_node@VPair@@PEAX@std@@@std@@@std@@QEAA@XZ
	??1?$_Tree_temp_node_alloc@V?$allocator@U?$_Tree_node@VStripPtL3@@PEAX@std@@@std@@@std@@QEAA@XZ
	??1?$_Tree_temp_node_alloc@V?$allocator@U?$_Tree_node@VStripPtL@@PEAX@std@@@std@@@std@@QEAA@XZ
	??1?$_Tree_unchecked_const_iterator@V?$_Tree_val@U?$_Tree_simple_types@H@std@@@std@@U_Iterator_base12@2@@std@@QEAA@XZ
	??1?$_Tree_unchecked_const_iterator@V?$_Tree_val@U?$_Tree_simple_types@U?$pair@$$CBHH@std@@@std@@@std@@U_Iterator_base12@2@@std@@QEAA@XZ
	??1?$_Tree_unchecked_const_iterator@V?$_Tree_val@U?$_Tree_simple_types@U?$pair@$$CBHV?$set@HU?$less@H@std@@V?$allocator@H@2@@std@@@std@@@std@@@std@@U_Iterator_base12@2@@std@@QEAA@XZ
	??1?$_Tree_unchecked_const_iterator@V?$_Tree_val@U?$_Tree_simple_types@U?$pair@$$CBHV?$vector@HV?$allocator@H@std@@@std@@@std@@@std@@@std@@U_Iterator_base12@2@@std@@QEAA@XZ
	??1?$_Tree_unchecked_const_iterator@V?$_Tree_val@U?$_Tree_simple_types@U?$pair@$$CBHV?$vector@V?$reference_wrapper@VStripPtR@@@std@@V?$allocator@V?$reference_wrapper@VStripPtR@@@std@@@2@@std@@@std@@@std@@@std@@U_Iterator_base12@2@@std@@QEAA@XZ
	??1?$_Tree_unchecked_const_iterator@V?$_Tree_val@U?$_Tree_simple_types@U?$pair@$$CBHVPStrips@@@std@@@std@@@std@@U_Iterator_base12@2@@std@@QEAA@XZ
	??1?$_Tree_unchecked_const_iterator@V?$_Tree_val@U?$_Tree_simple_types@U?$pair@$$CBHVStripPt@@@std@@@std@@@std@@U_Iterator_base12@2@@std@@QEAA@XZ
	??1?$_Tree_unchecked_const_iterator@V?$_Tree_val@U?$_Tree_simple_types@U?$pair@$$CBHW4Rel@@@std@@@std@@@std@@U_Iterator_base12@2@@std@@QEAA@XZ
	??1?$_Tree_unchecked_const_iterator@V?$_Tree_val@U?$_Tree_simple_types@U?$pair@$$CBVPair@@V?$map@HHU?$less@H@std@@V?$allocator@U?$pair@$$CBHH@std@@@2@@std@@@std@@@std@@@std@@U_Iterator_base12@2@@std@@QEAA@XZ
	??1?$_Tree_unchecked_const_iterator@V?$_Tree_val@U?$_Tree_simple_types@V?$reference_wrapper@VStripPt@@@std@@@std@@@std@@U_Iterator_base12@2@@std@@QEAA@XZ
	??1?$_Tree_unchecked_const_iterator@V?$_Tree_val@U?$_Tree_simple_types@VPair@@@std@@@std@@U_Iterator_base12@2@@std@@QEAA@XZ
	??1?$_Tree_unchecked_const_iterator@V?$_Tree_val@U?$_Tree_simple_types@VStripPtL3@@@std@@@std@@U_Iterator_base12@2@@std@@QEAA@XZ
	??1?$_Tree_unchecked_const_iterator@V?$_Tree_val@U?$_Tree_simple_types@VStripPtL@@@std@@@std@@U_Iterator_base12@2@@std@@QEAA@XZ
	??1?$_Uninitialized_backout_al@V?$allocator@U?$pair@VInterPtType@@V1@@std@@@std@@@std@@QEAA@XZ
	??1?$_Uninitialized_backout_al@V?$allocator@V?$deque@VStripPtR@@V?$allocator@VStripPtR@@@std@@@std@@@std@@@std@@QEAA@XZ
	??1?$_Uninitialized_backout_al@V?$allocator@V?$reference_wrapper@VStripPt@@@std@@@std@@@std@@QEAA@XZ
	??1?$_Uninitialized_backout_al@V?$allocator@V?$reference_wrapper@VStripPtR@@@std@@@std@@@std@@QEAA@XZ
	??1?$_Uninitialized_backout_al@V?$allocator@V?$shared_ptr@VLine@@@std@@@std@@@std@@QEAA@XZ
	??1?$_Uninitialized_backout_al@V?$allocator@V?$shared_ptr@VObj@@@std@@@std@@@std@@QEAA@XZ
	??1?$_Uninitialized_backout_al@V?$allocator@V?$vector@HV?$allocator@H@std@@@std@@@std@@@std@@QEAA@XZ
	??1?$_Uninitialized_backout_al@V?$allocator@VInterPtType@@@std@@@std@@QEAA@XZ
	??1?$_Uninitialized_backout_al@V?$allocator@VMergePt@@@std@@@std@@QEAA@XZ
	??1?$_Uninitialized_backout_al@V?$allocator@VNode@@@std@@@std@@QEAA@XZ
	??1?$_Uninitialized_backout_al@V?$allocator@VPair@@@std@@@std@@QEAA@XZ
	??1?$_Uninitialized_backout_al@V?$allocator@VPoint@@@std@@@std@@QEAA@XZ
	??1?$_Uninitialized_backout_al@V?$allocator@VPolyAtEdge@@@std@@@std@@QEAA@XZ
	??1?$_Uninitialized_backout_al@V?$allocator@VStripPtL2@@@std@@@std@@QEAA@XZ
	??1?$_Uninitialized_backout_al@V?$allocator@VStripPtL3@@@std@@@std@@QEAA@XZ
	??1?$_Uninitialized_backout_al@V?$allocator@VStripPtL@@@std@@@std@@QEAA@XZ
	??1?$_Vector_const_iterator@V?$_Vector_val@U?$_Simple_types@H@std@@@std@@@std@@QEAA@XZ
	??1?$_Vector_const_iterator@V?$_Vector_val@U?$_Simple_types@PEBVInterPtType@@@std@@@std@@@std@@QEAA@XZ
	??1?$_Vector_const_iterator@V?$_Vector_val@U?$_Simple_types@U?$pair@VInterPtType@@V1@@std@@@std@@@std@@@std@@QEAA@XZ
	??1?$_Vector_const_iterator@V?$_Vector_val@U?$_Simple_types@V?$deque@VStripPtR@@V?$allocator@VStripPtR@@@std@@@std@@@std@@@std@@@std@@QEAA@XZ
	??1?$_Vector_const_iterator@V?$_Vector_val@U?$_Simple_types@V?$reference_wrapper@VStripPtR@@@std@@@std@@@std@@@std@@QEAA@XZ
	??1?$_Vector_const_iterator@V?$_Vector_val@U?$_Simple_types@V?$shared_ptr@VLine@@@std@@@std@@@std@@@std@@QEAA@XZ
	??1?$_Vector_const_iterator@V?$_Vector_val@U?$_Simple_types@V?$shared_ptr@VObj@@@std@@@std@@@std@@@std@@QEAA@XZ
	??1?$_Vector_const_iterator@V?$_Vector_val@U?$_Simple_types@V?$vector@HV?$allocator@H@std@@@std@@@std@@@std@@@std@@QEAA@XZ
	??1?$_Vector_const_iterator@V?$_Vector_val@U?$_Simple_types@VInterPtType@@@std@@@std@@@std@@QEAA@XZ
	??1?$_Vector_const_iterator@V?$_Vector_val@U?$_Simple_types@VMergePt@@@std@@@std@@@std@@QEAA@XZ
	??1?$_Vector_const_iterator@V?$_Vector_val@U?$_Simple_types@VPair@@@std@@@std@@@std@@QEAA@XZ
	??1?$_Vector_const_iterator@V?$_Vector_val@U?$_Simple_types@VPoint@@@std@@@std@@@std@@QEAA@XZ
	??1?$_Vector_const_iterator@V?$_Vector_val@U?$_Simple_types@VStripPtL2@@@std@@@std@@@std@@QEAA@XZ
	??1?$_Vector_const_iterator@V?$_Vector_val@U?$_Simple_types@VStripPtL3@@@std@@@std@@@std@@QEAA@XZ
	??1?$_Vector_const_iterator@V?$_Vector_val@U?$_Simple_types@VStripPtL@@@std@@@std@@@std@@QEAA@XZ
	??1?$_Vector_iterator@V?$_Vector_val@U?$_Simple_types@H@std@@@std@@@std@@QEAA@XZ
	??1?$_Vector_iterator@V?$_Vector_val@U?$_Simple_types@PEBVInterPtType@@@std@@@std@@@std@@QEAA@XZ
	??1?$_Vector_iterator@V?$_Vector_val@U?$_Simple_types@U?$pair@VInterPtType@@V1@@std@@@std@@@std@@@std@@QEAA@XZ
	??1?$_Vector_iterator@V?$_Vector_val@U?$_Simple_types@V?$deque@VStripPtR@@V?$allocator@VStripPtR@@@std@@@std@@@std@@@std@@@std@@QEAA@XZ
	??1?$_Vector_iterator@V?$_Vector_val@U?$_Simple_types@V?$reference_wrapper@VStripPtR@@@std@@@std@@@std@@@std@@QEAA@XZ
	??1?$_Vector_iterator@V?$_Vector_val@U?$_Simple_types@V?$shared_ptr@VLine@@@std@@@std@@@std@@@std@@QEAA@XZ
	??1?$_Vector_iterator@V?$_Vector_val@U?$_Simple_types@V?$shared_ptr@VObj@@@std@@@std@@@std@@@std@@QEAA@XZ
	??1?$_Vector_iterator@V?$_Vector_val@U?$_Simple_types@V?$vector@HV?$allocator@H@std@@@std@@@std@@@std@@@std@@QEAA@XZ
	??1?$_Vector_iterator@V?$_Vector_val@U?$_Simple_types@VInterPtType@@@std@@@std@@@std@@QEAA@XZ
	??1?$_Vector_iterator@V?$_Vector_val@U?$_Simple_types@VMergePt@@@std@@@std@@@std@@QEAA@XZ
	??1?$_Vector_iterator@V?$_Vector_val@U?$_Simple_types@VPair@@@std@@@std@@@std@@QEAA@XZ
	??1?$_Vector_iterator@V?$_Vector_val@U?$_Simple_types@VPoint@@@std@@@std@@@std@@QEAA@XZ
	??1?$_Vector_iterator@V?$_Vector_val@U?$_Simple_types@VStripPtL2@@@std@@@std@@@std@@QEAA@XZ
	??1?$_Vector_iterator@V?$_Vector_val@U?$_Simple_types@VStripPtL3@@@std@@@std@@@std@@QEAA@XZ
	??1?$_Vector_iterator@V?$_Vector_val@U?$_Simple_types@VStripPtL@@@std@@@std@@@std@@QEAA@XZ
	??1?$basic_filebuf@DU?$char_traits@D@std@@@std@@UEAA@XZ
	??1?$basic_ofstream@DU?$char_traits@D@std@@@std@@UEAA@XZ
	??1?$basic_string@DU?$char_traits@D@std@@V?$allocator@D@2@@std@@QEAA@XZ
	??1?$deque@HV?$allocator@H@std@@@std@@QEAA@XZ
	??1?$deque@V?$vector@HV?$allocator@H@std@@@std@@V?$allocator@V?$vector@HV?$allocator@H@std@@@std@@@2@@std@@QEAA@XZ
	??1?$deque@VPair@@V?$allocator@VPair@@@std@@@std@@QEAA@XZ
	??1?$deque@VStripPtR@@V?$allocator@VStripPtR@@@std@@@std@@QEAA@XZ
	??1?$list@U?$pair@$$CBVPair@@VSubP@@@std@@V?$allocator@U?$pair@$$CBVPair@@VSubP@@@std@@@2@@std@@QEAA@XZ
	??1?$list@VPair@@V?$allocator@VPair@@@std@@@std@@QEAA@XZ
	??1?$map@HHU?$less@H@std@@V?$allocator@U?$pair@$$CBHH@std@@@2@@std@@QEAA@XZ
	??1?$map@HV?$set@HU?$less@H@std@@V?$allocator@H@2@@std@@U?$less@H@2@V?$allocator@U?$pair@$$CBHV?$set@HU?$less@H@std@@V?$allocator@H@2@@std@@@std@@@2@@std@@QEAA@XZ
	??1?$map@HV?$vector@HV?$allocator@H@std@@@std@@U?$less@H@2@V?$allocator@U?$pair@$$CBHV?$vector@HV?$allocator@H@std@@@std@@@std@@@2@@std@@QEAA@XZ
	??1?$map@HV?$vector@V?$reference_wrapper@VStripPtR@@@std@@V?$allocator@V?$reference_wrapper@VStripPtR@@@std@@@2@@std@@U?$less@H@2@V?$allocator@U?$pair@$$CBHV?$vector@V?$reference_wrapper@VStripPtR@@@std@@V?$allocator@V?$reference_wrapper@VStripPtR@@@std@@@2@@std@@@std@@@2@@std@@QEAA@XZ
	??1?$map@HVPStrips@@U?$less@H@std@@V?$allocator@U?$pair@$$CBHVPStrips@@@std@@@3@@std@@QEAA@XZ
	??1?$map@HVStripPt@@U?$less@H@std@@V?$allocator@U?$pair@$$CBHVStripPt@@@std@@@3@@std@@QEAA@XZ
	??1?$map@HW4Rel@@U?$less@H@std@@V?$allocator@U?$pair@$$CBHW4Rel@@@std@@@3@@std@@QEAA@XZ
	??1?$map@VPair@@V?$map@HHU?$less@H@std@@V?$allocator@U?$pair@$$CBHH@std@@@2@@std@@U?$less@VPair@@@3@V?$allocator@U?$pair@$$CBVPair@@V?$map@HHU?$less@H@std@@V?$allocator@U?$pair@$$CBHH@std@@@2@@std@@@std@@@3@@std@@QEAA@XZ
	??1?$pair@$$CBHV?$set@HU?$less@H@std@@V?$allocator@H@2@@std@@@std@@QEAA@XZ
	??1?$pair@$$CBHV?$vector@HV?$allocator@H@std@@@std@@@std@@QEAA@XZ
	??1?$pair@$$CBHV?$vector@V?$reference_wrapper@VStripPtR@@@std@@V?$allocator@V?$reference_wrapper@VStripPtR@@@std@@@2@@std@@@std@@QEAA@XZ
	??1?$pair@$$CBHVPStrips@@@std@@QEAA@XZ
	??1?$pair@$$CBHVStripPt@@@std@@QEAA@XZ
	??1?$pair@$$CBVPair@@V?$map@HHU?$less@H@std@@V?$allocator@U?$pair@$$CBHH@std@@@2@@std@@@std@@QEAA@XZ
	??1?$pair@$$CBVPair@@VSubP@@@std@@QEAA@XZ
	??1?$pair@V?$_Tree_const_iterator@V?$_Tree_val@U?$_Tree_simple_types@H@std@@@std@@@std@@_N@std@@QEAA@XZ
	??1?$pair@V?$_Tree_const_iterator@V?$_Tree_val@U?$_Tree_simple_types@V?$reference_wrapper@VStripPt@@@std@@@std@@@std@@@std@@_N@std@@QEAA@XZ
	??1?$pair@V?$_Tree_const_iterator@V?$_Tree_val@U?$_Tree_simple_types@VPair@@@std@@@std@@@std@@_N@std@@QEAA@XZ
	??1?$pair@V?$_Tree_const_iterator@V?$_Tree_val@U?$_Tree_simple_types@VStripPtL3@@@std@@@std@@@std@@_N@std@@QEAA@XZ
	??1?$pair@V?$_Tree_const_iterator@V?$_Tree_val@U?$_Tree_simple_types@VStripPtL@@@std@@@std@@@std@@_N@std@@QEAA@XZ
	??1?$reverse_iterator@V?$_Deque_iterator@V?$_Deque_val@U?$_Deque_simple_types@VStripPtR@@@std@@@std@@@std@@@std@@QEAA@XZ
	??1?$reverse_iterator@V?$_Vector_const_iterator@V?$_Vector_val@U?$_Simple_types@VPair@@@std@@@std@@@std@@@std@@QEAA@XZ
	??1?$reverse_iterator@V?$_Vector_iterator@V?$_Vector_val@U?$_Simple_types@V?$reference_wrapper@VStripPtR@@@std@@@std@@@std@@@std@@@std@@QEAA@XZ
	??1?$reverse_iterator@V?$_Vector_iterator@V?$_Vector_val@U?$_Simple_types@VStripPtL3@@@std@@@std@@@std@@@std@@QEAA@XZ
	??1?$set@HU?$less@H@std@@V?$allocator@H@2@@std@@QEAA@XZ
	??1?$set@VPair@@U?$less@VPair@@@std@@V?$allocator@VPair@@@3@@std@@QEAA@XZ
	??1?$set@VStripPtL@@U?$less@VStripPtL@@@std@@V?$allocator@VStripPtL@@@3@@std@@QEAA@XZ
	??1?$shared_ptr@V?$map@VPair@@V?$vector@VVert4@@V?$allocator@VVert4@@@std@@@std@@U?$less@VPair@@@3@V?$allocator@U?$pair@$$CBVPair@@V?$vector@VVert4@@V?$allocator@VVert4@@@std@@@std@@@std@@@3@@std@@@std@@QEAA@XZ
	??1?$shared_ptr@V?$set@HU?$less@H@std@@V?$allocator@H@2@@std@@@std@@QEAA@XZ
	??1?$shared_ptr@VBB@@@std@@QEAA@XZ
	??1?$shared_ptr@VD@@@std@@QEAA@XZ
	??1?$shared_ptr@VLine@@@std@@QEAA@XZ
	??1?$shared_ptr@VObj@@@std@@QEAA@XZ
	??1?$unique_ptr@V_Facet_base@std@@U?$default_delete@V_Facet_base@std@@@2@@std@@QEAA@XZ
	??1?$unordered_map@VPair@@VSubP@@Up_h@@U?$equal_to@VPair@@@std@@V?$allocator@U?$pair@$$CBVPair@@VSubP@@@std@@@5@@std@@QEAA@XZ
	??1?$unordered_set@VPair@@Up_h@@U?$equal_to@VPair@@@std@@V?$allocator@VPair@@@4@@std@@QEAA@XZ
	??1?$vector@HV?$allocator@H@std@@@std@@QEAA@XZ
	??1?$vector@PEBVInterPtType@@V?$allocator@PEBVInterPtType@@@std@@@std@@QEAA@XZ
	??1?$vector@U?$pair@VInterPtType@@V1@@std@@V?$allocator@U?$pair@VInterPtType@@V1@@std@@@2@@std@@QEAA@XZ
	??1?$vector@V?$_List_unchecked_const_iterator@V?$_List_val@U?$_List_simple_types@VPair@@@std@@@std@@U_Iterator_base0@2@@std@@V?$allocator@V?$_List_unchecked_const_iterator@V?$_List_val@U?$_List_simple_types@VPair@@@std@@@std@@U_Iterator_base0@2@@std@@@2@@std@@QEAA@XZ
	??1?$vector@V?$_List_unchecked_iterator@V?$_List_val@U?$_List_simple_types@U?$pair@$$CBVPair@@VSubP@@@std@@@std@@@std@@@std@@V?$allocator@V?$_List_unchecked_iterator@V?$_List_val@U?$_List_simple_types@U?$pair@$$CBVPair@@VSubP@@@std@@@std@@@std@@@std@@@2@@std@@QEAA@XZ
	??1?$vector@V?$deque@VStripPtR@@V?$allocator@VStripPtR@@@std@@@std@@V?$allocator@V?$deque@VStripPtR@@V?$allocator@VStripPtR@@@std@@@std@@@2@@std@@QEAA@XZ
	??1?$vector@V?$reference_wrapper@VStripPt@@@std@@V?$allocator@V?$reference_wrapper@VStripPt@@@std@@@2@@std@@QEAA@XZ
	??1?$vector@V?$reference_wrapper@VStripPtR@@@std@@V?$allocator@V?$reference_wrapper@VStripPtR@@@std@@@2@@std@@QEAA@XZ
	??1?$vector@V?$shared_ptr@VLine@@@std@@V?$allocator@V?$shared_ptr@VLine@@@std@@@2@@std@@QEAA@XZ
	??1?$vector@V?$shared_ptr@VObj@@@std@@V?$allocator@V?$shared_ptr@VObj@@@std@@@2@@std@@QEAA@XZ
	??1?$vector@V?$vector@HV?$allocator@H@std@@@std@@V?$allocator@V?$vector@HV?$allocator@H@std@@@std@@@2@@std@@QEAA@XZ
	??1?$vector@V?$vector@VPoint@@V?$allocator@VPoint@@@std@@@std@@V?$allocator@V?$vector@VPoint@@V?$allocator@VPoint@@@std@@@std@@@2@@std@@QEAA@XZ
	??1?$vector@VInterPtType@@V?$allocator@VInterPtType@@@std@@@std@@QEAA@XZ
	??1?$vector@VMergePt@@V?$allocator@VMergePt@@@std@@@std@@QEAA@XZ
	??1?$vector@VNode@@V?$allocator@VNode@@@std@@@std@@QEAA@XZ
	??1?$vector@VPair@@V?$allocator@VPair@@@std@@@std@@QEAA@XZ
	??1?$vector@VPoint@@V?$allocator@VPoint@@@std@@@std@@QEAA@XZ
	??1?$vector@VPolyAtEdge@@V?$allocator@VPolyAtEdge@@@std@@@std@@QEAA@XZ
	??1?$vector@VStripPtL2@@V?$allocator@VStripPtL2@@@std@@@std@@QEAA@XZ
	??1?$vector@VStripPtL3@@V?$allocator@VStripPtL3@@@std@@@std@@QEAA@XZ
	??1?$vector@VStripPtL@@V?$allocator@VStripPtL@@@std@@@std@@QEAA@XZ
	??1?$vector@VVert6@@V?$allocator@VVert6@@@std@@@std@@QEAA@XZ
	??1AABB@@QEAA@XZ
	??1Decomposer@@QEAA@XZ
	??1Merger@@QEAA@XZ
	??1Node@@QEAA@XZ
	??1PStrips@@QEAA@XZ
	??1StripPt@@QEAA@XZ
	??1StripPtL2@@QEAA@XZ
	??1SubP@@QEAA@XZ
	??1_Bxty@?$_String_val@U?$_Simple_types@D@std@@@std@@QEAA@XZ
	??1_Iterator_base12@std@@QEAA@XZ
	??1_Ref_count_base@std@@UEAA@XZ
	??1_Sentry_base@?$basic_ostream@DU?$char_traits@D@std@@@std@@QEAA@XZ
	??1_Wrapper@@QEAA@XZ
	??1bad_cast@std@@UEAA@XZ
	??1exception@std@@UEAA@XZ
	??1locale@std@@QEAA@XZ
	??1sentry@?$basic_ostream@DU?$char_traits@D@std@@@std@@QEAA@XZ
	??1vtkPolyDataBooleanFilter@@MEAA@XZ
	??1vtkPolyDataContactFilter@@MEAA@XZ
	??2@YAPEAX_KPEAX@Z
	??4?$_Deque_const_iterator@V?$_Deque_val@U?$_Deque_simple_types@H@std@@@std@@@std@@QEAAAEAV01@$$QEAV01@@Z
	??4?$_Deque_const_iterator@V?$_Deque_val@U?$_Deque_simple_types@V?$vector@HV?$allocator@H@std@@@std@@@std@@@std@@@std@@QEAAAEAV01@$$QEAV01@@Z
	??4?$_Deque_const_iterator@V?$_Deque_val@U?$_Deque_simple_types@VStripPtR@@@std@@@std@@@std@@QEAAAEAV01@$$QEAV01@@Z
	??4?$_Deque_iterator@V?$_Deque_val@U?$_Deque_simple_types@H@std@@@std@@@std@@QEAAAEAV01@$$QEAV01@@Z
	??4?$_Deque_iterator@V?$_Deque_val@U?$_Deque_simple_types@V?$vector@HV?$allocator@H@std@@@std@@@std@@@std@@@std@@QEAAAEAV01@$$QEAV01@@Z
	??4?$_Deque_iterator@V?$_Deque_val@U?$_Deque_simple_types@VStripPtR@@@std@@@std@@@std@@QEAAAEAV01@$$QEAV01@@Z
	??4?$_Tree_const_iterator@V?$_Tree_val@U?$_Tree_simple_types@U?$pair@$$CBHH@std@@@std@@@std@@@std@@QEAAAEAV01@$$QEAV01@@Z
	??4?$_Tree_const_iterator@V?$_Tree_val@U?$_Tree_simple_types@U?$pair@$$CBHV?$set@HU?$less@H@std@@V?$allocator@H@2@@std@@@std@@@std@@@std@@@std@@QEAAAEAV01@$$QEAV01@@Z
	??4?$_Tree_const_iterator@V?$_Tree_val@U?$_Tree_simple_types@U?$pair@$$CBHV?$vector@HV?$allocator@H@std@@@std@@@std@@@std@@@std@@@std@@QEAAAEAV01@$$QEAV01@@Z
	??4?$_Tree_const_iterator@V?$_Tree_val@U?$_Tree_simple_types@U?$pair@$$CBHV?$vector@V?$reference_wrapper@VStripPtR@@@std@@V?$allocator@V?$reference_wrapper@VStripPtR@@@std@@@2@@std@@@std@@@std@@@std@@@std@@QEAAAEAV01@$$QEAV01@@Z
	??4?$_Tree_const_iterator@V?$_Tree_val@U?$_Tree_simple_types@U?$pair@$$CBHVPStrips@@@std@@@std@@@std@@@std@@QEAAAEAV01@$$QEAV01@@Z
	??4?$_Tree_const_iterator@V?$_Tree_val@U?$_Tree_simple_types@U?$pair@$$CBHVStripPt@@@std@@@std@@@std@@@std@@QEAAAEAV01@$$QEAV01@@Z
	??4?$_Tree_const_iterator@V?$_Tree_val@U?$_Tree_simple_types@U?$pair@$$CBHW4Rel@@@std@@@std@@@std@@@std@@QEAAAEAV01@$$QEAV01@@Z
	??4?$_Tree_const_iterator@V?$_Tree_val@U?$_Tree_simple_types@U?$pair@$$CBVPair@@V?$map@HHU?$less@H@std@@V?$allocator@U?$pair@$$CBHH@std@@@2@@std@@@std@@@std@@@std@@@std@@QEAAAEAV01@$$QEAV01@@Z
	??4?$_Tree_const_iterator@V?$_Tree_val@U?$_Tree_simple_types@VStripPtL@@@std@@@std@@@std@@QEAAAEAV01@$$QEAV01@@Z
	??4?$_Tree_iterator@V?$_Tree_val@U?$_Tree_simple_types@U?$pair@$$CBHH@std@@@std@@@std@@@std@@QEAAAEAV01@$$QEAV01@@Z
	??4?$_Tree_iterator@V?$_Tree_val@U?$_Tree_simple_types@U?$pair@$$CBHV?$set@HU?$less@H@std@@V?$allocator@H@2@@std@@@std@@@std@@@std@@@std@@QEAAAEAV01@$$QEAV01@@Z
	??4?$_Tree_iterator@V?$_Tree_val@U?$_Tree_simple_types@U?$pair@$$CBHV?$vector@HV?$allocator@H@std@@@std@@@std@@@std@@@std@@@std@@QEAAAEAV01@$$QEAV01@@Z
	??4?$_Tree_iterator@V?$_Tree_val@U?$_Tree_simple_types@U?$pair@$$CBHV?$vector@V?$reference_wrapper@VStripPtR@@@std@@V?$allocator@V?$reference_wrapper@VStripPtR@@@std@@@2@@std@@@std@@@std@@@std@@@std@@QEAAAEAV01@$$QEAV01@@Z
	??4?$_Tree_iterator@V?$_Tree_val@U?$_Tree_simple_types@U?$pair@$$CBHVPStrips@@@std@@@std@@@std@@@std@@QEAAAEAV01@$$QEAV01@@Z
	??4?$_Tree_iterator@V?$_Tree_val@U?$_Tree_simple_types@U?$pair@$$CBHVStripPt@@@std@@@std@@@std@@@std@@QEAAAEAV01@$$QEAV01@@Z
	??4?$_Tree_iterator@V?$_Tree_val@U?$_Tree_simple_types@U?$pair@$$CBVPair@@V?$map@HHU?$less@H@std@@V?$allocator@U?$pair@$$CBHH@std@@@2@@std@@@std@@@std@@@std@@@std@@QEAAAEAV01@$$QEAV01@@Z
	??4?$_Tree_unchecked_const_iterator@V?$_Tree_val@U?$_Tree_simple_types@U?$pair@$$CBHH@std@@@std@@@std@@U_Iterator_base12@2@@std@@QEAAAEAV01@$$QEAV01@@Z
	??4?$_Tree_unchecked_const_iterator@V?$_Tree_val@U?$_Tree_simple_types@U?$pair@$$CBHV?$set@HU?$less@H@std@@V?$allocator@H@2@@std@@@std@@@std@@@std@@U_Iterator_base12@2@@std@@QEAAAEAV01@$$QEAV01@@Z
	??4?$_Tree_unchecked_const_iterator@V?$_Tree_val@U?$_Tree_simple_types@U?$pair@$$CBHV?$vector@HV?$allocator@H@std@@@std@@@std@@@std@@@std@@U_Iterator_base12@2@@std@@QEAAAEAV01@$$QEAV01@@Z
	??4?$_Tree_unchecked_const_iterator@V?$_Tree_val@U?$_Tree_simple_types@U?$pair@$$CBHV?$vector@V?$reference_wrapper@VStripPtR@@@std@@V?$allocator@V?$reference_wrapper@VStripPtR@@@std@@@2@@std@@@std@@@std@@@std@@U_Iterator_base12@2@@std@@QEAAAEAV01@$$QEAV01@@Z
	??4?$_Tree_unchecked_const_iterator@V?$_Tree_val@U?$_Tree_simple_types@U?$pair@$$CBHVPStrips@@@std@@@std@@@std@@U_Iterator_base12@2@@std@@QEAAAEAV01@$$QEAV01@@Z
	??4?$_Tree_unchecked_const_iterator@V?$_Tree_val@U?$_Tree_simple_types@U?$pair@$$CBHVStripPt@@@std@@@std@@@std@@U_Iterator_base12@2@@std@@QEAAAEAV01@$$QEAV01@@Z
	??4?$_Tree_unchecked_const_iterator@V?$_Tree_val@U?$_Tree_simple_types@U?$pair@$$CBHW4Rel@@@std@@@std@@@std@@U_Iterator_base12@2@@std@@QEAAAEAV01@$$QEAV01@@Z
	??4?$_Tree_unchecked_const_iterator@V?$_Tree_val@U?$_Tree_simple_types@U?$pair@$$CBVPair@@V?$map@HHU?$less@H@std@@V?$allocator@U?$pair@$$CBHH@std@@@2@@std@@@std@@@std@@@std@@U_Iterator_base12@2@@std@@QEAAAEAV01@$$QEAV01@@Z
	??4?$_Tree_unchecked_const_iterator@V?$_Tree_val@U?$_Tree_simple_types@VStripPtL@@@std@@@std@@U_Iterator_base12@2@@std@@QEAAAEAV01@$$QEAV01@@Z
	??4?$_Vector_const_iterator@V?$_Vector_val@U?$_Simple_types@H@std@@@std@@@std@@QEAAAEAV01@$$QEAV01@@Z
	??4?$_Vector_const_iterator@V?$_Vector_val@U?$_Simple_types@U?$pair@VInterPtType@@V1@@std@@@std@@@std@@@std@@QEAAAEAV01@$$QEAV01@@Z
	??4?$_Vector_const_iterator@V?$_Vector_val@U?$_Simple_types@V?$deque@VStripPtR@@V?$allocator@VStripPtR@@@std@@@std@@@std@@@std@@@std@@QEAAAEAV01@$$QEAV01@@Z
	??4?$_Vector_const_iterator@V?$_Vector_val@U?$_Simple_types@V?$reference_wrapper@VStripPtR@@@std@@@std@@@std@@@std@@QEAAAEAV01@$$QEAV01@@Z
	??4?$_Vector_const_iterator@V?$_Vector_val@U?$_Simple_types@V?$shared_ptr@VLine@@@std@@@std@@@std@@@std@@QEAAAEAV01@$$QEAV01@@Z
	??4?$_Vector_const_iterator@V?$_Vector_val@U?$_Simple_types@V?$shared_ptr@VObj@@@std@@@std@@@std@@@std@@QEAAAEAV01@$$QEAV01@@Z
	??4?$_Vector_const_iterator@V?$_Vector_val@U?$_Simple_types@V?$vector@HV?$allocator@H@std@@@std@@@std@@@std@@@std@@QEAAAEAV01@$$QEAV01@@Z
	??4?$_Vector_const_iterator@V?$_Vector_val@U?$_Simple_types@VInterPtType@@@std@@@std@@@std@@QEAAAEAV01@$$QEAV01@@Z
	??4?$_Vector_const_iterator@V?$_Vector_val@U?$_Simple_types@VMergePt@@@std@@@std@@@std@@QEAAAEAV01@$$QEAV01@@Z
	??4?$_Vector_const_iterator@V?$_Vector_val@U?$_Simple_types@VPair@@@std@@@std@@@std@@QEAAAEAV01@$$QEAV01@@Z
	??4?$_Vector_const_iterator@V?$_Vector_val@U?$_Simple_types@VStripPtL2@@@std@@@std@@@std@@QEAAAEAV01@$$QEAV01@@Z
	??4?$_Vector_const_iterator@V?$_Vector_val@U?$_Simple_types@VStripPtL3@@@std@@@std@@@std@@QEAAAEAV01@$$QEAV01@@Z
	??4?$_Vector_const_iterator@V?$_Vector_val@U?$_Simple_types@VStripPtL@@@std@@@std@@@std@@QEAAAEAV01@$$QEAV01@@Z
	??4?$_Vector_iterator@V?$_Vector_val@U?$_Simple_types@H@std@@@std@@@std@@QEAAAEAV01@$$QEAV01@@Z
	??4?$_Vector_iterator@V?$_Vector_val@U?$_Simple_types@V?$deque@VStripPtR@@V?$allocator@VStripPtR@@@std@@@std@@@std@@@std@@@std@@QEAAAEAV01@$$QEAV01@@Z
	??4?$_Vector_iterator@V?$_Vector_val@U?$_Simple_types@V?$reference_wrapper@VStripPtR@@@std@@@std@@@std@@@std@@QEAAAEAV01@$$QEAV01@@Z
	??4?$_Vector_iterator@V?$_Vector_val@U?$_Simple_types@V?$vector@HV?$allocator@H@std@@@std@@@std@@@std@@@std@@QEAAAEAV01@$$QEAV01@@Z
	??4?$_Vector_iterator@V?$_Vector_val@U?$_Simple_types@VInterPtType@@@std@@@std@@@std@@QEAAAEAV01@$$QEAV01@@Z
	??4?$_Vector_iterator@V?$_Vector_val@U?$_Simple_types@VMergePt@@@std@@@std@@@std@@QEAAAEAV01@$$QEAV01@@Z
	??4?$_Vector_iterator@V?$_Vector_val@U?$_Simple_types@VStripPtL3@@@std@@@std@@@std@@QEAAAEAV01@$$QEAV01@@Z
	??4?$deque@VStripPtR@@V?$allocator@VStripPtR@@@std@@@std@@QEAAAEAV01@$$QEAV01@@Z
	??4?$reverse_iterator@V?$_Deque_iterator@V?$_Deque_val@U?$_Deque_simple_types@VStripPtR@@@std@@@std@@@std@@@std@@QEAAAEAV01@$$QEAV01@@Z
	??4?$reverse_iterator@V?$_Vector_const_iterator@V?$_Vector_val@U?$_Simple_types@VPair@@@std@@@std@@@std@@@std@@QEAAAEAV01@$$QEAV01@@Z
	??4?$vector@HV?$allocator@H@std@@@std@@QEAAAEAV01@$$QEAV01@@Z
	??4?$vector@VPair@@V?$allocator@VPair@@@std@@@std@@QEAAAEAV01@AEBV01@@Z
	??4Point@@QEAAAEAV0@AEBV0@@Z
	??4StripPt@@QEAAAEAV0@AEBV0@@Z
	??4_Iterator_base12@std@@QEAAAEAU01@AEBU01@@Z
	??8?$_Deque_const_iterator@V?$_Deque_val@U?$_Deque_simple_types@H@std@@@std@@@std@@QEBA_NAEBV01@@Z
	??8?$_Deque_const_iterator@V?$_Deque_val@U?$_Deque_simple_types@V?$vector@HV?$allocator@H@std@@@std@@@std@@@std@@@std@@QEBA_NAEBV01@@Z
	??8?$_Deque_const_iterator@V?$_Deque_val@U?$_Deque_simple_types@VStripPtR@@@std@@@std@@@std@@QEBA_NAEBV01@@Z
	??8?$_Deque_unchecked_const_iterator@V?$_Deque_val@U?$_Deque_simple_types@H@std@@@std@@@std@@QEBA_NAEBV01@@Z
	??8?$_Deque_unchecked_const_iterator@V?$_Deque_val@U?$_Deque_simple_types@VStripPtR@@@std@@@std@@@std@@QEBA_NAEBV01@@Z
	??8?$_Tree_const_iterator@V?$_Tree_val@U?$_Tree_simple_types@U?$pair@$$CBHH@std@@@std@@@std@@@std@@QEBA_NAEBV01@@Z
	??8?$_Tree_const_iterator@V?$_Tree_val@U?$_Tree_simple_types@U?$pair@$$CBHV?$set@HU?$less@H@std@@V?$allocator@H@2@@std@@@std@@@std@@@std@@@std@@QEBA_NAEBV01@@Z
	??8?$_Tree_const_iterator@V?$_Tree_val@U?$_Tree_simple_types@U?$pair@$$CBHV?$vector@HV?$allocator@H@std@@@std@@@std@@@std@@@std@@@std@@QEBA_NAEBV01@@Z
	??8?$_Tree_const_iterator@V?$_Tree_val@U?$_Tree_simple_types@U?$pair@$$CBHV?$vector@V?$reference_wrapper@VStripPtR@@@std@@V?$allocator@V?$reference_wrapper@VStripPtR@@@std@@@2@@std@@@std@@@std@@@std@@@std@@QEBA_NAEBV01@@Z
	??8?$_Tree_const_iterator@V?$_Tree_val@U?$_Tree_simple_types@U?$pair@$$CBHVPStrips@@@std@@@std@@@std@@@std@@QEBA_NAEBV01@@Z
	??8?$_Tree_const_iterator@V?$_Tree_val@U?$_Tree_simple_types@U?$pair@$$CBHVStripPt@@@std@@@std@@@std@@@std@@QEBA_NAEBV01@@Z
	??8?$_Tree_const_iterator@V?$_Tree_val@U?$_Tree_simple_types@U?$pair@$$CBHW4Rel@@@std@@@std@@@std@@@std@@QEBA_NAEBV01@@Z
	??8?$_Tree_const_iterator@V?$_Tree_val@U?$_Tree_simple_types@U?$pair@$$CBVPair@@V?$map@HHU?$less@H@std@@V?$allocator@U?$pair@$$CBHH@std@@@2@@std@@@std@@@std@@@std@@@std@@QEBA_NAEBV01@@Z
	??8?$_Tree_const_iterator@V?$_Tree_val@U?$_Tree_simple_types@VStripPtL@@@std@@@std@@@std@@QEBA_NAEBV01@@Z
	??8?$_Tree_unchecked_const_iterator@V?$_Tree_val@U?$_Tree_simple_types@H@std@@@std@@U_Iterator_base0@2@@std@@QEBA_NAEBV01@@Z
	??8?$_Tree_unchecked_const_iterator@V?$_Tree_val@U?$_Tree_simple_types@U?$pair@$$CBHVStripPt@@@std@@@std@@@std@@U_Iterator_base0@2@@std@@QEBA_NAEBV01@@Z
	??8?$_Tree_unchecked_const_iterator@V?$_Tree_val@U?$_Tree_simple_types@VStripPtL3@@@std@@@std@@U_Iterator_base0@2@@std@@QEBA_NAEBV01@@Z
	??8?$_Vector_const_iterator@V?$_Vector_val@U?$_Simple_types@H@std@@@std@@@std@@QEBA_NAEBV01@@Z
	??8?$_Vector_const_iterator@V?$_Vector_val@U?$_Simple_types@U?$pair@VInterPtType@@V1@@std@@@std@@@std@@@std@@QEBA_NAEBV01@@Z
	??8?$_Vector_const_iterator@V?$_Vector_val@U?$_Simple_types@V?$deque@VStripPtR@@V?$allocator@VStripPtR@@@std@@@std@@@std@@@std@@@std@@QEBA_NAEBV01@@Z
	??8?$_Vector_const_iterator@V?$_Vector_val@U?$_Simple_types@V?$reference_wrapper@VStripPtR@@@std@@@std@@@std@@@std@@QEBA_NAEBV01@@Z
	??8?$_Vector_const_iterator@V?$_Vector_val@U?$_Simple_types@V?$shared_ptr@VLine@@@std@@@std@@@std@@@std@@QEBA_NAEBV01@@Z
	??8?$_Vector_const_iterator@V?$_Vector_val@U?$_Simple_types@V?$shared_ptr@VObj@@@std@@@std@@@std@@@std@@QEBA_NAEBV01@@Z
	??8?$_Vector_const_iterator@V?$_Vector_val@U?$_Simple_types@V?$vector@HV?$allocator@H@std@@@std@@@std@@@std@@@std@@QEBA_NAEBV01@@Z
	??8?$_Vector_const_iterator@V?$_Vector_val@U?$_Simple_types@VInterPtType@@@std@@@std@@@std@@QEBA_NAEBV01@@Z
	??8?$_Vector_const_iterator@V?$_Vector_val@U?$_Simple_types@VMergePt@@@std@@@std@@@std@@QEBA_NAEBV01@@Z
	??8?$_Vector_const_iterator@V?$_Vector_val@U?$_Simple_types@VPair@@@std@@@std@@@std@@QEBA_NAEBV01@@Z
	??8?$_Vector_const_iterator@V?$_Vector_val@U?$_Simple_types@VStripPtL2@@@std@@@std@@@std@@QEBA_NAEBV01@@Z
	??8?$_Vector_const_iterator@V?$_Vector_val@U?$_Simple_types@VStripPtL3@@@std@@@std@@@std@@QEBA_NAEBV01@@Z
	??8?$_Vector_const_iterator@V?$_Vector_val@U?$_Simple_types@VStripPtL@@@std@@@std@@@std@@QEBA_NAEBV01@@Z
	??9?$_Deque_const_iterator@V?$_Deque_val@U?$_Deque_simple_types@H@std@@@std@@@std@@QEBA_NAEBV01@@Z
	??9?$_Deque_const_iterator@V?$_Deque_val@U?$_Deque_simple_types@V?$vector@HV?$allocator@H@std@@@std@@@std@@@std@@@std@@QEBA_NAEBV01@@Z
	??9?$_Deque_const_iterator@V?$_Deque_val@U?$_Deque_simple_types@VStripPtR@@@std@@@std@@@std@@QEBA_NAEBV01@@Z
	??9?$_Deque_unchecked_const_iterator@V?$_Deque_val@U?$_Deque_simple_types@H@std@@@std@@@std@@QEBA_NAEBV01@@Z
	??9?$_Deque_unchecked_const_iterator@V?$_Deque_val@U?$_Deque_simple_types@VStripPtR@@@std@@@std@@@std@@QEBA_NAEBV01@@Z
	??9?$_Tree_const_iterator@V?$_Tree_val@U?$_Tree_simple_types@U?$pair@$$CBHH@std@@@std@@@std@@@std@@QEBA_NAEBV01@@Z
	??9?$_Tree_const_iterator@V?$_Tree_val@U?$_Tree_simple_types@U?$pair@$$CBHV?$set@HU?$less@H@std@@V?$allocator@H@2@@std@@@std@@@std@@@std@@@std@@QEBA_NAEBV01@@Z
	??9?$_Tree_const_iterator@V?$_Tree_val@U?$_Tree_simple_types@U?$pair@$$CBHV?$vector@HV?$allocator@H@std@@@std@@@std@@@std@@@std@@@std@@QEBA_NAEBV01@@Z
	??9?$_Tree_const_iterator@V?$_Tree_val@U?$_Tree_simple_types@U?$pair@$$CBHV?$vector@V?$reference_wrapper@VStripPtR@@@std@@V?$allocator@V?$reference_wrapper@VStripPtR@@@std@@@2@@std@@@std@@@std@@@std@@@std@@QEBA_NAEBV01@@Z
	??9?$_Tree_const_iterator@V?$_Tree_val@U?$_Tree_simple_types@U?$pair@$$CBHVPStrips@@@std@@@std@@@std@@@std@@QEBA_NAEBV01@@Z
	??9?$_Tree_const_iterator@V?$_Tree_val@U?$_Tree_simple_types@U?$pair@$$CBHVStripPt@@@std@@@std@@@std@@@std@@QEBA_NAEBV01@@Z
	??9?$_Tree_const_iterator@V?$_Tree_val@U?$_Tree_simple_types@U?$pair@$$CBHW4Rel@@@std@@@std@@@std@@@std@@QEBA_NAEBV01@@Z
	??9?$_Tree_const_iterator@V?$_Tree_val@U?$_Tree_simple_types@U?$pair@$$CBVPair@@V?$map@HHU?$less@H@std@@V?$allocator@U?$pair@$$CBHH@std@@@2@@std@@@std@@@std@@@std@@@std@@QEBA_NAEBV01@@Z
	??9?$_Tree_const_iterator@V?$_Tree_val@U?$_Tree_simple_types@VStripPtL@@@std@@@std@@@std@@QEBA_NAEBV01@@Z
	??9?$_Tree_unchecked_const_iterator@V?$_Tree_val@U?$_Tree_simple_types@H@std@@@std@@U_Iterator_base0@2@@std@@QEBA_NAEBV01@@Z
	??9?$_Tree_unchecked_const_iterator@V?$_Tree_val@U?$_Tree_simple_types@U?$pair@$$CBHV?$vector@HV?$allocator@H@std@@@std@@@std@@@std@@@std@@U_Iterator_base0@2@@std@@QEBA_NU_Default_sentinel@1@@Z
	??9?$_Tree_unchecked_const_iterator@V?$_Tree_val@U?$_Tree_simple_types@U?$pair@$$CBHVPStrips@@@std@@@std@@@std@@U_Iterator_base0@2@@std@@QEBA_NU_Default_sentinel@1@@Z
	??9?$_Tree_unchecked_const_iterator@V?$_Tree_val@U?$_Tree_simple_types@U?$pair@$$CBHVStripPt@@@std@@@std@@@std@@U_Iterator_base0@2@@std@@QEBA_NAEBV01@@Z
	??9?$_Tree_unchecked_const_iterator@V?$_Tree_val@U?$_Tree_simple_types@U?$pair@$$CBHVStripPt@@@std@@@std@@@std@@U_Iterator_base0@2@@std@@QEBA_NU_Default_sentinel@1@@Z
	??9?$_Tree_unchecked_const_iterator@V?$_Tree_val@U?$_Tree_simple_types@VStripPtL3@@@std@@@std@@U_Iterator_base0@2@@std@@QEBA_NAEBV01@@Z
	??9?$_Vector_const_iterator@V?$_Vector_val@U?$_Simple_types@H@std@@@std@@@std@@QEBA_NAEBV01@@Z
	??9?$_Vector_const_iterator@V?$_Vector_val@U?$_Simple_types@U?$pair@VInterPtType@@V1@@std@@@std@@@std@@@std@@QEBA_NAEBV01@@Z
	??9?$_Vector_const_iterator@V?$_Vector_val@U?$_Simple_types@V?$deque@VStripPtR@@V?$allocator@VStripPtR@@@std@@@std@@@std@@@std@@@std@@QEBA_NAEBV01@@Z
	??9?$_Vector_const_iterator@V?$_Vector_val@U?$_Simple_types@V?$reference_wrapper@VStripPtR@@@std@@@std@@@std@@@std@@QEBA_NAEBV01@@Z
	??9?$_Vector_const_iterator@V?$_Vector_val@U?$_Simple_types@V?$shared_ptr@VLine@@@std@@@std@@@std@@@std@@QEBA_NAEBV01@@Z
	??9?$_Vector_const_iterator@V?$_Vector_val@U?$_Simple_types@V?$shared_ptr@VObj@@@std@@@std@@@std@@@std@@QEBA_NAEBV01@@Z
	??9?$_Vector_const_iterator@V?$_Vector_val@U?$_Simple_types@V?$vector@HV?$allocator@H@std@@@std@@@std@@@std@@@std@@QEBA_NAEBV01@@Z
	??9?$_Vector_const_iterator@V?$_Vector_val@U?$_Simple_types@VInterPtType@@@std@@@std@@@std@@QEBA_NAEBV01@@Z
	??9?$_Vector_const_iterator@V?$_Vector_val@U?$_Simple_types@VMergePt@@@std@@@std@@@std@@QEBA_NAEBV01@@Z
	??9?$_Vector_const_iterator@V?$_Vector_val@U?$_Simple_types@VPair@@@std@@@std@@@std@@QEBA_NAEBV01@@Z
	??9?$_Vector_const_iterator@V?$_Vector_val@U?$_Simple_types@VStripPtL2@@@std@@@std@@@std@@QEBA_NAEBV01@@Z
	??9?$_Vector_const_iterator@V?$_Vector_val@U?$_Simple_types@VStripPtL3@@@std@@@std@@@std@@QEBA_NAEBV01@@Z
	??9?$_Vector_const_iterator@V?$_Vector_val@U?$_Simple_types@VStripPtL@@@std@@@std@@@std@@QEBA_NAEBV01@@Z
	??A?$deque@HV?$allocator@H@std@@@std@@QEAAAEAH_K@Z
	??A?$deque@VStripPtR@@V?$allocator@VStripPtR@@@std@@@std@@QEAAAEAVStripPtR@@_K@Z
	??A?$map@HHU?$less@H@std@@V?$allocator@U?$pair@$$CBHH@std@@@2@@std@@QEAAAEAHAEBH@Z
	??A?$map@HV?$set@HU?$less@H@std@@V?$allocator@H@2@@std@@U?$less@H@2@V?$allocator@U?$pair@$$CBHV?$set@HU?$less@H@std@@V?$allocator@H@2@@std@@@std@@@2@@std@@QEAAAEAV?$set@HU?$less@H@std@@V?$allocator@H@2@@1@AEBH@Z
	??A?$map@HV?$vector@HV?$allocator@H@std@@@std@@U?$less@H@2@V?$allocator@U?$pair@$$CBHV?$vector@HV?$allocator@H@std@@@std@@@std@@@2@@std@@QEAAAEAV?$vector@HV?$allocator@H@std@@@1@AEBH@Z
	??A?$map@HV?$vector@V?$reference_wrapper@VStripPtR@@@std@@V?$allocator@V?$reference_wrapper@VStripPtR@@@std@@@2@@std@@U?$less@H@2@V?$allocator@U?$pair@$$CBHV?$vector@V?$reference_wrapper@VStripPtR@@@std@@V?$allocator@V?$reference_wrapper@VStripPtR@@@std@@@2@@std@@@std@@@2@@std@@QEAAAEAV?$vector@V?$reference_wrapper@VStripPtR@@@std@@V?$allocator@V?$reference_wrapper@VStripPtR@@@std@@@2@@1@AEBH@Z
	??A?$map@HVPStrips@@U?$less@H@std@@V?$allocator@U?$pair@$$CBHVPStrips@@@std@@@3@@std@@QEAAAEAVPStrips@@AEBH@Z
	??A?$map@HVStripPt@@U?$less@H@std@@V?$allocator@U?$pair@$$CBHVStripPt@@@std@@@3@@std@@QEAAAEAVStripPt@@AEBH@Z
	??A?$map@HW4Rel@@U?$less@H@std@@V?$allocator@U?$pair@$$CBHW4Rel@@@std@@@3@@std@@QEAAAEAW4Rel@@AEBH@Z
	??A?$map@VPair@@V?$map@HHU?$less@H@std@@V?$allocator@U?$pair@$$CBHH@std@@@2@@std@@U?$less@VPair@@@3@V?$allocator@U?$pair@$$CBVPair@@V?$map@HHU?$less@H@std@@V?$allocator@U?$pair@$$CBHH@std@@@2@@std@@@std@@@3@@std@@QEAAAEAV?$map@HHU?$less@H@std@@V?$allocator@U?$pair@$$CBHH@std@@@2@@1@$$QEAVPair@@@Z
	??A?$vector@HV?$allocator@H@std@@@std@@QEAAAEAH_K@Z
	??A?$vector@V?$deque@VStripPtR@@V?$allocator@VStripPtR@@@std@@@std@@V?$allocator@V?$deque@VStripPtR@@V?$allocator@VStripPtR@@@std@@@std@@@2@@std@@QEAAAEAV?$deque@VStripPtR@@V?$allocator@VStripPtR@@@std@@@1@_K@Z
	??A?$vector@V?$vector@HV?$allocator@H@std@@@std@@V?$allocator@V?$vector@HV?$allocator@H@std@@@std@@@2@@std@@QEAAAEAV?$vector@HV?$allocator@H@std@@@1@_K@Z
	??A?$vector@VInterPtType@@V?$allocator@VInterPtType@@@std@@@std@@QEAAAEAVInterPtType@@_K@Z
	??A?$vector@VMergePt@@V?$allocator@VMergePt@@@std@@@std@@QEAAAEAVMergePt@@_K@Z
	??A?$vector@VNode@@V?$allocator@VNode@@@std@@@std@@QEAAAEAVNode@@_K@Z
	??A?$vector@VPair@@V?$allocator@VPair@@@std@@@std@@QEAAAEAVPair@@_K@Z
	??A?$vector@VPolyAtEdge@@V?$allocator@VPolyAtEdge@@@std@@@std@@QEAAAEAVPolyAtEdge@@_K@Z
	??B?$fpos@U_Mbstatet@@@std@@QEBA_JXZ
	??B?$reference_wrapper@VStripPt@@@std@@QEBAAEAVStripPt@@XZ
	??B?$reference_wrapper@VStripPtR@@@std@@QEBAAEAVStripPtR@@XZ
	??B?$shared_ptr@VD@@@std@@QEBA_NXZ
	??B?$shared_ptr@VObj@@@std@@QEBA_NXZ
	??Bsentry@?$basic_ostream@DU?$char_traits@D@std@@@std@@QEBA_NXZ
	??C?$_Deque_const_iterator@V?$_Deque_val@U?$_Deque_simple_types@VStripPtR@@@std@@@std@@@std@@QEBAPEBVStripPtR@@XZ
	??C?$_Deque_iterator@V?$_Deque_val@U?$_Deque_simple_types@VStripPtR@@@std@@@std@@@std@@QEBAPEAVStripPtR@@XZ
	??C?$_Tree_const_iterator@V?$_Tree_val@U?$_Tree_simple_types@U?$pair@$$CBHH@std@@@std@@@std@@@std@@QEBAPEBU?$pair@$$CBHH@1@XZ
	??C?$_Tree_const_iterator@V?$_Tree_val@U?$_Tree_simple_types@U?$pair@$$CBHV?$vector@HV?$allocator@H@std@@@std@@@std@@@std@@@std@@@std@@QEBAPEBU?$pair@$$CBHV?$vector@HV?$allocator@H@std@@@std@@@1@XZ
	??C?$_Tree_const_iterator@V?$_Tree_val@U?$_Tree_simple_types@U?$pair@$$CBHVPStrips@@@std@@@std@@@std@@@std@@QEBAPEBU?$pair@$$CBHVPStrips@@@1@XZ
	??C?$_Tree_const_iterator@V?$_Tree_val@U?$_Tree_simple_types@U?$pair@$$CBHW4Rel@@@std@@@std@@@std@@@std@@QEBAPEBU?$pair@$$CBHW4Rel@@@1@XZ
	??C?$_Tree_const_iterator@V?$_Tree_val@U?$_Tree_simple_types@VStripPtL@@@std@@@std@@@std@@QEBAPEBVStripPtL@@XZ
	??C?$_Tree_iterator@V?$_Tree_val@U?$_Tree_simple_types@U?$pair@$$CBHH@std@@@std@@@std@@@std@@QEBAPEAU?$pair@$$CBHH@1@XZ
	??C?$_Tree_iterator@V?$_Tree_val@U?$_Tree_simple_types@U?$pair@$$CBHV?$set@HU?$less@H@std@@V?$allocator@H@2@@std@@@std@@@std@@@std@@@std@@QEBAPEAU?$pair@$$CBHV?$set@HU?$less@H@std@@V?$allocator@H@2@@std@@@1@XZ
	??C?$_Tree_iterator@V?$_Tree_val@U?$_Tree_simple_types@U?$pair@$$CBHV?$vector@HV?$allocator@H@std@@@std@@@std@@@std@@@std@@@std@@QEBAPEAU?$pair@$$CBHV?$vector@HV?$allocator@H@std@@@std@@@1@XZ
	??C?$_Tree_iterator@V?$_Tree_val@U?$_Tree_simple_types@U?$pair@$$CBHV?$vector@V?$reference_wrapper@VStripPtR@@@std@@V?$allocator@V?$reference_wrapper@VStripPtR@@@std@@@2@@std@@@std@@@std@@@std@@@std@@QEBAPEAU?$pair@$$CBHV?$vector@V?$reference_wrapper@VStripPtR@@@std@@V?$allocator@V?$reference_wrapper@VStripPtR@@@std@@@2@@std@@@1@XZ
	??C?$_Tree_iterator@V?$_Tree_val@U?$_Tree_simple_types@U?$pair@$$CBHVPStrips@@@std@@@std@@@std@@@std@@QEBAPEAU?$pair@$$CBHVPStrips@@@1@XZ
	??C?$_Tree_iterator@V?$_Tree_val@U?$_Tree_simple_types@U?$pair@$$CBHVStripPt@@@std@@@std@@@std@@@std@@QEBAPEAU?$pair@$$CBHVStripPt@@@1@XZ
	??C?$_Tree_iterator@V?$_Tree_val@U?$_Tree_simple_types@U?$pair@$$CBVPair@@V?$map@HHU?$less@H@std@@V?$allocator@U?$pair@$$CBHH@std@@@2@@std@@@std@@@std@@@std@@@std@@QEBAPEAU?$pair@$$CBVPair@@V?$map@HHU?$less@H@std@@V?$allocator@U?$pair@$$CBHH@std@@@2@@std@@@1@XZ
	??C?$_Vector_const_iterator@V?$_Vector_val@U?$_Simple_types@U?$pair@VInterPtType@@V1@@std@@@std@@@std@@@std@@QEBAPEBU?$pair@VInterPtType@@V1@@1@XZ
	??C?$_Vector_const_iterator@V?$_Vector_val@U?$_Simple_types@V?$deque@VStripPtR@@V?$allocator@VStripPtR@@@std@@@std@@@std@@@std@@@std@@QEBAPEBV?$deque@VStripPtR@@V?$allocator@VStripPtR@@@std@@@1@XZ
	??C?$_Vector_const_iterator@V?$_Vector_val@U?$_Simple_types@VInterPtType@@@std@@@std@@@std@@QEBAPEBVInterPtType@@XZ
	??C?$_Vector_const_iterator@V?$_Vector_val@U?$_Simple_types@VMergePt@@@std@@@std@@@std@@QEBAPEBVMergePt@@XZ
	??C?$_Vector_const_iterator@V?$_Vector_val@U?$_Simple_types@VPair@@@std@@@std@@@std@@QEBAPEBVPair@@XZ
	??C?$_Vector_const_iterator@V?$_Vector_val@U?$_Simple_types@VStripPtL2@@@std@@@std@@@std@@QEBAPEBVStripPtL2@@XZ
	??C?$_Vector_const_iterator@V?$_Vector_val@U?$_Simple_types@VStripPtL3@@@std@@@std@@@std@@QEBAPEBVStripPtL3@@XZ
	??C?$_Vector_const_iterator@V?$_Vector_val@U?$_Simple_types@VStripPtL@@@std@@@std@@@std@@QEBAPEBVStripPtL@@XZ
	??C?$_Vector_iterator@V?$_Vector_val@U?$_Simple_types@V?$deque@VStripPtR@@V?$allocator@VStripPtR@@@std@@@std@@@std@@@std@@@std@@QEBAPEAV?$deque@VStripPtR@@V?$allocator@VStripPtR@@@std@@@1@XZ
	??C?$_Vector_iterator@V?$_Vector_val@U?$_Simple_types@VInterPtType@@@std@@@std@@@std@@QEBAPEAVInterPtType@@XZ
	??C?$_Vector_iterator@V?$_Vector_val@U?$_Simple_types@VMergePt@@@std@@@std@@@std@@QEBAPEAVMergePt@@XZ
	??C?$_Vector_iterator@V?$_Vector_val@U?$_Simple_types@VStripPtL3@@@std@@@std@@@std@@QEBAPEAVStripPtL3@@XZ
	??C?$reverse_iterator@V?$_Deque_iterator@V?$_Deque_val@U?$_Deque_simple_types@VStripPtR@@@std@@@std@@@std@@@std@@QEBAPEAVStripPtR@@XZ
	??C?$reverse_iterator@V?$_Vector_const_iterator@V?$_Vector_val@U?$_Simple_types@VPair@@@std@@@std@@@std@@@std@@QEBAPEBVPair@@XZ
	??D?$_Deque_const_iterator@V?$_Deque_val@U?$_Deque_simple_types@H@std@@@std@@@std@@QEBAAEBHXZ
	??D?$_Deque_const_iterator@V?$_Deque_val@U?$_Deque_simple_types@V?$vector@HV?$allocator@H@std@@@std@@@std@@@std@@@std@@QEBAAEBV?$vector@HV?$allocator@H@std@@@1@XZ
	??D?$_Deque_const_iterator@V?$_Deque_val@U?$_Deque_simple_types@VStripPtR@@@std@@@std@@@std@@QEBAAEBVStripPtR@@XZ
	??D?$_Deque_iterator@V?$_Deque_val@U?$_Deque_simple_types@H@std@@@std@@@std@@QEBAAEAHXZ
	??D?$_Deque_iterator@V?$_Deque_val@U?$_Deque_simple_types@V?$vector@HV?$allocator@H@std@@@std@@@std@@@std@@@std@@QEBAAEAV?$vector@HV?$allocator@H@std@@@1@XZ
	??D?$_Deque_iterator@V?$_Deque_val@U?$_Deque_simple_types@VStripPtR@@@std@@@std@@@std@@QEBAAEAVStripPtR@@XZ
	??D?$_Deque_unchecked_const_iterator@V?$_Deque_val@U?$_Deque_simple_types@H@std@@@std@@@std@@QEBAAEBHXZ
	??D?$_Deque_unchecked_const_iterator@V?$_Deque_val@U?$_Deque_simple_types@V?$vector@HV?$allocator@H@std@@@std@@@std@@@std@@@std@@QEBAAEBV?$vector@HV?$allocator@H@std@@@1@XZ
	??D?$_Deque_unchecked_const_iterator@V?$_Deque_val@U?$_Deque_simple_types@VStripPtR@@@std@@@std@@@std@@QEBAAEBVStripPtR@@XZ
	??D?$_Deque_unchecked_iterator@V?$_Deque_val@U?$_Deque_simple_types@H@std@@@std@@@std@@QEBAAEAHXZ
	??D?$_Deque_unchecked_iterator@V?$_Deque_val@U?$_Deque_simple_types@V?$vector@HV?$allocator@H@std@@@std@@@std@@@std@@@std@@QEBAAEAV?$vector@HV?$allocator@H@std@@@1@XZ
	??D?$_Deque_unchecked_iterator@V?$_Deque_val@U?$_Deque_simple_types@VStripPtR@@@std@@@std@@@std@@QEBAAEAVStripPtR@@XZ
	??D?$_Tree_const_iterator@V?$_Tree_val@U?$_Tree_simple_types@U?$pair@$$CBHH@std@@@std@@@std@@@std@@QEBAAEBU?$pair@$$CBHH@1@XZ
	??D?$_Tree_const_iterator@V?$_Tree_val@U?$_Tree_simple_types@U?$pair@$$CBHV?$set@HU?$less@H@std@@V?$allocator@H@2@@std@@@std@@@std@@@std@@@std@@QEBAAEBU?$pair@$$CBHV?$set@HU?$less@H@std@@V?$allocator@H@2@@std@@@1@XZ
	??D?$_Tree_const_iterator@V?$_Tree_val@U?$_Tree_simple_types@U?$pair@$$CBHV?$vector@HV?$allocator@H@std@@@std@@@std@@@std@@@std@@@std@@QEBAAEBU?$pair@$$CBHV?$vector@HV?$allocator@H@std@@@std@@@1@XZ
	??D?$_Tree_const_iterator@V?$_Tree_val@U?$_Tree_simple_types@U?$pair@$$CBHV?$vector@V?$reference_wrapper@VStripPtR@@@std@@V?$allocator@V?$reference_wrapper@VStripPtR@@@std@@@2@@std@@@std@@@std@@@std@@@std@@QEBAAEBU?$pair@$$CBHV?$vector@V?$reference_wrapper@VStripPtR@@@std@@V?$allocator@V?$reference_wrapper@VStripPtR@@@std@@@2@@std@@@1@XZ
	??D?$_Tree_const_iterator@V?$_Tree_val@U?$_Tree_simple_types@U?$pair@$$CBHVPStrips@@@std@@@std@@@std@@@std@@QEBAAEBU?$pair@$$CBHVPStrips@@@1@XZ
	??D?$_Tree_const_iterator@V?$_Tree_val@U?$_Tree_simple_types@U?$pair@$$CBHVStripPt@@@std@@@std@@@std@@@std@@QEBAAEBU?$pair@$$CBHVStripPt@@@1@XZ
	??D?$_Tree_const_iterator@V?$_Tree_val@U?$_Tree_simple_types@U?$pair@$$CBHW4Rel@@@std@@@std@@@std@@@std@@QEBAAEBU?$pair@$$CBHW4Rel@@@1@XZ
	??D?$_Tree_const_iterator@V?$_Tree_val@U?$_Tree_simple_types@U?$pair@$$CBVPair@@V?$map@HHU?$less@H@std@@V?$allocator@U?$pair@$$CBHH@std@@@2@@std@@@std@@@std@@@std@@@std@@QEBAAEBU?$pair@$$CBVPair@@V?$map@HHU?$less@H@std@@V?$allocator@U?$pair@$$CBHH@std@@@2@@std@@@1@XZ
	??D?$_Tree_const_iterator@V?$_Tree_val@U?$_Tree_simple_types@V?$reference_wrapper@VStripPt@@@std@@@std@@@std@@@std@@QEBAAEBV?$reference_wrapper@VStripPt@@@1@XZ
	??D?$_Tree_const_iterator@V?$_Tree_val@U?$_Tree_simple_types@VStripPtL@@@std@@@std@@@std@@QEBAAEBVStripPtL@@XZ
	??D?$_Tree_iterator@V?$_Tree_val@U?$_Tree_simple_types@U?$pair@$$CBHH@std@@@std@@@std@@@std@@QEBAAEAU?$pair@$$CBHH@1@XZ
	??D?$_Tree_iterator@V?$_Tree_val@U?$_Tree_simple_types@U?$pair@$$CBHV?$set@HU?$less@H@std@@V?$allocator@H@2@@std@@@std@@@std@@@std@@@std@@QEBAAEAU?$pair@$$CBHV?$set@HU?$less@H@std@@V?$allocator@H@2@@std@@@1@XZ
	??D?$_Tree_iterator@V?$_Tree_val@U?$_Tree_simple_types@U?$pair@$$CBHV?$vector@HV?$allocator@H@std@@@std@@@std@@@std@@@std@@@std@@QEBAAEAU?$pair@$$CBHV?$vector@HV?$allocator@H@std@@@std@@@1@XZ
	??D?$_Tree_iterator@V?$_Tree_val@U?$_Tree_simple_types@U?$pair@$$CBHV?$vector@V?$reference_wrapper@VStripPtR@@@std@@V?$allocator@V?$reference_wrapper@VStripPtR@@@std@@@2@@std@@@std@@@std@@@std@@@std@@QEBAAEAU?$pair@$$CBHV?$vector@V?$reference_wrapper@VStripPtR@@@std@@V?$allocator@V?$reference_wrapper@VStripPtR@@@std@@@2@@std@@@1@XZ
	??D?$_Tree_iterator@V?$_Tree_val@U?$_Tree_simple_types@U?$pair@$$CBHVPStrips@@@std@@@std@@@std@@@std@@QEBAAEAU?$pair@$$CBHVPStrips@@@1@XZ
	??D?$_Tree_iterator@V?$_Tree_val@U?$_Tree_simple_types@U?$pair@$$CBHVStripPt@@@std@@@std@@@std@@@std@@QEBAAEAU?$pair@$$CBHVStripPt@@@1@XZ
	??D?$_Tree_iterator@V?$_Tree_val@U?$_Tree_simple_types@U?$pair@$$CBVPair@@V?$map@HHU?$less@H@std@@V?$allocator@U?$pair@$$CBHH@std@@@2@@std@@@std@@@std@@@std@@@std@@QEBAAEAU?$pair@$$CBVPair@@V?$map@HHU?$less@H@std@@V?$allocator@U?$pair@$$CBHH@std@@@2@@std@@@1@XZ
	??D?$_Tree_unchecked_const_iterator@V?$_Tree_val@U?$_Tree_simple_types@H@std@@@std@@U_Iterator_base0@2@@std@@QEBAAEBHXZ
	??D?$_Tree_unchecked_const_iterator@V?$_Tree_val@U?$_Tree_simple_types@U?$pair@$$CBHV?$vector@HV?$allocator@H@std@@@std@@@std@@@std@@@std@@U_Iterator_base0@2@@std@@QEBAAEBU?$pair@$$CBHV?$vector@HV?$allocator@H@std@@@std@@@1@XZ
	??D?$_Tree_unchecked_const_iterator@V?$_Tree_val@U?$_Tree_simple_types@U?$pair@$$CBHVPStrips@@@std@@@std@@@std@@U_Iterator_base0@2@@std@@QEBAAEBU?$pair@$$CBHVPStrips@@@1@XZ
	??D?$_Tree_unchecked_const_iterator@V?$_Tree_val@U?$_Tree_simple_types@U?$pair@$$CBHVStripPt@@@std@@@std@@@std@@U_Iterator_base0@2@@std@@QEBAAEBU?$pair@$$CBHVStripPt@@@1@XZ
	??D?$_Tree_unchecked_const_iterator@V?$_Tree_val@U?$_Tree_simple_types@VStripPtL3@@@std@@@std@@U_Iterator_base0@2@@std@@QEBAAEBVStripPtL3@@XZ
	??D?$_Tree_unchecked_iterator@V?$_Tree_val@U?$_Tree_simple_types@U?$pair@$$CBHV?$vector@HV?$allocator@H@std@@@std@@@std@@@std@@@std@@@std@@QEBAAEAU?$pair@$$CBHV?$vector@HV?$allocator@H@std@@@std@@@1@XZ
	??D?$_Tree_unchecked_iterator@V?$_Tree_val@U?$_Tree_simple_types@U?$pair@$$CBHVPStrips@@@std@@@std@@@std@@@std@@QEBAAEAU?$pair@$$CBHVPStrips@@@1@XZ
	??D?$_Tree_unchecked_iterator@V?$_Tree_val@U?$_Tree_simple_types@U?$pair@$$CBHVStripPt@@@std@@@std@@@std@@@std@@QEBAAEAU?$pair@$$CBHVStripPt@@@1@XZ
	??D?$_Vector_const_iterator@V?$_Vector_val@U?$_Simple_types@H@std@@@std@@@std@@QEBAAEBHXZ
	??D?$_Vector_const_iterator@V?$_Vector_val@U?$_Simple_types@V?$deque@VStripPtR@@V?$allocator@VStripPtR@@@std@@@std@@@std@@@std@@@std@@QEBAAEBV?$deque@VStripPtR@@V?$allocator@VStripPtR@@@std@@@1@XZ
	??D?$_Vector_const_iterator@V?$_Vector_val@U?$_Simple_types@V?$reference_wrapper@VStripPtR@@@std@@@std@@@std@@@std@@QEBAAEBV?$reference_wrapper@VStripPtR@@@1@XZ
	??D?$_Vector_const_iterator@V?$_Vector_val@U?$_Simple_types@V?$shared_ptr@VLine@@@std@@@std@@@std@@@std@@QEBAAEBV?$shared_ptr@VLine@@@1@XZ
	??D?$_Vector_const_iterator@V?$_Vector_val@U?$_Simple_types@V?$shared_ptr@VObj@@@std@@@std@@@std@@@std@@QEBAAEBV?$shared_ptr@VObj@@@1@XZ
	??D?$_Vector_const_iterator@V?$_Vector_val@U?$_Simple_types@V?$vector@HV?$allocator@H@std@@@std@@@std@@@std@@@std@@QEBAAEBV?$vector@HV?$allocator@H@std@@@1@XZ
	??D?$_Vector_const_iterator@V?$_Vector_val@U?$_Simple_types@VInterPtType@@@std@@@std@@@std@@QEBAAEBVInterPtType@@XZ
	??D?$_Vector_iterator@V?$_Vector_val@U?$_Simple_types@H@std@@@std@@@std@@QEBAAEAHXZ
	??D?$_Vector_iterator@V?$_Vector_val@U?$_Simple_types@V?$deque@VStripPtR@@V?$allocator@VStripPtR@@@std@@@std@@@std@@@std@@@std@@QEBAAEAV?$deque@VStripPtR@@V?$allocator@VStripPtR@@@std@@@1@XZ
	??D?$_Vector_iterator@V?$_Vector_val@U?$_Simple_types@V?$reference_wrapper@VStripPtR@@@std@@@std@@@std@@@std@@QEBAAEAV?$reference_wrapper@VStripPtR@@@1@XZ
	??D?$_Vector_iterator@V?$_Vector_val@U?$_Simple_types@V?$vector@HV?$allocator@H@std@@@std@@@std@@@std@@@std@@QEBAAEAV?$vector@HV?$allocator@H@std@@@1@XZ
	??D?$_Vector_iterator@V?$_Vector_val@U?$_Simple_types@VInterPtType@@@std@@@std@@@std@@QEBAAEAVInterPtType@@XZ
	??D?$reverse_iterator@PEAVStripPtL3@@@std@@QEBAAEAVStripPtL3@@XZ
	??D?$reverse_iterator@V?$_Deque_iterator@V?$_Deque_val@U?$_Deque_simple_types@VStripPtR@@@std@@@std@@@std@@@std@@QEBAAEAVStripPtR@@XZ
	??D?$reverse_iterator@V?$_Deque_unchecked_iterator@V?$_Deque_val@U?$_Deque_simple_types@VStripPtR@@@std@@@std@@@std@@@std@@QEBAAEAVStripPtR@@XZ
	??D?$reverse_iterator@V?$_Vector_iterator@V?$_Vector_val@U?$_Simple_types@V?$reference_wrapper@VStripPtR@@@std@@@std@@@std@@@std@@@std@@QEBAAEAV?$reference_wrapper@VStripPtR@@@1@XZ
	??E?$_Deque_const_iterator@V?$_Deque_val@U?$_Deque_simple_types@H@std@@@std@@@std@@QEAAAEAV01@XZ
	??E?$_Deque_const_iterator@V?$_Deque_val@U?$_Deque_simple_types@V?$vector@HV?$allocator@H@std@@@std@@@std@@@std@@@std@@QEAAAEAV01@XZ
	??E?$_Deque_const_iterator@V?$_Deque_val@U?$_Deque_simple_types@VStripPtR@@@std@@@std@@@std@@QEAAAEAV01@XZ
	??E?$_Deque_iterator@V?$_Deque_val@U?$_Deque_simple_types@H@std@@@std@@@std@@QEAAAEAV01@XZ
	??E?$_Deque_iterator@V?$_Deque_val@U?$_Deque_simple_types@V?$vector@HV?$allocator@H@std@@@std@@@std@@@std@@@std@@QEAAAEAV01@XZ
	??E?$_Deque_iterator@V?$_Deque_val@U?$_Deque_simple_types@VStripPtR@@@std@@@std@@@std@@QEAAAEAV01@XZ
	??E?$_Deque_unchecked_const_iterator@V?$_Deque_val@U?$_Deque_simple_types@H@std@@@std@@@std@@QEAAAEAV01@XZ
	??E?$_Deque_unchecked_const_iterator@V?$_Deque_val@U?$_Deque_simple_types@VStripPtR@@@std@@@std@@@std@@QEAAAEAV01@XZ
	??E?$_Deque_unchecked_iterator@V?$_Deque_val@U?$_Deque_simple_types@H@std@@@std@@@std@@QEAAAEAV01@XZ
	??E?$_Deque_unchecked_iterator@V?$_Deque_val@U?$_Deque_simple_types@VStripPtR@@@std@@@std@@@std@@QEAAAEAV01@XZ
	??E?$_Tree_const_iterator@V?$_Tree_val@U?$_Tree_simple_types@U?$pair@$$CBHH@std@@@std@@@std@@@std@@QEAA?AV01@H@Z
	??E?$_Tree_const_iterator@V?$_Tree_val@U?$_Tree_simple_types@U?$pair@$$CBHH@std@@@std@@@std@@@std@@QEAAAEAV01@XZ
	??E?$_Tree_const_iterator@V?$_Tree_val@U?$_Tree_simple_types@U?$pair@$$CBHV?$set@HU?$less@H@std@@V?$allocator@H@2@@std@@@std@@@std@@@std@@@std@@QEAAAEAV01@XZ
	??E?$_Tree_const_iterator@V?$_Tree_val@U?$_Tree_simple_types@U?$pair@$$CBHV?$vector@HV?$allocator@H@std@@@std@@@std@@@std@@@std@@@std@@QEAAAEAV01@XZ
	??E?$_Tree_const_iterator@V?$_Tree_val@U?$_Tree_simple_types@U?$pair@$$CBHV?$vector@V?$reference_wrapper@VStripPtR@@@std@@V?$allocator@V?$reference_wrapper@VStripPtR@@@std@@@2@@std@@@std@@@std@@@std@@@std@@QEAAAEAV01@XZ
	??E?$_Tree_const_iterator@V?$_Tree_val@U?$_Tree_simple_types@U?$pair@$$CBHVPStrips@@@std@@@std@@@std@@@std@@QEAAAEAV01@XZ
	??E?$_Tree_const_iterator@V?$_Tree_val@U?$_Tree_simple_types@U?$pair@$$CBHVStripPt@@@std@@@std@@@std@@@std@@QEAAAEAV01@XZ
	??E?$_Tree_const_iterator@V?$_Tree_val@U?$_Tree_simple_types@U?$pair@$$CBHW4Rel@@@std@@@std@@@std@@@std@@QEAAAEAV01@XZ
	??E?$_Tree_const_iterator@V?$_Tree_val@U?$_Tree_simple_types@U?$pair@$$CBVPair@@V?$map@HHU?$less@H@std@@V?$allocator@U?$pair@$$CBHH@std@@@2@@std@@@std@@@std@@@std@@@std@@QEAAAEAV01@XZ
	??E?$_Tree_const_iterator@V?$_Tree_val@U?$_Tree_simple_types@V?$reference_wrapper@VStripPt@@@std@@@std@@@std@@@std@@QEAAAEAV01@XZ
	??E?$_Tree_const_iterator@V?$_Tree_val@U?$_Tree_simple_types@VStripPtL@@@std@@@std@@@std@@QEAAAEAV01@XZ
	??E?$_Tree_iterator@V?$_Tree_val@U?$_Tree_simple_types@U?$pair@$$CBHH@std@@@std@@@std@@@std@@QEAAAEAV01@XZ
	??E?$_Tree_iterator@V?$_Tree_val@U?$_Tree_simple_types@U?$pair@$$CBHV?$set@HU?$less@H@std@@V?$allocator@H@2@@std@@@std@@@std@@@std@@@std@@QEAAAEAV01@XZ
	??E?$_Tree_iterator@V?$_Tree_val@U?$_Tree_simple_types@U?$pair@$$CBHV?$vector@HV?$allocator@H@std@@@std@@@std@@@std@@@std@@@std@@QEAAAEAV01@XZ
	??E?$_Tree_iterator@V?$_Tree_val@U?$_Tree_simple_types@U?$pair@$$CBHV?$vector@V?$reference_wrapper@VStripPtR@@@std@@V?$allocator@V?$reference_wrapper@VStripPtR@@@std@@@2@@std@@@std@@@std@@@std@@@std@@QEAAAEAV01@XZ
	??E?$_Tree_iterator@V?$_Tree_val@U?$_Tree_simple_types@U?$pair@$$CBHVPStrips@@@std@@@std@@@std@@@std@@QEAAAEAV01@XZ
	??E?$_Tree_iterator@V?$_Tree_val@U?$_Tree_simple_types@U?$pair@$$CBHVStripPt@@@std@@@std@@@std@@@std@@QEAAAEAV01@XZ
	??E?$_Tree_iterator@V?$_Tree_val@U?$_Tree_simple_types@U?$pair@$$CBVPair@@V?$map@HHU?$less@H@std@@V?$allocator@U?$pair@$$CBHH@std@@@2@@std@@@std@@@std@@@std@@@std@@QEAAAEAV01@XZ
	??E?$_Tree_unchecked_const_iterator@V?$_Tree_val@U?$_Tree_simple_types@H@std@@@std@@U_Iterator_base0@2@@std@@QEAAAEAV01@XZ
	??E?$_Tree_unchecked_const_iterator@V?$_Tree_val@U?$_Tree_simple_types@U?$pair@$$CBHH@std@@@std@@@std@@U_Iterator_base12@2@@std@@QEAAAEAV01@XZ
	??E?$_Tree_unchecked_const_iterator@V?$_Tree_val@U?$_Tree_simple_types@U?$pair@$$CBHV?$set@HU?$less@H@std@@V?$allocator@H@2@@std@@@std@@@std@@@std@@U_Iterator_base12@2@@std@@QEAAAEAV01@XZ
	??E?$_Tree_unchecked_const_iterator@V?$_Tree_val@U?$_Tree_simple_types@U?$pair@$$CBHV?$vector@HV?$allocator@H@std@@@std@@@std@@@std@@@std@@U_Iterator_base0@2@@std@@QEAAAEAV01@XZ
	??E?$_Tree_unchecked_const_iterator@V?$_Tree_val@U?$_Tree_simple_types@U?$pair@$$CBHV?$vector@HV?$allocator@H@std@@@std@@@std@@@std@@@std@@U_Iterator_base12@2@@std@@QEAAAEAV01@XZ
	??E?$_Tree_unchecked_const_iterator@V?$_Tree_val@U?$_Tree_simple_types@U?$pair@$$CBHV?$vector@V?$reference_wrapper@VStripPtR@@@std@@V?$allocator@V?$reference_wrapper@VStripPtR@@@std@@@2@@std@@@std@@@std@@@std@@U_Iterator_base12@2@@std@@QEAAAEAV01@XZ
	??E?$_Tree_unchecked_const_iterator@V?$_Tree_val@U?$_Tree_simple_types@U?$pair@$$CBHVPStrips@@@std@@@std@@@std@@U_Iterator_base0@2@@std@@QEAAAEAV01@XZ
	??E?$_Tree_unchecked_const_iterator@V?$_Tree_val@U?$_Tree_simple_types@U?$pair@$$CBHVPStrips@@@std@@@std@@@std@@U_Iterator_base12@2@@std@@QEAAAEAV01@XZ
	??E?$_Tree_unchecked_const_iterator@V?$_Tree_val@U?$_Tree_simple_types@U?$pair@$$CBHVStripPt@@@std@@@std@@@std@@U_Iterator_base0@2@@std@@QEAA?AV01@H@Z
	??E?$_Tree_unchecked_const_iterator@V?$_Tree_val@U?$_Tree_simple_types@U?$pair@$$CBHVStripPt@@@std@@@std@@@std@@U_Iterator_base0@2@@std@@QEAAAEAV01@XZ
	??E?$_Tree_unchecked_const_iterator@V?$_Tree_val@U?$_Tree_simple_types@U?$pair@$$CBHVStripPt@@@std@@@std@@@std@@U_Iterator_base12@2@@std@@QEAAAEAV01@XZ
	??E?$_Tree_unchecked_const_iterator@V?$_Tree_val@U?$_Tree_simple_types@U?$pair@$$CBHW4Rel@@@std@@@std@@@std@@U_Iterator_base12@2@@std@@QEAAAEAV01@XZ
	??E?$_Tree_unchecked_const_iterator@V?$_Tree_val@U?$_Tree_simple_types@U?$pair@$$CBVPair@@V?$map@HHU?$less@H@std@@V?$allocator@U?$pair@$$CBHH@std@@@2@@std@@@std@@@std@@@std@@U_Iterator_base12@2@@std@@QEAAAEAV01@XZ
	??E?$_Tree_unchecked_const_iterator@V?$_Tree_val@U?$_Tree_simple_types@V?$reference_wrapper@VStripPt@@@std@@@std@@@std@@U_Iterator_base12@2@@std@@QEAAAEAV01@XZ
	??E?$_Tree_unchecked_const_iterator@V?$_Tree_val@U?$_Tree_simple_types@VStripPtL3@@@std@@@std@@U_Iterator_base0@2@@std@@QEAAAEAV01@XZ
	??E?$_Tree_unchecked_const_iterator@V?$_Tree_val@U?$_Tree_simple_types@VStripPtL@@@std@@@std@@U_Iterator_base12@2@@std@@QEAAAEAV01@XZ
	??E?$_Tree_unchecked_iterator@V?$_Tree_val@U?$_Tree_simple_types@U?$pair@$$CBHV?$vector@HV?$allocator@H@std@@@std@@@std@@@std@@@std@@@std@@QEAAAEAV01@XZ
	??E?$_Tree_unchecked_iterator@V?$_Tree_val@U?$_Tree_simple_types@U?$pair@$$CBHVPStrips@@@std@@@std@@@std@@@std@@QEAAAEAV01@XZ
	??E?$_Tree_unchecked_iterator@V?$_Tree_val@U?$_Tree_simple_types@U?$pair@$$CBHVStripPt@@@std@@@std@@@std@@@std@@QEAAAEAV01@XZ
	??E?$_Vector_const_iterator@V?$_Vector_val@U?$_Simple_types@H@std@@@std@@@std@@QEAA?AV01@H@Z
	??E?$_Vector_const_iterator@V?$_Vector_val@U?$_Simple_types@H@std@@@std@@@std@@QEAAAEAV01@XZ
	??E?$_Vector_const_iterator@V?$_Vector_val@U?$_Simple_types@U?$pair@VInterPtType@@V1@@std@@@std@@@std@@@std@@QEAAAEAV01@XZ
	??E?$_Vector_const_iterator@V?$_Vector_val@U?$_Simple_types@V?$deque@VStripPtR@@V?$allocator@VStripPtR@@@std@@@std@@@std@@@std@@@std@@QEAAAEAV01@XZ
	??E?$_Vector_const_iterator@V?$_Vector_val@U?$_Simple_types@V?$reference_wrapper@VStripPtR@@@std@@@std@@@std@@@std@@QEAAAEAV01@XZ
	??E?$_Vector_const_iterator@V?$_Vector_val@U?$_Simple_types@V?$shared_ptr@VLine@@@std@@@std@@@std@@@std@@QEAAAEAV01@XZ
	??E?$_Vector_const_iterator@V?$_Vector_val@U?$_Simple_types@V?$shared_ptr@VObj@@@std@@@std@@@std@@@std@@QEAAAEAV01@XZ
	??E?$_Vector_const_iterator@V?$_Vector_val@U?$_Simple_types@V?$vector@HV?$allocator@H@std@@@std@@@std@@@std@@@std@@QEAAAEAV01@XZ
	??E?$_Vector_const_iterator@V?$_Vector_val@U?$_Simple_types@VInterPtType@@@std@@@std@@@std@@QEAAAEAV01@XZ
	??E?$_Vector_const_iterator@V?$_Vector_val@U?$_Simple_types@VMergePt@@@std@@@std@@@std@@QEAAAEAV01@XZ
	??E?$_Vector_const_iterator@V?$_Vector_val@U?$_Simple_types@VPair@@@std@@@std@@@std@@QEAAAEAV01@XZ
	??E?$_Vector_const_iterator@V?$_Vector_val@U?$_Simple_types@VStripPtL2@@@std@@@std@@@std@@QEAAAEAV01@XZ
	??E?$_Vector_const_iterator@V?$_Vector_val@U?$_Simple_types@VStripPtL3@@@std@@@std@@@std@@QEAAAEAV01@XZ
	??E?$_Vector_const_iterator@V?$_Vector_val@U?$_Simple_types@VStripPtL@@@std@@@std@@@std@@QEAAAEAV01@XZ
	??E?$_Vector_iterator@V?$_Vector_val@U?$_Simple_types@H@std@@@std@@@std@@QEAAAEAV01@XZ
	??E?$_Vector_iterator@V?$_Vector_val@U?$_Simple_types@V?$deque@VStripPtR@@V?$allocator@VStripPtR@@@std@@@std@@@std@@@std@@@std@@QEAAAEAV01@XZ
	??E?$_Vector_iterator@V?$_Vector_val@U?$_Simple_types@V?$reference_wrapper@VStripPtR@@@std@@@std@@@std@@@std@@QEAAAEAV01@XZ
	??E?$_Vector_iterator@V?$_Vector_val@U?$_Simple_types@V?$vector@HV?$allocator@H@std@@@std@@@std@@@std@@@std@@QEAAAEAV01@XZ
	??E?$_Vector_iterator@V?$_Vector_val@U?$_Simple_types@VInterPtType@@@std@@@std@@@std@@QEAAAEAV01@XZ
	??E?$_Vector_iterator@V?$_Vector_val@U?$_Simple_types@VMergePt@@@std@@@std@@@std@@QEAAAEAV01@XZ
	??E?$_Vector_iterator@V?$_Vector_val@U?$_Simple_types@VStripPtL3@@@std@@@std@@@std@@QEAAAEAV01@XZ
	??E?$reverse_iterator@PEAVStripPtL3@@@std@@QEAAAEAV01@XZ
	??E?$reverse_iterator@V?$_Deque_iterator@V?$_Deque_val@U?$_Deque_simple_types@VStripPtR@@@std@@@std@@@std@@@std@@QEAAAEAV01@XZ
	??E?$reverse_iterator@V?$_Deque_unchecked_iterator@V?$_Deque_val@U?$_Deque_simple_types@VStripPtR@@@std@@@std@@@std@@@std@@QEAAAEAV01@XZ
	??E?$reverse_iterator@V?$_Vector_const_iterator@V?$_Vector_val@U?$_Simple_types@VPair@@@std@@@std@@@std@@@std@@QEAAAEAV01@XZ
	??E?$reverse_iterator@V?$_Vector_iterator@V?$_Vector_val@U?$_Simple_types@V?$reference_wrapper@VStripPtR@@@std@@@std@@@std@@@std@@@std@@QEAAAEAV01@XZ
	??F?$_Deque_const_iterator@V?$_Deque_val@U?$_Deque_simple_types@VStripPtR@@@std@@@std@@@std@@QEAAAEAV01@XZ
	??F?$_Deque_iterator@V?$_Deque_val@U?$_Deque_simple_types@VStripPtR@@@std@@@std@@@std@@QEAAAEAV01@XZ
	??F?$_Deque_unchecked_const_iterator@V?$_Deque_val@U?$_Deque_simple_types@H@std@@@std@@@std@@QEAAAEAV01@XZ
	??F?$_Deque_unchecked_const_iterator@V?$_Deque_val@U?$_Deque_simple_types@VStripPtR@@@std@@@std@@@std@@QEAAAEAV01@XZ
	??F?$_Deque_unchecked_iterator@V?$_Deque_val@U?$_Deque_simple_types@H@std@@@std@@@std@@QEAAAEAV01@XZ
	??F?$_Deque_unchecked_iterator@V?$_Deque_val@U?$_Deque_simple_types@VStripPtR@@@std@@@std@@@std@@QEAAAEAV01@XZ
	??F?$_Tree_const_iterator@V?$_Tree_val@U?$_Tree_simple_types@V?$reference_wrapper@VStripPt@@@std@@@std@@@std@@@std@@QEAAAEAV01@XZ
	??F?$_Tree_unchecked_const_iterator@V?$_Tree_val@U?$_Tree_simple_types@H@std@@@std@@U_Iterator_base0@2@@std@@QEAAAEAV01@XZ
	??F?$_Tree_unchecked_const_iterator@V?$_Tree_val@U?$_Tree_simple_types@V?$reference_wrapper@VStripPt@@@std@@@std@@@std@@U_Iterator_base12@2@@std@@QEAAAEAV01@XZ
	??F?$_Vector_const_iterator@V?$_Vector_val@U?$_Simple_types@V?$reference_wrapper@VStripPtR@@@std@@@std@@@std@@@std@@QEAAAEAV01@XZ
	??F?$_Vector_const_iterator@V?$_Vector_val@U?$_Simple_types@VPair@@@std@@@std@@@std@@QEAAAEAV01@XZ
	??F?$_Vector_iterator@V?$_Vector_val@U?$_Simple_types@V?$reference_wrapper@VStripPtR@@@std@@@std@@@std@@@std@@QEAAAEAV01@XZ
	??F?$reverse_iterator@PEAVStripPtL3@@@std@@QEAAAEAV01@XZ
	??G?$_Deque_const_iterator@V?$_Deque_val@U?$_Deque_simple_types@H@std@@@std@@@std@@QEBA_JAEBV01@@Z
	??G?$_Deque_const_iterator@V?$_Deque_val@U?$_Deque_simple_types@VStripPtR@@@std@@@std@@@std@@QEBA?AV01@_J@Z
	??G?$_Deque_const_iterator@V?$_Deque_val@U?$_Deque_simple_types@VStripPtR@@@std@@@std@@@std@@QEBA_JAEBV01@@Z
	??G?$_Deque_iterator@V?$_Deque_val@U?$_Deque_simple_types@VStripPtR@@@std@@@std@@@std@@QEBA?AV01@_J@Z
	??G?$_Deque_unchecked_const_iterator@V?$_Deque_val@U?$_Deque_simple_types@H@std@@@std@@@std@@QEBA_JAEBV01@@Z
	??G?$_Deque_unchecked_const_iterator@V?$_Deque_val@U?$_Deque_simple_types@VStripPtR@@@std@@@std@@@std@@QEBA?AV01@_J@Z
	??G?$_Deque_unchecked_const_iterator@V?$_Deque_val@U?$_Deque_simple_types@VStripPtR@@@std@@@std@@@std@@QEBA_JAEBV01@@Z
	??G?$_Deque_unchecked_iterator@V?$_Deque_val@U?$_Deque_simple_types@H@std@@@std@@@std@@QEBA?AV01@_J@Z
	??G?$_Deque_unchecked_iterator@V?$_Deque_val@U?$_Deque_simple_types@H@std@@@std@@@std@@QEBA_JAEBV?$_Deque_unchecked_const_iterator@V?$_Deque_val@U?$_Deque_simple_types@H@std@@@std@@@1@@Z
	??G?$_Deque_unchecked_iterator@V?$_Deque_val@U?$_Deque_simple_types@VStripPtR@@@std@@@std@@@std@@QEBA?AV01@_J@Z
	??G?$_Deque_unchecked_iterator@V?$_Deque_val@U?$_Deque_simple_types@VStripPtR@@@std@@@std@@@std@@QEBA_JAEBV?$_Deque_unchecked_const_iterator@V?$_Deque_val@U?$_Deque_simple_types@VStripPtR@@@std@@@std@@@1@@Z
	??G?$_Vector_const_iterator@V?$_Vector_val@U?$_Simple_types@H@std@@@std@@@std@@QEBA_JAEBV01@@Z
	??G?$_Vector_const_iterator@V?$_Vector_val@U?$_Simple_types@V?$deque@VStripPtR@@V?$allocator@VStripPtR@@@std@@@std@@@std@@@std@@@std@@QEBA_JAEBV01@@Z
	??G?$_Vector_const_iterator@V?$_Vector_val@U?$_Simple_types@V?$reference_wrapper@VStripPtR@@@std@@@std@@@std@@@std@@QEBA_JAEBV01@@Z
	??G?$_Vector_const_iterator@V?$_Vector_val@U?$_Simple_types@VInterPtType@@@std@@@std@@@std@@QEBA_JAEBV01@@Z
	??G?$_Vector_const_iterator@V?$_Vector_val@U?$_Simple_types@VMergePt@@@std@@@std@@@std@@QEBA_JAEBV01@@Z
	??G?$_Vector_const_iterator@V?$_Vector_val@U?$_Simple_types@VStripPtL3@@@std@@@std@@@std@@QEBA_JAEBV01@@Z
	??G?$_Vector_iterator@V?$_Vector_val@U?$_Simple_types@H@std@@@std@@@std@@QEBA?AV01@_J@Z
	??G?$_Vector_iterator@V?$_Vector_val@U?$_Simple_types@VInterPtType@@@std@@@std@@@std@@QEBA?AV01@_J@Z
	??G?$_Vector_iterator@V?$_Vector_val@U?$_Simple_types@VStripPtL3@@@std@@@std@@@std@@QEBA?AV01@_J@Z
	??G?$reverse_iterator@PEAVStripPtL3@@@std@@QEBA?AV01@_J@Z
	??G?$reverse_iterator@V?$_Deque_iterator@V?$_Deque_val@U?$_Deque_simple_types@VStripPtR@@@std@@@std@@@std@@@std@@QEBA?AV01@_J@Z
	??H?$_Deque_const_iterator@V?$_Deque_val@U?$_Deque_simple_types@H@std@@@std@@@std@@QEBA?AV01@_J@Z
	??H?$_Deque_const_iterator@V?$_Deque_val@U?$_Deque_simple_types@VStripPtR@@@std@@@std@@@std@@QEBA?AV01@_J@Z
	??H?$_Deque_iterator@V?$_Deque_val@U?$_Deque_simple_types@H@std@@@std@@@std@@QEBA?AV01@_J@Z
	??H?$_Deque_iterator@V?$_Deque_val@U?$_Deque_simple_types@VStripPtR@@@std@@@std@@@std@@QEBA?AV01@_J@Z
	??H?$_Deque_unchecked_iterator@V?$_Deque_val@U?$_Deque_simple_types@H@std@@@std@@@std@@QEBA?AV01@_J@Z
	??H?$_Deque_unchecked_iterator@V?$_Deque_val@U?$_Deque_simple_types@VStripPtR@@@std@@@std@@@std@@QEBA?AV01@_J@Z
	??H?$_Vector_const_iterator@V?$_Vector_val@U?$_Simple_types@H@std@@@std@@@std@@QEBA?AV01@_J@Z
	??H?$_Vector_const_iterator@V?$_Vector_val@U?$_Simple_types@VInterPtType@@@std@@@std@@@std@@QEBA?AV01@_J@Z
	??H?$_Vector_iterator@V?$_Vector_val@U?$_Simple_types@V?$reference_wrapper@VStripPtR@@@std@@@std@@@std@@@std@@QEBA?AV01@_J@Z
	??H?$_Vector_iterator@V?$_Vector_val@U?$_Simple_types@VInterPtType@@@std@@@std@@@std@@QEBA?AV01@_J@Z
	??H?$_Vector_iterator@V?$_Vector_val@U?$_Simple_types@VMergePt@@@std@@@std@@@std@@QEBA?AV01@_J@Z
	??H?$_Vector_iterator@V?$_Vector_val@U?$_Simple_types@VPair@@@std@@@std@@@std@@QEBA?AV01@_J@Z
	??H?$_Vector_iterator@V?$_Vector_val@U?$_Simple_types@VStripPtL3@@@std@@@std@@@std@@QEBA?AV01@_J@Z
	??H?$reverse_iterator@PEAVStripPtL3@@@std@@QEBA?AV01@_J@Z
	??H?$reverse_iterator@V?$_Deque_iterator@V?$_Deque_val@U?$_Deque_simple_types@VStripPtR@@@std@@@std@@@std@@@std@@QEBA?AV01@_J@Z
	??M?$_Deque_const_iterator@V?$_Deque_val@U?$_Deque_simple_types@H@std@@@std@@@std@@QEBA_NAEBV01@@Z
	??M?$_Deque_const_iterator@V?$_Deque_val@U?$_Deque_simple_types@VStripPtR@@@std@@@std@@@std@@QEBA_NAEBV01@@Z
	??MInterPtType@@QEBA_NAEBV0@@Z
	??MPair@@QEBA_NAEBV0@@Z
	??MStripPtL3@@QEBA_NAEBV0@@Z
	??MStripPtL@@QEBA_NAEBV0@@Z
	??N?$_Deque_const_iterator@V?$_Deque_val@U?$_Deque_simple_types@H@std@@@std@@@std@@QEBA_NAEBV01@@Z
	??N?$_Deque_const_iterator@V?$_Deque_val@U?$_Deque_simple_types@VStripPtR@@@std@@@std@@@std@@QEBA_NAEBV01@@Z
	??R<lambda_319d5e083f45f90dcdce5dce53cbb275>@@QEBAXQEADQEBD_KD@Z
	??R?$default_delete@V_Facet_base@std@@@std@@QEBAXPEAV_Facet_base@1@@Z
	??R?$less@H@std@@QEBA_NAEBH0@Z
	??R?$less@VPair@@@std@@QEBA_NAEBVPair@@0@Z
	??R?$less@VStripPtL@@@std@@QEBA_NAEBVStripPtL@@0@Z
	??Y?$_Deque_const_iterator@V?$_Deque_val@U?$_Deque_simple_types@H@std@@@std@@@std@@QEAAAEAV01@_J@Z
	??Y?$_Deque_const_iterator@V?$_Deque_val@U?$_Deque_simple_types@VStripPtR@@@std@@@std@@@std@@QEAAAEAV01@_J@Z
	??Y?$_Deque_iterator@V?$_Deque_val@U?$_Deque_simple_types@H@std@@@std@@@std@@QEAAAEAV01@_J@Z
	??Y?$_Deque_iterator@V?$_Deque_val@U?$_Deque_simple_types@VStripPtR@@@std@@@std@@@std@@QEAAAEAV01@_J@Z
	??Y?$_Deque_unchecked_const_iterator@V?$_Deque_val@U?$_Deque_simple_types@H@std@@@std@@@std@@QEAAAEAV01@_J@Z
	??Y?$_Deque_unchecked_const_iterator@V?$_Deque_val@U?$_Deque_simple_types@VStripPtR@@@std@@@std@@@std@@QEAAAEAV01@_J@Z
	??Y?$_Deque_unchecked_iterator@V?$_Deque_val@U?$_Deque_simple_types@H@std@@@std@@@std@@QEAAAEAV01@_J@Z
	??Y?$_Deque_unchecked_iterator@V?$_Deque_val@U?$_Deque_simple_types@VStripPtR@@@std@@@std@@@std@@QEAAAEAV01@_J@Z
	??Y?$_Vector_const_iterator@V?$_Vector_val@U?$_Simple_types@H@std@@@std@@@std@@QEAAAEAV01@_J@Z
	??Y?$_Vector_const_iterator@V?$_Vector_val@U?$_Simple_types@V?$reference_wrapper@VStripPtR@@@std@@@std@@@std@@@std@@QEAAAEAV01@_J@Z
	??Y?$_Vector_const_iterator@V?$_Vector_val@U?$_Simple_types@VInterPtType@@@std@@@std@@@std@@QEAAAEAV01@_J@Z
	??Y?$_Vector_const_iterator@V?$_Vector_val@U?$_Simple_types@VMergePt@@@std@@@std@@@std@@QEAAAEAV01@_J@Z
	??Y?$_Vector_const_iterator@V?$_Vector_val@U?$_Simple_types@VPair@@@std@@@std@@@std@@QEAAAEAV01@_J@Z
	??Y?$_Vector_const_iterator@V?$_Vector_val@U?$_Simple_types@VStripPtL3@@@std@@@std@@@std@@QEAAAEAV01@_J@Z
	??Y?$_Vector_iterator@V?$_Vector_val@U?$_Simple_types@V?$reference_wrapper@VStripPtR@@@std@@@std@@@std@@@std@@QEAAAEAV01@_J@Z
	??Y?$_Vector_iterator@V?$_Vector_val@U?$_Simple_types@VInterPtType@@@std@@@std@@@std@@QEAAAEAV01@_J@Z
	??Y?$_Vector_iterator@V?$_Vector_val@U?$_Simple_types@VMergePt@@@std@@@std@@@std@@QEAAAEAV01@_J@Z
	??Y?$_Vector_iterator@V?$_Vector_val@U?$_Simple_types@VPair@@@std@@@std@@@std@@QEAAAEAV01@_J@Z
	??Y?$_Vector_iterator@V?$_Vector_val@U?$_Simple_types@VStripPtL3@@@std@@@std@@@std@@QEAAAEAV01@_J@Z
	??Z?$_Deque_const_iterator@V?$_Deque_val@U?$_Deque_simple_types@VStripPtR@@@std@@@std@@@std@@QEAAAEAV01@_J@Z
	??Z?$_Deque_iterator@V?$_Deque_val@U?$_Deque_simple_types@VStripPtR@@@std@@@std@@@std@@QEAAAEAV01@_J@Z
	??Z?$_Deque_unchecked_const_iterator@V?$_Deque_val@U?$_Deque_simple_types@H@std@@@std@@@std@@QEAAAEAV01@_J@Z
	??Z?$_Deque_unchecked_const_iterator@V?$_Deque_val@U?$_Deque_simple_types@VStripPtR@@@std@@@std@@@std@@QEAAAEAV01@_J@Z
	??Z?$_Deque_unchecked_iterator@V?$_Deque_val@U?$_Deque_simple_types@H@std@@@std@@@std@@QEAAAEAV01@_J@Z
	??Z?$_Deque_unchecked_iterator@V?$_Deque_val@U?$_Deque_simple_types@VStripPtR@@@std@@@std@@@std@@QEAAAEAV01@_J@Z
	??Z?$_Vector_const_iterator@V?$_Vector_val@U?$_Simple_types@H@std@@@std@@@std@@QEAAAEAV01@_J@Z
	??Z?$_Vector_const_iterator@V?$_Vector_val@U?$_Simple_types@VInterPtType@@@std@@@std@@@std@@QEAAAEAV01@_J@Z
	??Z?$_Vector_const_iterator@V?$_Vector_val@U?$_Simple_types@VStripPtL3@@@std@@@std@@@std@@QEAAAEAV01@_J@Z
	??Z?$_Vector_iterator@V?$_Vector_val@U?$_Simple_types@H@std@@@std@@@std@@QEAAAEAV01@_J@Z
	??Z?$_Vector_iterator@V?$_Vector_val@U?$_Simple_types@VInterPtType@@@std@@@std@@@std@@QEAAAEAV01@_J@Z
	??Z?$_Vector_iterator@V?$_Vector_val@U?$_Simple_types@VStripPtL3@@@std@@@std@@@std@@QEAAAEAV01@_J@Z
	??_D?$basic_ofstream@DU?$char_traits@D@std@@@std@@QEAAXXZ
	?Add@_Wrapper@@QEAAXAEAV?$vector@HV?$allocator@H@std@@@std@@@Z
	?AddAdjacentPoints@vtkPolyDataBooleanFilter@@AEAAXPEAVvtkPolyData@@PEAVvtkIntArray@@AEAV?$map@HVPStrips@@U?$less@H@std@@V?$allocator@U?$pair@$$CBHVPStrips@@@std@@@3@@std@@@Z
	?BackTransform@@YAXPEBNPEANAEAVBase@@@Z
	?CombineRegions@vtkPolyDataBooleanFilter@@AEAAXXZ
	?CompleteStrips@vtkPolyDataBooleanFilter@@AEAAXAEAVPStrips@@@Z
	?ComputeNormal@@YAXPEAVvtkPoints@@PEANPEAVvtkIdList@@@Z
	?Cpy@@YAXPEANPEBNH@Z
	?CreateNode@AABB@@AEAAHV?$shared_ptr@VObj@@@std@@@Z
	?CutCells@vtkPolyDataBooleanFilter@@AEAAXPEAVvtkPolyData@@AEAV?$map@HVPStrips@@U?$less@H@std@@V?$allocator@U?$pair@$$CBHVPStrips@@@std@@@3@@std@@@Z
	?DecPolysOff@vtkPolyDataBooleanFilter@@UEAAXXZ
	?DecPolysOn@vtkPolyDataBooleanFilter@@UEAAXXZ
	?DecPolys_@vtkPolyDataBooleanFilter@@AEAAXPEAVvtkPolyData@@AEAV?$set@HU?$less@H@std@@V?$allocator@H@2@@std@@AEAV?$map@HW4Rel@@U?$less@H@std@@V?$allocator@U?$pair@$$CBHW4Rel@@@std@@@3@@4@@Z
	?DisjoinPolys@vtkPolyDataBooleanFilter@@AEAAXPEAVvtkPolyData@@AEAV?$map@HVPStrips@@U?$less@H@std@@V?$allocator@U?$pair@$$CBHVPStrips@@@std@@@3@@std@@@Z
	?FindPoints@@YAXPEAVvtkKdTreePointLocator@@PEBNPEAVvtkIdList@@N@Z
	?GetAngle@@YANPEAN00@Z
	?GetArea@BB@@QEAANXZ
	?GetBB@Line@@UEBA?AVBB@@XZ
	?GetClassNameInternal@vtkPolyDataBooleanFilter@@MEBAPEBDXZ
	?GetClassNameInternal@vtkPolyDataContactFilter@@MEBAPEBDXZ
	?GetD@@YANPEAN0@Z
	?GetDecPolys@vtkPolyDataBooleanFilter@@UEAA_NXZ
	?GetEdgePolys@@YA?AVPolyPair@@PEAVvtkPolyData@@PEAVvtkIdList@@1@Z
	?GetLoc@PolyPair@@QEAAXAEAVPolyAtEdge@@H@Z
	?GetMergeRegs@vtkPolyDataBooleanFilter@@UEAA_NXZ
	?GetOperMode@vtkPolyDataBooleanFilter@@UEAAHXZ
	?GetOperModeMaxValue@vtkPolyDataBooleanFilter@@UEAAHXZ
	?GetOperModeMinValue@vtkPolyDataBooleanFilter@@UEAAHXZ
	?GetPolyStrips@vtkPolyDataBooleanFilter@@AEAA_NPEAVvtkPolyData@@PEAVvtkIntArray@@1AEAV?$map@HVPStrips@@U?$less@H@std@@V?$allocator@U?$pair@$$CBHVPStrips@@@std@@@3@@std@@@Z
	?GetStripPoints@vtkPolyDataBooleanFilter@@AEAAXPEAVvtkPolyData@@PEAVvtkIntArray@@AEAVPStrips@@AEAV?$vector@HV?$allocator@H@std@@@std@@@Z
	?HasArea@vtkPolyDataBooleanFilter@@AEAA_NAEAV?$deque@VStripPtR@@V?$allocator@VStripPtR@@@std@@@std@@@Z
	?InsertObj@AABB@@QEAAXV?$shared_ptr@VObj@@@std@@@Z
	?InterEdgeLine@vtkPolyDataContactFilter@@AEAA?AVInterPtType@@PEAN000H@Z
	?InterOBBNodes@vtkPolyDataContactFilter@@SAHPEAVvtkOBBNode@@0PEAVvtkMatrix4x4@@PEAX@Z
	?InterPolyLine@vtkPolyDataContactFilter@@AEAA?AV?$vector@VInterPtType@@V?$allocator@VInterPtType@@@std@@@std@@PEAVvtkPoints@@PEAVvtkIdList@@PEAN2W4_Src@@H@Z
	?InterPolys@vtkPolyDataContactFilter@@AEAAX_J0@Z
	?Intersects@BB@@QEBA_NAEBV1@@Z
	?IsA@vtkPolyDataBooleanFilter@@UEAAHPEBD@Z
	?IsA@vtkPolyDataContactFilter@@UEAAHPEBD@Z
	?IsTypeOf@vtkPolyDataBooleanFilter@@SAHPEBD@Z
	?IsTypeOf@vtkPolyDataContactFilter@@SAHPEBD@Z
	?Merge@BB@@QEAA?AV?$shared_ptr@VBB@@@std@@AEBV1@@Z
	?Merge@InterPtType@@QEAAXAEBV1@@Z
	?MergeAll@_Wrapper@@QEAAXXZ
	?MergePoints@vtkPolyDataBooleanFilter@@AEAAXPEAVvtkPolyData@@AEAV?$map@HVPStrips@@U?$less@H@std@@V?$allocator@U?$pair@$$CBHVPStrips@@@std@@@3@@std@@@Z
	?MergeRegions@vtkPolyDataBooleanFilter@@AEAAXXZ
	?MergeRegsOff@vtkPolyDataBooleanFilter@@UEAAXXZ
	?MergeRegsOn@vtkPolyDataBooleanFilter@@UEAAXXZ
	?Mod@@YANHH@Z
	?New@vtkPolyDataBooleanFilter@@SAPEAV1@XZ
	?New@vtkPolyDataContactFilter@@SAPEAV1@XZ
	?NewInstance@vtkPolyDataBooleanFilter@@QEBAPEAV1@XZ
	?NewInstance@vtkPolyDataContactFilter@@QEBAPEAV1@XZ
	?NewInstanceInternal@vtkPolyDataBooleanFilter@@MEBAPEAVvtkObjectBase@@XZ
	?NewInstanceInternal@vtkPolyDataContactFilter@@MEBAPEAVvtkObjectBase@@XZ
	?OverlapLines@vtkPolyDataContactFilter@@AEAA?AV?$vector@U?$pair@VInterPtType@@V1@@std@@V?$allocator@U?$pair@VInterPtType@@V1@@std@@@2@@std@@AEAV?$vector@VInterPtType@@V?$allocator@VInterPtType@@@std@@@3@0@Z
	?PreparePolyData@vtkPolyDataContactFilter@@AEAAXPEAVvtkPolyData@@@Z
	?ProcessRequest@vtkPolyDataBooleanFilter@@MEAAHPEAVvtkInformation@@PEAPEAVvtkInformationVector@@PEAV3@@Z
	?ProcessRequest@vtkPolyDataContactFilter@@MEAAHPEAVvtkInformation@@PEAPEAVvtkInformationVector@@PEAV3@@Z
	?RemoveDuplicates@vtkPolyDataBooleanFilter@@AEAAXAEAV?$vector@HV?$allocator@H@std@@@std@@@Z
	?ResolveOverlaps@vtkPolyDataBooleanFilter@@AEAAXPEAVvtkPolyData@@PEAVvtkIntArray@@AEAV?$map@HVPStrips@@U?$less@H@std@@V?$allocator@U?$pair@$$CBHVPStrips@@@std@@@3@@std@@@Z
	?RestoreOrigPoints@vtkPolyDataBooleanFilter@@AEAAXPEAVvtkPolyData@@AEAV?$map@HVPStrips@@U?$less@H@std@@V?$allocator@U?$pair@$$CBHVPStrips@@@std@@@3@@std@@@Z
	?SafeDownCast@vtkPolyDataBooleanFilter@@SAPEAV1@PEAVvtkObjectBase@@@Z
	?SafeDownCast@vtkPolyDataContactFilter@@SAPEAV1@PEAVvtkObjectBase@@@Z
	?Search@AABB@@QEAA?AV?$vector@V?$shared_ptr@VObj@@@std@@V?$allocator@V?$shared_ptr@VObj@@@std@@@2@@std@@V?$shared_ptr@VObj@@@3@@Z
	?SetDecPolys@vtkPolyDataBooleanFilter@@UEAAX_N@Z
	?SetMergeRegs@vtkPolyDataBooleanFilter@@UEAAX_N@Z
	?SetOperMode@vtkPolyDataBooleanFilter@@UEAAXH@Z
	?SetOperModeToDifference2@vtkPolyDataBooleanFilter@@QEAAXXZ
	?SetOperModeToDifference@vtkPolyDataBooleanFilter@@QEAAXXZ
	?SetOperModeToIntersection@vtkPolyDataBooleanFilter@@QEAAXXZ
	?SetOperModeToUnion@vtkPolyDataBooleanFilter@@QEAAXXZ
	?Transform@@YAXPEBNPEANAEAVBase@@@Z
	?Update@AABB@@AEAAXH@Z
	?WriteVTK@@YAXPEBDPEAVvtkPolyData@@@Z
	?_Adjust_manually_vector_aligned@std@@YAXAEAPEAXAEA_K@Z
	?_Adopt@_Iterator_base0@std@@QEAAXPEBX@Z
	?_Adopt@_Iterator_base12@std@@QEAAXPEBU_Container_base12@2@@Z
	?_Alloc_sentinel_and_proxy@?$_Tree@V?$_Tmap_traits@HHU?$less@H@std@@V?$allocator@U?$pair@$$CBHH@std@@@2@$0A@@std@@@std@@IEAAXXZ
	?_Alloc_sentinel_and_proxy@?$_Tree@V?$_Tmap_traits@HV?$set@HU?$less@H@std@@V?$allocator@H@2@@std@@U?$less@H@2@V?$allocator@U?$pair@$$CBHV?$set@HU?$less@H@std@@V?$allocator@H@2@@std@@@std@@@2@$0A@@std@@@std@@IEAAXXZ
	?_Alloc_sentinel_and_proxy@?$_Tree@V?$_Tmap_traits@HV?$vector@HV?$allocator@H@std@@@std@@U?$less@H@2@V?$allocator@U?$pair@$$CBHV?$vector@HV?$allocator@H@std@@@std@@@std@@@2@$0A@@std@@@std@@IEAAXXZ
	?_Alloc_sentinel_and_proxy@?$_Tree@V?$_Tmap_traits@HV?$vector@V?$reference_wrapper@VStripPtR@@@std@@V?$allocator@V?$reference_wrapper@VStripPtR@@@std@@@2@@std@@U?$less@H@2@V?$allocator@U?$pair@$$CBHV?$vector@V?$reference_wrapper@VStripPtR@@@std@@V?$allocator@V?$reference_wrapper@VStripPtR@@@std@@@2@@std@@@std@@@2@$0A@@std@@@std@@IEAAXXZ
	?_Alloc_sentinel_and_proxy@?$_Tree@V?$_Tmap_traits@HVPStrips@@U?$less@H@std@@V?$allocator@U?$pair@$$CBHVPStrips@@@std@@@3@$0A@@std@@@std@@IEAAXXZ
	?_Alloc_sentinel_and_proxy@?$_Tree@V?$_Tmap_traits@HVStripPt@@U?$less@H@std@@V?$allocator@U?$pair@$$CBHVStripPt@@@std@@@3@$0A@@std@@@std@@IEAAXXZ
	?_Alloc_sentinel_and_proxy@?$_Tree@V?$_Tmap_traits@HW4Rel@@U?$less@H@std@@V?$allocator@U?$pair@$$CBHW4Rel@@@std@@@3@$0A@@std@@@std@@IEAAXXZ
	?_Alloc_sentinel_and_proxy@?$_Tree@V?$_Tmap_traits@VPair@@V?$map@HHU?$less@H@std@@V?$allocator@U?$pair@$$CBHH@std@@@2@@std@@U?$less@VPair@@@3@V?$allocator@U?$pair@$$CBVPair@@V?$map@HHU?$less@H@std@@V?$allocator@U?$pair@$$CBHH@std@@@2@@std@@@std@@@3@$0A@@std@@@std@@IEAAXXZ
	?_Alloc_sentinel_and_proxy@?$_Tree@V?$_Tset_traits@HU?$less@H@std@@V?$allocator@H@2@$0A@@std@@@std@@IEAAXXZ
	?_Alloc_sentinel_and_proxy@?$_Tree@V?$_Tset_traits@VPair@@U?$less@VPair@@@std@@V?$allocator@VPair@@@3@$0A@@std@@@std@@IEAAXXZ
	?_Alloc_sentinel_and_proxy@?$_Tree@V?$_Tset_traits@VStripPtL@@U?$less@VStripPtL@@@std@@V?$allocator@VStripPtL@@@3@$0A@@std@@@std@@IEAAXXZ
	?_Allocate@?$_Alloc_construct_ptr@V?$allocator@U?$_Tree_node@HPEAX@std@@@std@@@std@@QEAAXXZ
	?_Allocate@?$_Alloc_construct_ptr@V?$allocator@U?$_Tree_node@U?$pair@$$CBHH@std@@PEAX@std@@@std@@@std@@QEAAXXZ
	?_Allocate@?$_Alloc_construct_ptr@V?$allocator@U?$_Tree_node@U?$pair@$$CBHV?$set@HU?$less@H@std@@V?$allocator@H@2@@std@@@std@@PEAX@std@@@std@@@std@@QEAAXXZ
	?_Allocate@?$_Alloc_construct_ptr@V?$allocator@U?$_Tree_node@U?$pair@$$CBHV?$vector@HV?$allocator@H@std@@@std@@@std@@PEAX@std@@@std@@@std@@QEAAXXZ
	?_Allocate@?$_Alloc_construct_ptr@V?$allocator@U?$_Tree_node@U?$pair@$$CBHV?$vector@V?$reference_wrapper@VStripPtR@@@std@@V?$allocator@V?$reference_wrapper@VStripPtR@@@std@@@2@@std@@@std@@PEAX@std@@@std@@@std@@QEAAXXZ
	?_Allocate@?$_Alloc_construct_ptr@V?$allocator@U?$_Tree_node@U?$pair@$$CBHVPStrips@@@std@@PEAX@std@@@std@@@std@@QEAAXXZ
	?_Allocate@?$_Alloc_construct_ptr@V?$allocator@U?$_Tree_node@U?$pair@$$CBHVStripPt@@@std@@PEAX@std@@@std@@@std@@QEAAXXZ
	?_Allocate@?$_Alloc_construct_ptr@V?$allocator@U?$_Tree_node@U?$pair@$$CBHW4Rel@@@std@@PEAX@std@@@std@@@std@@QEAAXXZ
	?_Allocate@?$_Alloc_construct_ptr@V?$allocator@U?$_Tree_node@U?$pair@$$CBVPair@@V?$map@HHU?$less@H@std@@V?$allocator@U?$pair@$$CBHH@std@@@2@@std@@@std@@PEAX@std@@@std@@@std@@QEAAXXZ
	?_Allocate@?$_Alloc_construct_ptr@V?$allocator@U?$_Tree_node@V?$reference_wrapper@VStripPt@@@std@@PEAX@std@@@std@@@std@@QEAAXXZ
	?_Allocate@?$_Alloc_construct_ptr@V?$allocator@U?$_Tree_node@VPair@@PEAX@std@@@std@@@std@@QEAAXXZ
	?_Allocate@?$_Alloc_construct_ptr@V?$allocator@U?$_Tree_node@VStripPtL3@@PEAX@std@@@std@@@std@@QEAAXXZ
	?_Allocate@?$_Alloc_construct_ptr@V?$allocator@U?$_Tree_node@VStripPtL@@PEAX@std@@@std@@@std@@QEAAXXZ
	?_Allocate@_Default_allocate_traits@std@@SAPEAX_K@Z
	?_Buy_nonzero@?$vector@V?$reference_wrapper@VStripPtR@@@std@@V?$allocator@V?$reference_wrapper@VStripPtR@@@std@@@2@@std@@AEAAX_K@Z
	?_Buy_nonzero@?$vector@V?$vector@HV?$allocator@H@std@@@std@@V?$allocator@V?$vector@HV?$allocator@H@std@@@std@@@2@@std@@AEAAX_K@Z
	?_Buy_nonzero@?$vector@VStripPtL3@@V?$allocator@VStripPtL3@@@std@@@std@@AEAAX_K@Z
	?_Buy_raw@?$vector@HV?$allocator@H@std@@@std@@AEAAX_K@Z
	?_Buy_raw@?$vector@V?$deque@VStripPtR@@V?$allocator@VStripPtR@@@std@@@std@@V?$allocator@V?$deque@VStripPtR@@V?$allocator@VStripPtR@@@std@@@std@@@2@@std@@AEAAX_K@Z
	?_Buy_raw@?$vector@V?$reference_wrapper@VStripPtR@@@std@@V?$allocator@V?$reference_wrapper@VStripPtR@@@std@@@2@@std@@AEAAX_K@Z
	?_Buy_raw@?$vector@V?$vector@HV?$allocator@H@std@@@std@@V?$allocator@V?$vector@HV?$allocator@H@std@@@std@@@2@@std@@AEAAX_K@Z
	?_Buy_raw@?$vector@VPair@@V?$allocator@VPair@@@std@@@std@@AEAAX_K@Z
	?_Buy_raw@?$vector@VStripPtL3@@V?$allocator@VStripPtL3@@@std@@@std@@AEAAX_K@Z
	?_Calculate_growth@?$basic_string@DU?$char_traits@D@std@@V?$allocator@D@2@@std@@AEBA_K_K@Z
	?_Calculate_growth@?$basic_string@DU?$char_traits@D@std@@V?$allocator@D@2@@std@@CA_K_K00@Z
	?_Calculate_growth@?$vector@HV?$allocator@H@std@@@std@@AEBA_K_K@Z
	?_Calculate_growth@?$vector@PEBVInterPtType@@V?$allocator@PEBVInterPtType@@@std@@@std@@AEBA_K_K@Z
	?_Calculate_growth@?$vector@U?$pair@VInterPtType@@V1@@std@@V?$allocator@U?$pair@VInterPtType@@V1@@std@@@2@@std@@AEBA_K_K@Z
	?_Calculate_growth@?$vector@V?$deque@VStripPtR@@V?$allocator@VStripPtR@@@std@@@std@@V?$allocator@V?$deque@VStripPtR@@V?$allocator@VStripPtR@@@std@@@std@@@2@@std@@AEBA_K_K@Z
	?_Calculate_growth@?$vector@V?$reference_wrapper@VStripPt@@@std@@V?$allocator@V?$reference_wrapper@VStripPt@@@std@@@2@@std@@AEBA_K_K@Z
	?_Calculate_growth@?$vector@V?$reference_wrapper@VStripPtR@@@std@@V?$allocator@V?$reference_wrapper@VStripPtR@@@std@@@2@@std@@AEBA_K_K@Z
	?_Calculate_growth@?$vector@V?$shared_ptr@VLine@@@std@@V?$allocator@V?$shared_ptr@VLine@@@std@@@2@@std@@AEBA_K_K@Z
	?_Calculate_growth@?$vector@V?$shared_ptr@VObj@@@std@@V?$allocator@V?$shared_ptr@VObj@@@std@@@2@@std@@AEBA_K_K@Z
	?_Calculate_growth@?$vector@V?$vector@HV?$allocator@H@std@@@std@@V?$allocator@V?$vector@HV?$allocator@H@std@@@std@@@2@@std@@AEBA_K_K@Z
	?_Calculate_growth@?$vector@VInterPtType@@V?$allocator@VInterPtType@@@std@@@std@@AEBA_K_K@Z
	?_Calculate_growth@?$vector@VMergePt@@V?$allocator@VMergePt@@@std@@@std@@AEBA_K_K@Z
	?_Calculate_growth@?$vector@VNode@@V?$allocator@VNode@@@std@@@std@@AEBA_K_K@Z
	?_Calculate_growth@?$vector@VPair@@V?$allocator@VPair@@@std@@@std@@AEBA_K_K@Z
	?_Calculate_growth@?$vector@VPoint@@V?$allocator@VPoint@@@std@@@std@@AEBA_K_K@Z
	?_Calculate_growth@?$vector@VPolyAtEdge@@V?$allocator@VPolyAtEdge@@@std@@@std@@AEBA_K_K@Z
	?_Calculate_growth@?$vector@VStripPtL2@@V?$allocator@VStripPtL2@@@std@@@std@@AEBA_K_K@Z
	?_Calculate_growth@?$vector@VStripPtL3@@V?$allocator@VStripPtL3@@@std@@@std@@AEBA_K_K@Z
	?_Calculate_growth@?$vector@VStripPtL@@V?$allocator@VStripPtL@@@std@@@std@@AEBA_K_K@Z
	?_Change_array@?$vector@HV?$allocator@H@std@@@std@@AEAAXQEAH_K1@Z
	?_Change_array@?$vector@PEBVInterPtType@@V?$allocator@PEBVInterPtType@@@std@@@std@@AEAAXQEAPEBVInterPtType@@_K1@Z
	?_Change_array@?$vector@U?$pair@VInterPtType@@V1@@std@@V?$allocator@U?$pair@VInterPtType@@V1@@std@@@2@@std@@AEAAXQEAU?$pair@VInterPtType@@V1@@2@_K1@Z
	?_Change_array@?$vector@V?$deque@VStripPtR@@V?$allocator@VStripPtR@@@std@@@std@@V?$allocator@V?$deque@VStripPtR@@V?$allocator@VStripPtR@@@std@@@std@@@2@@std@@AEAAXQEAV?$deque@VStripPtR@@V?$allocator@VStripPtR@@@std@@@2@_K1@Z
	?_Change_array@?$vector@V?$reference_wrapper@VStripPt@@@std@@V?$allocator@V?$reference_wrapper@VStripPt@@@std@@@2@@std@@AEAAXQEAV?$reference_wrapper@VStripPt@@@2@_K1@Z
	?_Change_array@?$vector@V?$reference_wrapper@VStripPtR@@@std@@V?$allocator@V?$reference_wrapper@VStripPtR@@@std@@@2@@std@@AEAAXQEAV?$reference_wrapper@VStripPtR@@@2@_K1@Z
	?_Change_array@?$vector@V?$shared_ptr@VLine@@@std@@V?$allocator@V?$shared_ptr@VLine@@@std@@@2@@std@@AEAAXQEAV?$shared_ptr@VLine@@@2@_K1@Z
	?_Change_array@?$vector@V?$shared_ptr@VObj@@@std@@V?$allocator@V?$shared_ptr@VObj@@@std@@@2@@std@@AEAAXQEAV?$shared_ptr@VObj@@@2@_K1@Z
	?_Change_array@?$vector@V?$vector@HV?$allocator@H@std@@@std@@V?$allocator@V?$vector@HV?$allocator@H@std@@@std@@@2@@std@@AEAAXQEAV?$vector@HV?$allocator@H@std@@@2@_K1@Z
	?_Change_array@?$vector@VInterPtType@@V?$allocator@VInterPtType@@@std@@@std@@AEAAXQEAVInterPtType@@_K1@Z
	?_Change_array@?$vector@VMergePt@@V?$allocator@VMergePt@@@std@@@std@@AEAAXQEAVMergePt@@_K1@Z
	?_Change_array@?$vector@VNode@@V?$allocator@VNode@@@std@@@std@@AEAAXQEAVNode@@_K1@Z
	?_Change_array@?$vector@VPair@@V?$allocator@VPair@@@std@@@std@@AEAAXQEAVPair@@_K1@Z
	?_Change_array@?$vector@VPoint@@V?$allocator@VPoint@@@std@@@std@@AEAAXQEAVPoint@@_K1@Z
	?_Change_array@?$vector@VPolyAtEdge@@V?$allocator@VPolyAtEdge@@@std@@@std@@AEAAXQEAVPolyAtEdge@@_K1@Z
	?_Change_array@?$vector@VStripPtL2@@V?$allocator@VStripPtL2@@@std@@@std@@AEAAXQEAVStripPtL2@@_K1@Z
	?_Change_array@?$vector@VStripPtL3@@V?$allocator@VStripPtL3@@@std@@@std@@AEAAXQEAVStripPtL3@@_K1@Z
	?_Change_array@?$vector@VStripPtL@@V?$allocator@VStripPtL@@@std@@@std@@AEAAXQEAVStripPtL@@_K1@Z
	?_Check_grow_by_1@?$_Tree@V?$_Tmap_traits@HHU?$less@H@std@@V?$allocator@U?$pair@$$CBHH@std@@@2@$0A@@std@@@std@@IEAAXXZ
	?_Check_grow_by_1@?$_Tree@V?$_Tmap_traits@HV?$set@HU?$less@H@std@@V?$allocator@H@2@@std@@U?$less@H@2@V?$allocator@U?$pair@$$CBHV?$set@HU?$less@H@std@@V?$allocator@H@2@@std@@@std@@@2@$0A@@std@@@std@@IEAAXXZ
	?_Check_grow_by_1@?$_Tree@V?$_Tmap_traits@HV?$vector@HV?$allocator@H@std@@@std@@U?$less@H@2@V?$allocator@U?$pair@$$CBHV?$vector@HV?$allocator@H@std@@@std@@@std@@@2@$0A@@std@@@std@@IEAAXXZ
	?_Check_grow_by_1@?$_Tree@V?$_Tmap_traits@HV?$vector@V?$reference_wrapper@VStripPtR@@@std@@V?$allocator@V?$reference_wrapper@VStripPtR@@@std@@@2@@std@@U?$less@H@2@V?$allocator@U?$pair@$$CBHV?$vector@V?$reference_wrapper@VStripPtR@@@std@@V?$allocator@V?$reference_wrapper@VStripPtR@@@std@@@2@@std@@@std@@@2@$0A@@std@@@std@@IEAAXXZ
	?_Check_grow_by_1@?$_Tree@V?$_Tmap_traits@HVPStrips@@U?$less@H@std@@V?$allocator@U?$pair@$$CBHVPStrips@@@std@@@3@$0A@@std@@@std@@IEAAXXZ
	?_Check_grow_by_1@?$_Tree@V?$_Tmap_traits@HVStripPt@@U?$less@H@std@@V?$allocator@U?$pair@$$CBHVStripPt@@@std@@@3@$0A@@std@@@std@@IEAAXXZ
	?_Check_grow_by_1@?$_Tree@V?$_Tmap_traits@HW4Rel@@U?$less@H@std@@V?$allocator@U?$pair@$$CBHW4Rel@@@std@@@3@$0A@@std@@@std@@IEAAXXZ
	?_Check_grow_by_1@?$_Tree@V?$_Tmap_traits@VPair@@V?$map@HHU?$less@H@std@@V?$allocator@U?$pair@$$CBHH@std@@@2@@std@@U?$less@VPair@@@3@V?$allocator@U?$pair@$$CBVPair@@V?$map@HHU?$less@H@std@@V?$allocator@U?$pair@$$CBHH@std@@@2@@std@@@std@@@3@$0A@@std@@@std@@IEAAXXZ
	?_Check_grow_by_1@?$_Tree@V?$_Tset_traits@HU?$less@H@std@@V?$allocator@H@2@$0A@@std@@@std@@IEAAXXZ
	?_Check_grow_by_1@?$_Tree@V?$_Tset_traits@VPair@@U?$less@VPair@@@std@@V?$allocator@VPair@@@3@$0A@@std@@@std@@IEAAXXZ
	?_Check_grow_by_1@?$_Tree@V?$_Tset_traits@VStripPtL@@U?$less@VStripPtL@@@std@@V?$allocator@VStripPtL@@@3@$0A@@std@@@std@@IEAAXXZ
	?_Check_offset@?$_String_val@U?$_Simple_types@D@std@@@std@@QEBAX_K@Z
	?_Clamp_suffix_size@?$_String_val@U?$_Simple_types@D@std@@@std@@QEBA_K_K0@Z
	?_Clear_and_reserve_geometric@?$vector@VPair@@V?$allocator@VPair@@@std@@@std@@AEAAX_K@Z
	?_Compat@?$_Deque_const_iterator@V?$_Deque_val@U?$_Deque_simple_types@H@std@@@std@@@std@@QEBAXAEBV12@@Z
	?_Compat@?$_Deque_const_iterator@V?$_Deque_val@U?$_Deque_simple_types@V?$vector@HV?$allocator@H@std@@@std@@@std@@@std@@@std@@QEBAXAEBV12@@Z
	?_Compat@?$_Deque_const_iterator@V?$_Deque_val@U?$_Deque_simple_types@VStripPtR@@@std@@@std@@@std@@QEBAXAEBV12@@Z
	?_Compat@?$_Vector_const_iterator@V?$_Vector_val@U?$_Simple_types@H@std@@@std@@@std@@QEBAXAEBV12@@Z
	?_Compat@?$_Vector_const_iterator@V?$_Vector_val@U?$_Simple_types@U?$pair@VInterPtType@@V1@@std@@@std@@@std@@@std@@QEBAXAEBV12@@Z
	?_Compat@?$_Vector_const_iterator@V?$_Vector_val@U?$_Simple_types@V?$deque@VStripPtR@@V?$allocator@VStripPtR@@@std@@@std@@@std@@@std@@@std@@QEBAXAEBV12@@Z
	?_Compat@?$_Vector_const_iterator@V?$_Vector_val@U?$_Simple_types@V?$reference_wrapper@VStripPtR@@@std@@@std@@@std@@@std@@QEBAXAEBV12@@Z
	?_Compat@?$_Vector_const_iterator@V?$_Vector_val@U?$_Simple_types@V?$shared_ptr@VLine@@@std@@@std@@@std@@@std@@QEBAXAEBV12@@Z
	?_Compat@?$_Vector_const_iterator@V?$_Vector_val@U?$_Simple_types@V?$shared_ptr@VObj@@@std@@@std@@@std@@@std@@QEBAXAEBV12@@Z
	?_Compat@?$_Vector_const_iterator@V?$_Vector_val@U?$_Simple_types@V?$vector@HV?$allocator@H@std@@@std@@@std@@@std@@@std@@QEBAXAEBV12@@Z
	?_Compat@?$_Vector_const_iterator@V?$_Vector_val@U?$_Simple_types@VInterPtType@@@std@@@std@@@std@@QEBAXAEBV12@@Z
	?_Compat@?$_Vector_const_iterator@V?$_Vector_val@U?$_Simple_types@VMergePt@@@std@@@std@@@std@@QEBAXAEBV12@@Z
	?_Compat@?$_Vector_const_iterator@V?$_Vector_val@U?$_Simple_types@VPair@@@std@@@std@@@std@@QEBAXAEBV12@@Z
	?_Compat@?$_Vector_const_iterator@V?$_Vector_val@U?$_Simple_types@VStripPtL2@@@std@@@std@@@std@@QEBAXAEBV12@@Z
	?_Compat@?$_Vector_const_iterator@V?$_Vector_val@U?$_Simple_types@VStripPtL3@@@std@@@std@@@std@@QEBAXAEBV12@@Z
	?_Compat@?$_Vector_const_iterator@V?$_Vector_val@U?$_Simple_types@VStripPtL@@@std@@@std@@@std@@QEBAXAEBV12@@Z
	?_Copy_assign@?$vector@VPair@@V?$allocator@VPair@@@std@@@std@@AEAAXAEBV12@U?$integral_constant@_N$0A@@2@@Z
	?_Decref@?$_Ptr_base@V?$map@VPair@@V?$vector@VVert4@@V?$allocator@VVert4@@@std@@@std@@U?$less@VPair@@@3@V?$allocator@U?$pair@$$CBVPair@@V?$vector@VVert4@@V?$allocator@VVert4@@@std@@@std@@@std@@@3@@std@@@std@@IEAAXXZ
	?_Decref@?$_Ptr_base@V?$set@HU?$less@H@std@@V?$allocator@H@2@@std@@@std@@IEAAXXZ
	?_Decref@?$_Ptr_base@VBB@@@std@@IEAAXXZ
	?_Decref@?$_Ptr_base@VD@@@std@@IEAAXXZ
	?_Decref@?$_Ptr_base@VLine@@@std@@IEAAXXZ
	?_Decref@?$_Ptr_base@VObj@@@std@@IEAAXXZ
	?_Decref@_Ref_count_base@std@@QEAAXXZ
	?_Decwref@_Ref_count_base@std@@QEAAXXZ
	?_Delete_this@?$_Ref_count@VLine@@@std@@EEAAXXZ
	?_Delete_this@?$_Ref_count_obj@VBB@@@std@@EEAAXXZ
	?_Destroy@?$_Ref_count@VLine@@@std@@EEAAXXZ
	?_Destroy@?$_Ref_count_obj@VBB@@@std@@EEAAXXZ
	?_Destroy@?$vector@HV?$allocator@H@std@@@std@@AEAAXPEAH0@Z
	?_Destroy@?$vector@PEBVInterPtType@@V?$allocator@PEBVInterPtType@@@std@@@std@@AEAAXPEAPEBVInterPtType@@0@Z
	?_Destroy@?$vector@U?$pair@VInterPtType@@V1@@std@@V?$allocator@U?$pair@VInterPtType@@V1@@std@@@2@@std@@AEAAXPEAU?$pair@VInterPtType@@V1@@2@0@Z
	?_Destroy@?$vector@V?$_List_unchecked_const_iterator@V?$_List_val@U?$_List_simple_types@VPair@@@std@@@std@@U_Iterator_base0@2@@std@@V?$allocator@V?$_List_unchecked_const_iterator@V?$_List_val@U?$_List_simple_types@VPair@@@std@@@std@@U_Iterator_base0@2@@std@@@2@@std@@AEAAXPEAV?$_List_unchecked_const_iterator@V?$_List_val@U?$_List_simple_types@VPair@@@std@@@std@@U_Iterator_base0@2@@2@0@Z
	?_Destroy@?$vector@V?$_List_unchecked_iterator@V?$_List_val@U?$_List_simple_types@U?$pair@$$CBVPair@@VSubP@@@std@@@std@@@std@@@std@@V?$allocator@V?$_List_unchecked_iterator@V?$_List_val@U?$_List_simple_types@U?$pair@$$CBVPair@@VSubP@@@std@@@std@@@std@@@std@@@2@@std@@AEAAXPEAV?$_List_unchecked_iterator@V?$_List_val@U?$_List_simple_types@U?$pair@$$CBVPair@@VSubP@@@std@@@std@@@std@@@2@0@Z
	?_Destroy@?$vector@V?$deque@VStripPtR@@V?$allocator@VStripPtR@@@std@@@std@@V?$allocator@V?$deque@VStripPtR@@V?$allocator@VStripPtR@@@std@@@std@@@2@@std@@AEAAXPEAV?$deque@VStripPtR@@V?$allocator@VStripPtR@@@std@@@2@0@Z
	?_Destroy@?$vector@V?$reference_wrapper@VStripPt@@@std@@V?$allocator@V?$reference_wrapper@VStripPt@@@std@@@2@@std@@AEAAXPEAV?$reference_wrapper@VStripPt@@@2@0@Z
	?_Destroy@?$vector@V?$reference_wrapper@VStripPtR@@@std@@V?$allocator@V?$reference_wrapper@VStripPtR@@@std@@@2@@std@@AEAAXPEAV?$reference_wrapper@VStripPtR@@@2@0@Z
	?_Destroy@?$vector@V?$shared_ptr@VLine@@@std@@V?$allocator@V?$shared_ptr@VLine@@@std@@@2@@std@@AEAAXPEAV?$shared_ptr@VLine@@@2@0@Z
	?_Destroy@?$vector@V?$shared_ptr@VObj@@@std@@V?$allocator@V?$shared_ptr@VObj@@@std@@@2@@std@@AEAAXPEAV?$shared_ptr@VObj@@@2@0@Z
	?_Destroy@?$vector@V?$vector@HV?$allocator@H@std@@@std@@V?$allocator@V?$vector@HV?$allocator@H@std@@@std@@@2@@std@@AEAAXPEAV?$vector@HV?$allocator@H@std@@@2@0@Z
	?_Destroy@?$vector@V?$vector@VPoint@@V?$allocator@VPoint@@@std@@@std@@V?$allocator@V?$vector@VPoint@@V?$allocator@VPoint@@@std@@@std@@@2@@std@@AEAAXPEAV?$vector@VPoint@@V?$allocator@VPoint@@@std@@@2@0@Z
	?_Destroy@?$vector@VInterPtType@@V?$allocator@VInterPtType@@@std@@@std@@AEAAXPEAVInterPtType@@0@Z
	?_Destroy@?$vector@VMergePt@@V?$allocator@VMergePt@@@std@@@std@@AEAAXPEAVMergePt@@0@Z
	?_Destroy@?$vector@VNode@@V?$allocator@VNode@@@std@@@std@@AEAAXPEAVNode@@0@Z
	?_Destroy@?$vector@VPair@@V?$allocator@VPair@@@std@@@std@@AEAAXPEAVPair@@0@Z
	?_Destroy@?$vector@VPoint@@V?$allocator@VPoint@@@std@@@std@@AEAAXPEAVPoint@@0@Z
	?_Destroy@?$vector@VPolyAtEdge@@V?$allocator@VPolyAtEdge@@@std@@@std@@AEAAXPEAVPolyAtEdge@@0@Z
	?_Destroy@?$vector@VStripPtL2@@V?$allocator@VStripPtL2@@@std@@@std@@AEAAXPEAVStripPtL2@@0@Z
	?_Destroy@?$vector@VStripPtL3@@V?$allocator@VStripPtL3@@@std@@@std@@AEAAXPEAVStripPtL3@@0@Z
	?_Destroy@?$vector@VStripPtL@@V?$allocator@VStripPtL@@@std@@@std@@AEAAXPEAVStripPtL@@0@Z
	?_Destroy@?$vector@VVert6@@V?$allocator@VVert6@@@std@@@std@@AEAAXPEAVVert6@@0@Z
	?_Endwrite@?$basic_filebuf@DU?$char_traits@D@std@@@std@@IEAA_NXZ
	?_Erase_unchecked@?$_Tree@V?$_Tmap_traits@HVStripPt@@U?$less@H@std@@V?$allocator@U?$pair@$$CBHVStripPt@@@std@@@3@$0A@@std@@@std@@AEAAPEAU?$_Tree_node@U?$pair@$$CBHVStripPt@@@std@@PEAX@2@V?$_Tree_unchecked_const_iterator@V?$_Tree_val@U?$_Tree_simple_types@U?$pair@$$CBHVStripPt@@@std@@@std@@@std@@U_Iterator_base0@2@@2@0@Z
	?_Erase_unchecked@?$_Tree@V?$_Tmap_traits@HVStripPt@@U?$less@H@std@@V?$allocator@U?$pair@$$CBHVStripPt@@@std@@@3@$0A@@std@@@std@@AEAAPEAU?$_Tree_node@U?$pair@$$CBHVStripPt@@@std@@PEAX@2@V?$_Tree_unchecked_const_iterator@V?$_Tree_val@U?$_Tree_simple_types@U?$pair@$$CBHVStripPt@@@std@@@std@@@std@@U_Iterator_base0@2@@2@@Z
	?_Extract@?$_In_place_key_extract_set@HH@std@@SAAEBHAEBH@Z
	?_Extract@?$_In_place_key_extract_set@V?$reference_wrapper@VStripPt@@@std@@V12@@std@@SAAEBV?$reference_wrapper@VStripPt@@@2@AEBV32@@Z
	?_Extract@?$_In_place_key_extract_set@VPair@@V1@@std@@SAAEBVPair@@AEBV3@@Z
	?_Extract@?$_In_place_key_extract_set@VStripPtL3@@V1@@std@@SAAEBVStripPtL3@@AEBV3@@Z
	?_Extract@?$_In_place_key_extract_set@VStripPtL@@V1@@std@@SAAEBVStripPtL@@AEBV3@@Z
	?_Extract@?$_Tree_val@U?$_Tree_simple_types@U?$pair@$$CBHVStripPt@@@std@@@std@@@std@@QEAAPEAU?$_Tree_node@U?$pair@$$CBHVStripPt@@@std@@PEAX@2@V?$_Tree_unchecked_const_iterator@V?$_Tree_val@U?$_Tree_simple_types@U?$pair@$$CBHVStripPt@@@std@@@std@@@std@@U_Iterator_base0@2@@2@@Z
	?_Get_data@?$basic_string@DU?$char_traits@D@std@@V?$allocator@D@2@@std@@AEAAAEAV?$_String_val@U?$_Simple_types@D@std@@@2@XZ
	?_Get_data@?$basic_string@DU?$char_traits@D@std@@V?$allocator@D@2@@std@@AEBAAEBV?$_String_val@U?$_Simple_types@D@std@@@2@XZ
	?_Get_data@?$deque@HV?$allocator@H@std@@@std@@AEAAAEAV?$_Deque_val@U?$_Deque_simple_types@H@std@@@2@XZ
	?_Get_data@?$deque@HV?$allocator@H@std@@@std@@AEBAAEBV?$_Deque_val@U?$_Deque_simple_types@H@std@@@2@XZ
	?_Get_data@?$deque@V?$vector@HV?$allocator@H@std@@@std@@V?$allocator@V?$vector@HV?$allocator@H@std@@@std@@@2@@std@@AEAAAEAV?$_Deque_val@U?$_Deque_simple_types@V?$vector@HV?$allocator@H@std@@@std@@@std@@@2@XZ
	?_Get_data@?$deque@V?$vector@HV?$allocator@H@std@@@std@@V?$allocator@V?$vector@HV?$allocator@H@std@@@std@@@2@@std@@AEBAAEBV?$_Deque_val@U?$_Deque_simple_types@V?$vector@HV?$allocator@H@std@@@std@@@std@@@2@XZ
	?_Get_data@?$deque@VPair@@V?$allocator@VPair@@@std@@@std@@AEAAAEAV?$_Deque_val@U?$_Deque_simple_types@VPair@@@std@@@2@XZ
	?_Get_data@?$deque@VPair@@V?$allocator@VPair@@@std@@@std@@AEBAAEBV?$_Deque_val@U?$_Deque_simple_types@VPair@@@std@@@2@XZ
	?_Get_data@?$deque@VStripPtR@@V?$allocator@VStripPtR@@@std@@@std@@AEAAAEAV?$_Deque_val@U?$_Deque_simple_types@VStripPtR@@@std@@@2@XZ
	?_Get_data@?$deque@VStripPtR@@V?$allocator@VStripPtR@@@std@@@std@@AEBAAEBV?$_Deque_val@U?$_Deque_simple_types@VStripPtR@@@std@@@2@XZ
	?_Get_data@?$list@U?$pair@$$CBVPair@@VSubP@@@std@@V?$allocator@U?$pair@$$CBVPair@@VSubP@@@std@@@2@@std@@AEAAAEAV?$_List_val@U?$_List_simple_types@U?$pair@$$CBVPair@@VSubP@@@std@@@std@@@2@XZ
	?_Get_data@?$list@VPair@@V?$allocator@VPair@@@std@@@std@@AEAAAEAV?$_List_val@U?$_List_simple_types@VPair@@@std@@@2@XZ
	?_Get_deleter@_Ref_count_base@std@@UEBAPEAXAEBVtype_info@@@Z
	?_Get_first@?$_Compressed_pair@U?$default_delete@V_Facet_base@std@@@std@@PEAV_Facet_base@2@$00@std@@QEAAAEAU?$default_delete@V_Facet_base@std@@@2@XZ
	?_Get_first@?$_Compressed_pair@U?$less@H@std@@V?$_Compressed_pair@V?$allocator@U?$_Tree_node@HPEAX@std@@@std@@V?$_Tree_val@U?$_Tree_simple_types@H@std@@@2@$00@2@$00@std@@QEBAAEBU?$less@H@2@XZ
	?_Get_first@?$_Compressed_pair@U?$less@H@std@@V?$_Compressed_pair@V?$allocator@U?$_Tree_node@U?$pair@$$CBHH@std@@PEAX@std@@@std@@V?$_Tree_val@U?$_Tree_simple_types@U?$pair@$$CBHH@std@@@std@@@2@$00@2@$00@std@@QEBAAEBU?$less@H@2@XZ
	?_Get_first@?$_Compressed_pair@U?$less@H@std@@V?$_Compressed_pair@V?$allocator@U?$_Tree_node@U?$pair@$$CBHV?$set@HU?$less@H@std@@V?$allocator@H@2@@std@@@std@@PEAX@std@@@std@@V?$_Tree_val@U?$_Tree_simple_types@U?$pair@$$CBHV?$set@HU?$less@H@std@@V?$allocator@H@2@@std@@@std@@@std@@@2@$00@2@$00@std@@QEBAAEBU?$less@H@2@XZ
	?_Get_first@?$_Compressed_pair@U?$less@H@std@@V?$_Compressed_pair@V?$allocator@U?$_Tree_node@U?$pair@$$CBHV?$vector@HV?$allocator@H@std@@@std@@@std@@PEAX@std@@@std@@V?$_Tree_val@U?$_Tree_simple_types@U?$pair@$$CBHV?$vector@HV?$allocator@H@std@@@std@@@std@@@std@@@2@$00@2@$00@std@@QEBAAEBU?$less@H@2@XZ
	?_Get_first@?$_Compressed_pair@U?$less@H@std@@V?$_Compressed_pair@V?$allocator@U?$_Tree_node@U?$pair@$$CBHV?$vector@V?$reference_wrapper@VStripPtR@@@std@@V?$allocator@V?$reference_wrapper@VStripPtR@@@std@@@2@@std@@@std@@PEAX@std@@@std@@V?$_Tree_val@U?$_Tree_simple_types@U?$pair@$$CBHV?$vector@V?$reference_wrapper@VStripPtR@@@std@@V?$allocator@V?$reference_wrapper@VStripPtR@@@std@@@2@@std@@@std@@@std@@@2@$00@2@$00@std@@QEBAAEBU?$less@H@2@XZ
	?_Get_first@?$_Compressed_pair@U?$less@H@std@@V?$_Compressed_pair@V?$allocator@U?$_Tree_node@U?$pair@$$CBHVPStrips@@@std@@PEAX@std@@@std@@V?$_Tree_val@U?$_Tree_simple_types@U?$pair@$$CBHVPStrips@@@std@@@std@@@2@$00@2@$00@std@@QEBAAEBU?$less@H@2@XZ
	?_Get_first@?$_Compressed_pair@U?$less@H@std@@V?$_Compressed_pair@V?$allocator@U?$_Tree_node@U?$pair@$$CBHVStripPt@@@std@@PEAX@std@@@std@@V?$_Tree_val@U?$_Tree_simple_types@U?$pair@$$CBHVStripPt@@@std@@@std@@@2@$00@2@$00@std@@QEBAAEBU?$less@H@2@XZ
	?_Get_first@?$_Compressed_pair@U?$less@H@std@@V?$_Compressed_pair@V?$allocator@U?$_Tree_node@U?$pair@$$CBHW4Rel@@@std@@PEAX@std@@@std@@V?$_Tree_val@U?$_Tree_simple_types@U?$pair@$$CBHW4Rel@@@std@@@std@@@2@$00@2@$00@std@@QEBAAEBU?$less@H@2@XZ
	?_Get_first@?$_Compressed_pair@U?$less@VPair@@@std@@V?$_Compressed_pair@V?$allocator@U?$_Tree_node@U?$pair@$$CBVPair@@V?$map@HHU?$less@H@std@@V?$allocator@U?$pair@$$CBHH@std@@@2@@std@@@std@@PEAX@std@@@std@@V?$_Tree_val@U?$_Tree_simple_types@U?$pair@$$CBVPair@@V?$map@HHU?$less@H@std@@V?$allocator@U?$pair@$$CBHH@std@@@2@@std@@@std@@@std@@@2@$00@2@$00@std@@QEBAAEBU?$less@VPair@@@2@XZ
	?_Get_first@?$_Compressed_pair@U?$less@VPair@@@std@@V?$_Compressed_pair@V?$allocator@U?$_Tree_node@VPair@@PEAX@std@@@std@@V?$_Tree_val@U?$_Tree_simple_types@VPair@@@std@@@2@$00@2@$00@std@@QEBAAEBU?$less@VPair@@@2@XZ
	?_Get_first@?$_Compressed_pair@U?$less@VStripPtL@@@std@@V?$_Compressed_pair@V?$allocator@U?$_Tree_node@VStripPtL@@PEAX@std@@@std@@V?$_Tree_val@U?$_Tree_simple_types@VStripPtL@@@std@@@2@$00@2@$00@std@@QEBAAEBU?$less@VStripPtL@@@2@XZ
	?_Get_first@?$_Compressed_pair@V?$allocator@D@std@@V?$_String_val@U?$_Simple_types@D@std@@@2@$00@std@@QEAAAEAV?$allocator@D@2@XZ
	?_Get_first@?$_Compressed_pair@V?$allocator@D@std@@V?$_String_val@U?$_Simple_types@D@std@@@2@$00@std@@QEBAAEBV?$allocator@D@2@XZ
	?_Get_first@?$_Compressed_pair@V?$allocator@H@std@@V?$_Deque_val@U?$_Deque_simple_types@H@std@@@2@$00@std@@QEAAAEAV?$allocator@H@2@XZ
	?_Get_first@?$_Compressed_pair@V?$allocator@H@std@@V?$_Deque_val@U?$_Deque_simple_types@H@std@@@2@$00@std@@QEBAAEBV?$allocator@H@2@XZ
	?_Get_first@?$_Compressed_pair@V?$allocator@H@std@@V?$_Vector_val@U?$_Simple_types@H@std@@@2@$00@std@@QEAAAEAV?$allocator@H@2@XZ
	?_Get_first@?$_Compressed_pair@V?$allocator@H@std@@V?$_Vector_val@U?$_Simple_types@H@std@@@2@$00@std@@QEBAAEBV?$allocator@H@2@XZ
	?_Get_first@?$_Compressed_pair@V?$allocator@PEBVInterPtType@@@std@@V?$_Vector_val@U?$_Simple_types@PEBVInterPtType@@@std@@@2@$00@std@@QEAAAEAV?$allocator@PEBVInterPtType@@@2@XZ
	?_Get_first@?$_Compressed_pair@V?$allocator@PEBVInterPtType@@@std@@V?$_Vector_val@U?$_Simple_types@PEBVInterPtType@@@std@@@2@$00@std@@QEBAAEBV?$allocator@PEBVInterPtType@@@2@XZ
	?_Get_first@?$_Compressed_pair@V?$allocator@U?$_List_node@U?$pair@$$CBVPair@@VSubP@@@std@@PEAX@std@@@std@@V?$_List_val@U?$_List_simple_types@U?$pair@$$CBVPair@@VSubP@@@std@@@std@@@2@$00@std@@QEAAAEAV?$allocator@U?$_List_node@U?$pair@$$CBVPair@@VSubP@@@std@@PEAX@std@@@2@XZ
	?_Get_first@?$_Compressed_pair@V?$allocator@U?$_List_node@VPair@@PEAX@std@@@std@@V?$_List_val@U?$_List_simple_types@VPair@@@std@@@2@$00@std@@QEAAAEAV?$allocator@U?$_List_node@VPair@@PEAX@std@@@2@XZ
	?_Get_first@?$_Compressed_pair@V?$allocator@U?$_Tree_node@HPEAX@std@@@std@@V?$_Tree_val@U?$_Tree_simple_types@H@std@@@2@$00@std@@QEAAAEAV?$allocator@U?$_Tree_node@HPEAX@std@@@2@XZ
	?_Get_first@?$_Compressed_pair@V?$allocator@U?$_Tree_node@HPEAX@std@@@std@@V?$_Tree_val@U?$_Tree_simple_types@H@std@@@2@$00@std@@QEBAAEBV?$allocator@U?$_Tree_node@HPEAX@std@@@2@XZ
	?_Get_first@?$_Compressed_pair@V?$allocator@U?$_Tree_node@U?$pair@$$CBHH@std@@PEAX@std@@@std@@V?$_Tree_val@U?$_Tree_simple_types@U?$pair@$$CBHH@std@@@std@@@2@$00@std@@QEAAAEAV?$allocator@U?$_Tree_node@U?$pair@$$CBHH@std@@PEAX@std@@@2@XZ
	?_Get_first@?$_Compressed_pair@V?$allocator@U?$_Tree_node@U?$pair@$$CBHH@std@@PEAX@std@@@std@@V?$_Tree_val@U?$_Tree_simple_types@U?$pair@$$CBHH@std@@@std@@@2@$00@std@@QEBAAEBV?$allocator@U?$_Tree_node@U?$pair@$$CBHH@std@@PEAX@std@@@2@XZ
	?_Get_first@?$_Compressed_pair@V?$allocator@U?$_Tree_node@U?$pair@$$CBHV?$set@HU?$less@H@std@@V?$allocator@H@2@@std@@@std@@PEAX@std@@@std@@V?$_Tree_val@U?$_Tree_simple_types@U?$pair@$$CBHV?$set@HU?$less@H@std@@V?$allocator@H@2@@std@@@std@@@std@@@2@$00@std@@QEAAAEAV?$allocator@U?$_Tree_node@U?$pair@$$CBHV?$set@HU?$less@H@std@@V?$allocator@H@2@@std@@@std@@PEAX@std@@@2@XZ
	?_Get_first@?$_Compressed_pair@V?$allocator@U?$_Tree_node@U?$pair@$$CBHV?$set@HU?$less@H@std@@V?$allocator@H@2@@std@@@std@@PEAX@std@@@std@@V?$_Tree_val@U?$_Tree_simple_types@U?$pair@$$CBHV?$set@HU?$less@H@std@@V?$allocator@H@2@@std@@@std@@@std@@@2@$00@std@@QEBAAEBV?$allocator@U?$_Tree_node@U?$pair@$$CBHV?$set@HU?$less@H@std@@V?$allocator@H@2@@std@@@std@@PEAX@std@@@2@XZ
	?_Get_first@?$_Compressed_pair@V?$allocator@U?$_Tree_node@U?$pair@$$CBHV?$vector@HV?$allocator@H@std@@@std@@@std@@PEAX@std@@@std@@V?$_Tree_val@U?$_Tree_simple_types@U?$pair@$$CBHV?$vector@HV?$allocator@H@std@@@std@@@std@@@std@@@2@$00@std@@QEAAAEAV?$allocator@U?$_Tree_node@U?$pair@$$CBHV?$vector@HV?$allocator@H@std@@@std@@@std@@PEAX@std@@@2@XZ
	?_Get_first@?$_Compressed_pair@V?$allocator@U?$_Tree_node@U?$pair@$$CBHV?$vector@HV?$allocator@H@std@@@std@@@std@@PEAX@std@@@std@@V?$_Tree_val@U?$_Tree_simple_types@U?$pair@$$CBHV?$vector@HV?$allocator@H@std@@@std@@@std@@@std@@@2@$00@std@@QEBAAEBV?$allocator@U?$_Tree_node@U?$pair@$$CBHV?$vector@HV?$allocator@H@std@@@std@@@std@@PEAX@std@@@2@XZ
	?_Get_first@?$_Compressed_pair@V?$allocator@U?$_Tree_node@U?$pair@$$CBHV?$vector@V?$reference_wrapper@VStripPtR@@@std@@V?$allocator@V?$reference_wrapper@VStripPtR@@@std@@@2@@std@@@std@@PEAX@std@@@std@@V?$_Tree_val@U?$_Tree_simple_types@U?$pair@$$CBHV?$vector@V?$reference_wrapper@VStripPtR@@@std@@V?$allocator@V?$reference_wrapper@VStripPtR@@@std@@@2@@std@@@std@@@std@@@2@$00@std@@QEAAAEAV?$allocator@U?$_Tree_node@U?$pair@$$CBHV?$vector@V?$reference_wrapper@VStripPtR@@@std@@V?$allocator@V?$reference_wrapper@VStripPtR@@@std@@@2@@std@@@std@@PEAX@std@@@2@XZ
	?_Get_first@?$_Compressed_pair@V?$allocator@U?$_Tree_node@U?$pair@$$CBHV?$vector@V?$reference_wrapper@VStripPtR@@@std@@V?$allocator@V?$reference_wrapper@VStripPtR@@@std@@@2@@std@@@std@@PEAX@std@@@std@@V?$_Tree_val@U?$_Tree_simple_types@U?$pair@$$CBHV?$vector@V?$reference_wrapper@VStripPtR@@@std@@V?$allocator@V?$reference_wrapper@VStripPtR@@@std@@@2@@std@@@std@@@std@@@2@$00@std@@QEBAAEBV?$allocator@U?$_Tree_node@U?$pair@$$CBHV?$vector@V?$reference_wrapper@VStripPtR@@@std@@V?$allocator@V?$reference_wrapper@VStripPtR@@@std@@@2@@std@@@std@@PEAX@std@@@2@XZ
	?_Get_first@?$_Compressed_pair@V?$allocator@U?$_Tree_node@U?$pair@$$CBHVPStrips@@@std@@PEAX@std@@@std@@V?$_Tree_val@U?$_Tree_simple_types@U?$pair@$$CBHVPStrips@@@std@@@std@@@2@$00@std@@QEAAAEAV?$allocator@U?$_Tree_node@U?$pair@$$CBHVPStrips@@@std@@PEAX@std@@@2@XZ
	?_Get_first@?$_Compressed_pair@V?$allocator@U?$_Tree_node@U?$pair@$$CBHVPStrips@@@std@@PEAX@std@@@std@@V?$_Tree_val@U?$_Tree_simple_types@U?$pair@$$CBHVPStrips@@@std@@@std@@@2@$00@std@@QEBAAEBV?$allocator@U?$_Tree_node@U?$pair@$$CBHVPStrips@@@std@@PEAX@std@@@2@XZ
	?_Get_first@?$_Compressed_pair@V?$allocator@U?$_Tree_node@U?$pair@$$CBHVStripPt@@@std@@PEAX@std@@@std@@V?$_Tree_val@U?$_Tree_simple_types@U?$pair@$$CBHVStripPt@@@std@@@std@@@2@$00@std@@QEAAAEAV?$allocator@U?$_Tree_node@U?$pair@$$CBHVStripPt@@@std@@PEAX@std@@@2@XZ
	?_Get_first@?$_Compressed_pair@V?$allocator@U?$_Tree_node@U?$pair@$$CBHVStripPt@@@std@@PEAX@std@@@std@@V?$_Tree_val@U?$_Tree_simple_types@U?$pair@$$CBHVStripPt@@@std@@@std@@@2@$00@std@@QEBAAEBV?$allocator@U?$_Tree_node@U?$pair@$$CBHVStripPt@@@std@@PEAX@std@@@2@XZ
	?_Get_first@?$_Compressed_pair@V?$allocator@U?$_Tree_node@U?$pair@$$CBHW4Rel@@@std@@PEAX@std@@@std@@V?$_Tree_val@U?$_Tree_simple_types@U?$pair@$$CBHW4Rel@@@std@@@std@@@2@$00@std@@QEAAAEAV?$allocator@U?$_Tree_node@U?$pair@$$CBHW4Rel@@@std@@PEAX@std@@@2@XZ
	?_Get_first@?$_Compressed_pair@V?$allocator@U?$_Tree_node@U?$pair@$$CBHW4Rel@@@std@@PEAX@std@@@std@@V?$_Tree_val@U?$_Tree_simple_types@U?$pair@$$CBHW4Rel@@@std@@@std@@@2@$00@std@@QEBAAEBV?$allocator@U?$_Tree_node@U?$pair@$$CBHW4Rel@@@std@@PEAX@std@@@2@XZ
	?_Get_first@?$_Compressed_pair@V?$allocator@U?$_Tree_node@U?$pair@$$CBVPair@@V?$map@HHU?$less@H@std@@V?$allocator@U?$pair@$$CBHH@std@@@2@@std@@@std@@PEAX@std@@@std@@V?$_Tree_val@U?$_Tree_simple_types@U?$pair@$$CBVPair@@V?$map@HHU?$less@H@std@@V?$allocator@U?$pair@$$CBHH@std@@@2@@std@@@std@@@std@@@2@$00@std@@QEAAAEAV?$allocator@U?$_Tree_node@U?$pair@$$CBVPair@@V?$map@HHU?$less@H@std@@V?$allocator@U?$pair@$$CBHH@std@@@2@@std@@@std@@PEAX@std@@@2@XZ
	?_Get_first@?$_Compressed_pair@V?$allocator@U?$_Tree_node@U?$pair@$$CBVPair@@V?$map@HHU?$less@H@std@@V?$allocator@U?$pair@$$CBHH@std@@@2@@std@@@std@@PEAX@std@@@std@@V?$_Tree_val@U?$_Tree_simple_types@U?$pair@$$CBVPair@@V?$map@HHU?$less@H@std@@V?$allocator@U?$pair@$$CBHH@std@@@2@@std@@@std@@@std@@@2@$00@std@@QEBAAEBV?$allocator@U?$_Tree_node@U?$pair@$$CBVPair@@V?$map@HHU?$less@H@std@@V?$allocator@U?$pair@$$CBHH@std@@@2@@std@@@std@@PEAX@std@@@2@XZ
	?_Get_first@?$_Compressed_pair@V?$allocator@U?$_Tree_node@V?$reference_wrapper@VStripPt@@@std@@PEAX@std@@@std@@V?$_Tree_val@U?$_Tree_simple_types@V?$reference_wrapper@VStripPt@@@std@@@std@@@2@$00@std@@QEAAAEAV?$allocator@U?$_Tree_node@V?$reference_wrapper@VStripPt@@@std@@PEAX@std@@@2@XZ
	?_Get_first@?$_Compressed_pair@V?$allocator@U?$_Tree_node@V?$reference_wrapper@VStripPt@@@std@@PEAX@std@@@std@@V?$_Tree_val@U?$_Tree_simple_types@V?$reference_wrapper@VStripPt@@@std@@@std@@@2@$00@std@@QEBAAEBV?$allocator@U?$_Tree_node@V?$reference_wrapper@VStripPt@@@std@@PEAX@std@@@2@XZ
	?_Get_first@?$_Compressed_pair@V?$allocator@U?$_Tree_node@VPair@@PEAX@std@@@std@@V?$_Tree_val@U?$_Tree_simple_types@VPair@@@std@@@2@$00@std@@QEAAAEAV?$allocator@U?$_Tree_node@VPair@@PEAX@std@@@2@XZ
	?_Get_first@?$_Compressed_pair@V?$allocator@U?$_Tree_node@VPair@@PEAX@std@@@std@@V?$_Tree_val@U?$_Tree_simple_types@VPair@@@std@@@2@$00@std@@QEBAAEBV?$allocator@U?$_Tree_node@VPair@@PEAX@std@@@2@XZ
	?_Get_first@?$_Compressed_pair@V?$allocator@U?$_Tree_node@VStripPtL3@@PEAX@std@@@std@@V?$_Tree_val@U?$_Tree_simple_types@VStripPtL3@@@std@@@2@$00@std@@QEAAAEAV?$allocator@U?$_Tree_node@VStripPtL3@@PEAX@std@@@2@XZ
	?_Get_first@?$_Compressed_pair@V?$allocator@U?$_Tree_node@VStripPtL3@@PEAX@std@@@std@@V?$_Tree_val@U?$_Tree_simple_types@VStripPtL3@@@std@@@2@$00@std@@QEBAAEBV?$allocator@U?$_Tree_node@VStripPtL3@@PEAX@std@@@2@XZ
	?_Get_first@?$_Compressed_pair@V?$allocator@U?$_Tree_node@VStripPtL@@PEAX@std@@@std@@V?$_Tree_val@U?$_Tree_simple_types@VStripPtL@@@std@@@2@$00@std@@QEAAAEAV?$allocator@U?$_Tree_node@VStripPtL@@PEAX@std@@@2@XZ
	?_Get_first@?$_Compressed_pair@V?$allocator@U?$_Tree_node@VStripPtL@@PEAX@std@@@std@@V?$_Tree_val@U?$_Tree_simple_types@VStripPtL@@@std@@@2@$00@std@@QEBAAEBV?$allocator@U?$_Tree_node@VStripPtL@@PEAX@std@@@2@XZ
	?_Get_first@?$_Compressed_pair@V?$allocator@U?$pair@VInterPtType@@V1@@std@@@std@@V?$_Vector_val@U?$_Simple_types@U?$pair@VInterPtType@@V1@@std@@@std@@@2@$00@std@@QEAAAEAV?$allocator@U?$pair@VInterPtType@@V1@@std@@@2@XZ
	?_Get_first@?$_Compressed_pair@V?$allocator@U?$pair@VInterPtType@@V1@@std@@@std@@V?$_Vector_val@U?$_Simple_types@U?$pair@VInterPtType@@V1@@std@@@std@@@2@$00@std@@QEBAAEBV?$allocator@U?$pair@VInterPtType@@V1@@std@@@2@XZ
	?_Get_first@?$_Compressed_pair@V?$allocator@V?$_List_unchecked_const_iterator@V?$_List_val@U?$_List_simple_types@VPair@@@std@@@std@@U_Iterator_base0@2@@std@@@std@@V?$_Vector_val@U?$_Simple_types@V?$_List_unchecked_const_iterator@V?$_List_val@U?$_List_simple_types@VPair@@@std@@@std@@U_Iterator_base0@2@@std@@@std@@@2@$00@std@@QEAAAEAV?$allocator@V?$_List_unchecked_const_iterator@V?$_List_val@U?$_List_simple_types@VPair@@@std@@@std@@U_Iterator_base0@2@@std@@@2@XZ
	?_Get_first@?$_Compressed_pair@V?$allocator@V?$_List_unchecked_iterator@V?$_List_val@U?$_List_simple_types@U?$pair@$$CBVPair@@VSubP@@@std@@@std@@@std@@@std@@@std@@V?$_Vector_val@U?$_Simple_types@V?$_List_unchecked_iterator@V?$_List_val@U?$_List_simple_types@U?$pair@$$CBVPair@@VSubP@@@std@@@std@@@std@@@std@@@std@@@2@$00@std@@QEAAAEAV?$allocator@V?$_List_unchecked_iterator@V?$_List_val@U?$_List_simple_types@U?$pair@$$CBVPair@@VSubP@@@std@@@std@@@std@@@std@@@2@XZ
	?_Get_first@?$_Compressed_pair@V?$allocator@V?$deque@VStripPtR@@V?$allocator@VStripPtR@@@std@@@std@@@std@@V?$_Vector_val@U?$_Simple_types@V?$deque@VStripPtR@@V?$allocator@VStripPtR@@@std@@@std@@@std@@@2@$00@std@@QEAAAEAV?$allocator@V?$deque@VStripPtR@@V?$allocator@VStripPtR@@@std@@@std@@@2@XZ
	?_Get_first@?$_Compressed_pair@V?$allocator@V?$deque@VStripPtR@@V?$allocator@VStripPtR@@@std@@@std@@@std@@V?$_Vector_val@U?$_Simple_types@V?$deque@VStripPtR@@V?$allocator@VStripPtR@@@std@@@std@@@std@@@2@$00@std@@QEBAAEBV?$allocator@V?$deque@VStripPtR@@V?$allocator@VStripPtR@@@std@@@std@@@2@XZ
	?_Get_first@?$_Compressed_pair@V?$allocator@V?$reference_wrapper@VStripPt@@@std@@@std@@V?$_Vector_val@U?$_Simple_types@V?$reference_wrapper@VStripPt@@@std@@@std@@@2@$00@std@@QEAAAEAV?$allocator@V?$reference_wrapper@VStripPt@@@std@@@2@XZ
	?_Get_first@?$_Compressed_pair@V?$allocator@V?$reference_wrapper@VStripPt@@@std@@@std@@V?$_Vector_val@U?$_Simple_types@V?$reference_wrapper@VStripPt@@@std@@@std@@@2@$00@std@@QEBAAEBV?$allocator@V?$reference_wrapper@VStripPt@@@std@@@2@XZ
	?_Get_first@?$_Compressed_pair@V?$allocator@V?$reference_wrapper@VStripPtR@@@std@@@std@@V?$_Vector_val@U?$_Simple_types@V?$reference_wrapper@VStripPtR@@@std@@@std@@@2@$00@std@@QEAAAEAV?$allocator@V?$reference_wrapper@VStripPtR@@@std@@@2@XZ
	?_Get_first@?$_Compressed_pair@V?$allocator@V?$reference_wrapper@VStripPtR@@@std@@@std@@V?$_Vector_val@U?$_Simple_types@V?$reference_wrapper@VStripPtR@@@std@@@std@@@2@$00@std@@QEBAAEBV?$allocator@V?$reference_wrapper@VStripPtR@@@std@@@2@XZ
	?_Get_first@?$_Compressed_pair@V?$allocator@V?$shared_ptr@VLine@@@std@@@std@@V?$_Vector_val@U?$_Simple_types@V?$shared_ptr@VLine@@@std@@@std@@@2@$00@std@@QEAAAEAV?$allocator@V?$shared_ptr@VLine@@@std@@@2@XZ
	?_Get_first@?$_Compressed_pair@V?$allocator@V?$shared_ptr@VLine@@@std@@@std@@V?$_Vector_val@U?$_Simple_types@V?$shared_ptr@VLine@@@std@@@std@@@2@$00@std@@QEBAAEBV?$allocator@V?$shared_ptr@VLine@@@std@@@2@XZ
	?_Get_first@?$_Compressed_pair@V?$allocator@V?$shared_ptr@VObj@@@std@@@std@@V?$_Vector_val@U?$_Simple_types@V?$shared_ptr@VObj@@@std@@@std@@@2@$00@std@@QEAAAEAV?$allocator@V?$shared_ptr@VObj@@@std@@@2@XZ
	?_Get_first@?$_Compressed_pair@V?$allocator@V?$shared_ptr@VObj@@@std@@@std@@V?$_Vector_val@U?$_Simple_types@V?$shared_ptr@VObj@@@std@@@std@@@2@$00@std@@QEBAAEBV?$allocator@V?$shared_ptr@VObj@@@std@@@2@XZ
	?_Get_first@?$_Compressed_pair@V?$allocator@V?$vector@HV?$allocator@H@std@@@std@@@std@@V?$_Deque_val@U?$_Deque_simple_types@V?$vector@HV?$allocator@H@std@@@std@@@std@@@2@$00@std@@QEAAAEAV?$allocator@V?$vector@HV?$allocator@H@std@@@std@@@2@XZ
	?_Get_first@?$_Compressed_pair@V?$allocator@V?$vector@HV?$allocator@H@std@@@std@@@std@@V?$_Deque_val@U?$_Deque_simple_types@V?$vector@HV?$allocator@H@std@@@std@@@std@@@2@$00@std@@QEBAAEBV?$allocator@V?$vector@HV?$allocator@H@std@@@std@@@2@XZ
	?_Get_first@?$_Compressed_pair@V?$allocator@V?$vector@HV?$allocator@H@std@@@std@@@std@@V?$_Vector_val@U?$_Simple_types@V?$vector@HV?$allocator@H@std@@@std@@@std@@@2@$00@std@@QEAAAEAV?$allocator@V?$vector@HV?$allocator@H@std@@@std@@@2@XZ
	?_Get_first@?$_Compressed_pair@V?$allocator@V?$vector@HV?$allocator@H@std@@@std@@@std@@V?$_Vector_val@U?$_Simple_types@V?$vector@HV?$allocator@H@std@@@std@@@std@@@2@$00@std@@QEBAAEBV?$allocator@V?$vector@HV?$allocator@H@std@@@std@@@2@XZ
	?_Get_first@?$_Compressed_pair@V?$allocator@V?$vector@VPoint@@V?$allocator@VPoint@@@std@@@std@@@std@@V?$_Vector_val@U?$_Simple_types@V?$vector@VPoint@@V?$allocator@VPoint@@@std@@@std@@@std@@@2@$00@std@@QEAAAEAV?$allocator@V?$vector@VPoint@@V?$allocator@VPoint@@@std@@@std@@@2@XZ
	?_Get_first@?$_Compressed_pair@V?$allocator@VInterPtType@@@std@@V?$_Vector_val@U?$_Simple_types@VInterPtType@@@std@@@2@$00@std@@QEAAAEAV?$allocator@VInterPtType@@@2@XZ
	?_Get_first@?$_Compressed_pair@V?$allocator@VInterPtType@@@std@@V?$_Vector_val@U?$_Simple_types@VInterPtType@@@std@@@2@$00@std@@QEBAAEBV?$allocator@VInterPtType@@@2@XZ
	?_Get_first@?$_Compressed_pair@V?$allocator@VMergePt@@@std@@V?$_Vector_val@U?$_Simple_types@VMergePt@@@std@@@2@$00@std@@QEAAAEAV?$allocator@VMergePt@@@2@XZ
	?_Get_first@?$_Compressed_pair@V?$allocator@VMergePt@@@std@@V?$_Vector_val@U?$_Simple_types@VMergePt@@@std@@@2@$00@std@@QEBAAEBV?$allocator@VMergePt@@@2@XZ
	?_Get_first@?$_Compressed_pair@V?$allocator@VNode@@@std@@V?$_Vector_val@U?$_Simple_types@VNode@@@std@@@2@$00@std@@QEAAAEAV?$allocator@VNode@@@2@XZ
	?_Get_first@?$_Compressed_pair@V?$allocator@VNode@@@std@@V?$_Vector_val@U?$_Simple_types@VNode@@@std@@@2@$00@std@@QEBAAEBV?$allocator@VNode@@@2@XZ
	?_Get_first@?$_Compressed_pair@V?$allocator@VPair@@@std@@V?$_Deque_val@U?$_Deque_simple_types@VPair@@@std@@@2@$00@std@@QEAAAEAV?$allocator@VPair@@@2@XZ
	?_Get_first@?$_Compressed_pair@V?$allocator@VPair@@@std@@V?$_Vector_val@U?$_Simple_types@VPair@@@std@@@2@$00@std@@QEAAAEAV?$allocator@VPair@@@2@XZ
	?_Get_first@?$_Compressed_pair@V?$allocator@VPair@@@std@@V?$_Vector_val@U?$_Simple_types@VPair@@@std@@@2@$00@std@@QEBAAEBV?$allocator@VPair@@@2@XZ
	?_Get_first@?$_Compressed_pair@V?$allocator@VPoint@@@std@@V?$_Vector_val@U?$_Simple_types@VPoint@@@std@@@2@$00@std@@QEAAAEAV?$allocator@VPoint@@@2@XZ
	?_Get_first@?$_Compressed_pair@V?$allocator@VPoint@@@std@@V?$_Vector_val@U?$_Simple_types@VPoint@@@std@@@2@$00@std@@QEBAAEBV?$allocator@VPoint@@@2@XZ
	?_Get_first@?$_Compressed_pair@V?$allocator@VPolyAtEdge@@@std@@V?$_Vector_val@U?$_Simple_types@VPolyAtEdge@@@std@@@2@$00@std@@QEAAAEAV?$allocator@VPolyAtEdge@@@2@XZ
	?_Get_first@?$_Compressed_pair@V?$allocator@VPolyAtEdge@@@std@@V?$_Vector_val@U?$_Simple_types@VPolyAtEdge@@@std@@@2@$00@std@@QEBAAEBV?$allocator@VPolyAtEdge@@@2@XZ
	?_Get_first@?$_Compressed_pair@V?$allocator@VStripPtL2@@@std@@V?$_Vector_val@U?$_Simple_types@VStripPtL2@@@std@@@2@$00@std@@QEAAAEAV?$allocator@VStripPtL2@@@2@XZ
	?_Get_first@?$_Compressed_pair@V?$allocator@VStripPtL2@@@std@@V?$_Vector_val@U?$_Simple_types@VStripPtL2@@@std@@@2@$00@std@@QEBAAEBV?$allocator@VStripPtL2@@@2@XZ
	?_Get_first@?$_Compressed_pair@V?$allocator@VStripPtL3@@@std@@V?$_Vector_val@U?$_Simple_types@VStripPtL3@@@std@@@2@$00@std@@QEAAAEAV?$allocator@VStripPtL3@@@2@XZ
	?_Get_first@?$_Compressed_pair@V?$allocator@VStripPtL3@@@std@@V?$_Vector_val@U?$_Simple_types@VStripPtL3@@@std@@@2@$00@std@@QEBAAEBV?$allocator@VStripPtL3@@@2@XZ
	?_Get_first@?$_Compressed_pair@V?$allocator@VStripPtL@@@std@@V?$_Vector_val@U?$_Simple_types@VStripPtL@@@std@@@2@$00@std@@QEAAAEAV?$allocator@VStripPtL@@@2@XZ
	?_Get_first@?$_Compressed_pair@V?$allocator@VStripPtL@@@std@@V?$_Vector_val@U?$_Simple_types@VStripPtL@@@std@@@2@$00@std@@QEBAAEBV?$allocator@VStripPtL@@@2@XZ
	?_Get_first@?$_Compressed_pair@V?$allocator@VStripPtR@@@std@@V?$_Deque_val@U?$_Deque_simple_types@VStripPtR@@@std@@@2@$00@std@@QEAAAEAV?$allocator@VStripPtR@@@2@XZ
	?_Get_first@?$_Compressed_pair@V?$allocator@VStripPtR@@@std@@V?$_Deque_val@U?$_Deque_simple_types@VStripPtR@@@std@@@2@$00@std@@QEBAAEBV?$allocator@VStripPtR@@@2@XZ
	?_Get_first@?$_Compressed_pair@V?$allocator@VVert6@@@std@@V?$_Vector_val@U?$_Simple_types@VVert6@@@std@@@2@$00@std@@QEAAAEAV?$allocator@VVert6@@@2@XZ
	?_Get_rest@?$tuple@AEBH@std@@QEBAAEBV?$tuple@$$V@2@XZ
	?_Get_rest@?$tuple@AEBHAEBH@std@@QEBAAEBV?$tuple@AEBH@2@XZ
	?_Get_rest@?$tuple@AEBHAEBHAEBH@std@@QEBAAEBV?$tuple@AEBHAEBH@2@XZ
	?_Get_scary@?$_Tree@V?$_Tmap_traits@HHU?$less@H@std@@V?$allocator@U?$pair@$$CBHH@std@@@2@$0A@@std@@@std@@IEAAPEAV?$_Tree_val@U?$_Tree_simple_types@U?$pair@$$CBHH@std@@@std@@@2@XZ
	?_Get_scary@?$_Tree@V?$_Tmap_traits@HHU?$less@H@std@@V?$allocator@U?$pair@$$CBHH@std@@@2@$0A@@std@@@std@@IEBAPEBV?$_Tree_val@U?$_Tree_simple_types@U?$pair@$$CBHH@std@@@std@@@2@XZ
	?_Get_scary@?$_Tree@V?$_Tmap_traits@HV?$set@HU?$less@H@std@@V?$allocator@H@2@@std@@U?$less@H@2@V?$allocator@U?$pair@$$CBHV?$set@HU?$less@H@std@@V?$allocator@H@2@@std@@@std@@@2@$0A@@std@@@std@@IEAAPEAV?$_Tree_val@U?$_Tree_simple_types@U?$pair@$$CBHV?$set@HU?$less@H@std@@V?$allocator@H@2@@std@@@std@@@std@@@2@XZ
	?_Get_scary@?$_Tree@V?$_Tmap_traits@HV?$set@HU?$less@H@std@@V?$allocator@H@2@@std@@U?$less@H@2@V?$allocator@U?$pair@$$CBHV?$set@HU?$less@H@std@@V?$allocator@H@2@@std@@@std@@@2@$0A@@std@@@std@@IEBAPEBV?$_Tree_val@U?$_Tree_simple_types@U?$pair@$$CBHV?$set@HU?$less@H@std@@V?$allocator@H@2@@std@@@std@@@std@@@2@XZ
	?_Get_scary@?$_Tree@V?$_Tmap_traits@HV?$vector@HV?$allocator@H@std@@@std@@U?$less@H@2@V?$allocator@U?$pair@$$CBHV?$vector@HV?$allocator@H@std@@@std@@@std@@@2@$0A@@std@@@std@@IEAAPEAV?$_Tree_val@U?$_Tree_simple_types@U?$pair@$$CBHV?$vector@HV?$allocator@H@std@@@std@@@std@@@std@@@2@XZ
	?_Get_scary@?$_Tree@V?$_Tmap_traits@HV?$vector@HV?$allocator@H@std@@@std@@U?$less@H@2@V?$allocator@U?$pair@$$CBHV?$vector@HV?$allocator@H@std@@@std@@@std@@@2@$0A@@std@@@std@@IEBAPEBV?$_Tree_val@U?$_Tree_simple_types@U?$pair@$$CBHV?$vector@HV?$allocator@H@std@@@std@@@std@@@std@@@2@XZ
	?_Get_scary@?$_Tree@V?$_Tmap_traits@HV?$vector@V?$reference_wrapper@VStripPtR@@@std@@V?$allocator@V?$reference_wrapper@VStripPtR@@@std@@@2@@std@@U?$less@H@2@V?$allocator@U?$pair@$$CBHV?$vector@V?$reference_wrapper@VStripPtR@@@std@@V?$allocator@V?$reference_wrapper@VStripPtR@@@std@@@2@@std@@@std@@@2@$0A@@std@@@std@@IEAAPEAV?$_Tree_val@U?$_Tree_simple_types@U?$pair@$$CBHV?$vector@V?$reference_wrapper@VStripPtR@@@std@@V?$allocator@V?$reference_wrapper@VStripPtR@@@std@@@2@@std@@@std@@@std@@@2@XZ
	?_Get_scary@?$_Tree@V?$_Tmap_traits@HV?$vector@V?$reference_wrapper@VStripPtR@@@std@@V?$allocator@V?$reference_wrapper@VStripPtR@@@std@@@2@@std@@U?$less@H@2@V?$allocator@U?$pair@$$CBHV?$vector@V?$reference_wrapper@VStripPtR@@@std@@V?$allocator@V?$reference_wrapper@VStripPtR@@@std@@@2@@std@@@std@@@2@$0A@@std@@@std@@IEBAPEBV?$_Tree_val@U?$_Tree_simple_types@U?$pair@$$CBHV?$vector@V?$reference_wrapper@VStripPtR@@@std@@V?$allocator@V?$reference_wrapper@VStripPtR@@@std@@@2@@std@@@std@@@std@@@2@XZ
	?_Get_scary@?$_Tree@V?$_Tmap_traits@HVPStrips@@U?$less@H@std@@V?$allocator@U?$pair@$$CBHVPStrips@@@std@@@3@$0A@@std@@@std@@IEAAPEAV?$_Tree_val@U?$_Tree_simple_types@U?$pair@$$CBHVPStrips@@@std@@@std@@@2@XZ
	?_Get_scary@?$_Tree@V?$_Tmap_traits@HVPStrips@@U?$less@H@std@@V?$allocator@U?$pair@$$CBHVPStrips@@@std@@@3@$0A@@std@@@std@@IEBAPEBV?$_Tree_val@U?$_Tree_simple_types@U?$pair@$$CBHVPStrips@@@std@@@std@@@2@XZ
	?_Get_scary@?$_Tree@V?$_Tmap_traits@HVStripPt@@U?$less@H@std@@V?$allocator@U?$pair@$$CBHVStripPt@@@std@@@3@$0A@@std@@@std@@IEAAPEAV?$_Tree_val@U?$_Tree_simple_types@U?$pair@$$CBHVStripPt@@@std@@@std@@@2@XZ
	?_Get_scary@?$_Tree@V?$_Tmap_traits@HVStripPt@@U?$less@H@std@@V?$allocator@U?$pair@$$CBHVStripPt@@@std@@@3@$0A@@std@@@std@@IEBAPEBV?$_Tree_val@U?$_Tree_simple_types@U?$pair@$$CBHVStripPt@@@std@@@std@@@2@XZ
	?_Get_scary@?$_Tree@V?$_Tmap_traits@HW4Rel@@U?$less@H@std@@V?$allocator@U?$pair@$$CBHW4Rel@@@std@@@3@$0A@@std@@@std@@IEAAPEAV?$_Tree_val@U?$_Tree_simple_types@U?$pair@$$CBHW4Rel@@@std@@@std@@@2@XZ
	?_Get_scary@?$_Tree@V?$_Tmap_traits@HW4Rel@@U?$less@H@std@@V?$allocator@U?$pair@$$CBHW4Rel@@@std@@@3@$0A@@std@@@std@@IEBAPEBV?$_Tree_val@U?$_Tree_simple_types@U?$pair@$$CBHW4Rel@@@std@@@std@@@2@XZ
	?_Get_scary@?$_Tree@V?$_Tmap_traits@VPair@@V?$map@HHU?$less@H@std@@V?$allocator@U?$pair@$$CBHH@std@@@2@@std@@U?$less@VPair@@@3@V?$allocator@U?$pair@$$CBVPair@@V?$map@HHU?$less@H@std@@V?$allocator@U?$pair@$$CBHH@std@@@2@@std@@@std@@@3@$0A@@std@@@std@@IEAAPEAV?$_Tree_val@U?$_Tree_simple_types@U?$pair@$$CBVPair@@V?$map@HHU?$less@H@std@@V?$allocator@U?$pair@$$CBHH@std@@@2@@std@@@std@@@std@@@2@XZ
	?_Get_scary@?$_Tree@V?$_Tmap_traits@VPair@@V?$map@HHU?$less@H@std@@V?$allocator@U?$pair@$$CBHH@std@@@2@@std@@U?$less@VPair@@@3@V?$allocator@U?$pair@$$CBVPair@@V?$map@HHU?$less@H@std@@V?$allocator@U?$pair@$$CBHH@std@@@2@@std@@@std@@@3@$0A@@std@@@std@@IEBAPEBV?$_Tree_val@U?$_Tree_simple_types@U?$pair@$$CBVPair@@V?$map@HHU?$less@H@std@@V?$allocator@U?$pair@$$CBHH@std@@@2@@std@@@std@@@std@@@2@XZ
	?_Get_scary@?$_Tree@V?$_Tset_traits@HU?$less@H@std@@V?$allocator@H@2@$0A@@std@@@std@@IEAAPEAV?$_Tree_val@U?$_Tree_simple_types@H@std@@@2@XZ
	?_Get_scary@?$_Tree@V?$_Tset_traits@HU?$less@H@std@@V?$allocator@H@2@$0A@@std@@@std@@IEBAPEBV?$_Tree_val@U?$_Tree_simple_types@H@std@@@2@XZ
	?_Get_scary@?$_Tree@V?$_Tset_traits@VPair@@U?$less@VPair@@@std@@V?$allocator@VPair@@@3@$0A@@std@@@std@@IEAAPEAV?$_Tree_val@U?$_Tree_simple_types@VPair@@@std@@@2@XZ
	?_Get_scary@?$_Tree@V?$_Tset_traits@VPair@@U?$less@VPair@@@std@@V?$allocator@VPair@@@3@$0A@@std@@@std@@IEBAPEBV?$_Tree_val@U?$_Tree_simple_types@VPair@@@std@@@2@XZ
	?_Get_scary@?$_Tree@V?$_Tset_traits@VStripPtL@@U?$less@VStripPtL@@@std@@V?$allocator@VStripPtL@@@3@$0A@@std@@@std@@IEAAPEAV?$_Tree_val@U?$_Tree_simple_types@VStripPtL@@@std@@@2@XZ
	?_Get_scary@?$_Tree@V?$_Tset_traits@VStripPtL@@U?$less@VStripPtL@@@std@@V?$allocator@VStripPtL@@@3@$0A@@std@@@std@@IEBAPEBV?$_Tree_val@U?$_Tree_simple_types@VStripPtL@@@std@@@2@XZ
	?_Getal@?$_Tree@V?$_Tmap_traits@HHU?$less@H@std@@V?$allocator@U?$pair@$$CBHH@std@@@2@$0A@@std@@@std@@IEAAAEAV?$allocator@U?$_Tree_node@U?$pair@$$CBHH@std@@PEAX@std@@@2@XZ
	?_Getal@?$_Tree@V?$_Tmap_traits@HHU?$less@H@std@@V?$allocator@U?$pair@$$CBHH@std@@@2@$0A@@std@@@std@@IEBAAEBV?$allocator@U?$_Tree_node@U?$pair@$$CBHH@std@@PEAX@std@@@2@XZ
	?_Getal@?$_Tree@V?$_Tmap_traits@HV?$set@HU?$less@H@std@@V?$allocator@H@2@@std@@U?$less@H@2@V?$allocator@U?$pair@$$CBHV?$set@HU?$less@H@std@@V?$allocator@H@2@@std@@@std@@@2@$0A@@std@@@std@@IEAAAEAV?$allocator@U?$_Tree_node@U?$pair@$$CBHV?$set@HU?$less@H@std@@V?$allocator@H@2@@std@@@std@@PEAX@std@@@2@XZ
	?_Getal@?$_Tree@V?$_Tmap_traits@HV?$set@HU?$less@H@std@@V?$allocator@H@2@@std@@U?$less@H@2@V?$allocator@U?$pair@$$CBHV?$set@HU?$less@H@std@@V?$allocator@H@2@@std@@@std@@@2@$0A@@std@@@std@@IEBAAEBV?$allocator@U?$_Tree_node@U?$pair@$$CBHV?$set@HU?$less@H@std@@V?$allocator@H@2@@std@@@std@@PEAX@std@@@2@XZ
	?_Getal@?$_Tree@V?$_Tmap_traits@HV?$vector@HV?$allocator@H@std@@@std@@U?$less@H@2@V?$allocator@U?$pair@$$CBHV?$vector@HV?$allocator@H@std@@@std@@@std@@@2@$0A@@std@@@std@@IEAAAEAV?$allocator@U?$_Tree_node@U?$pair@$$CBHV?$vector@HV?$allocator@H@std@@@std@@@std@@PEAX@std@@@2@XZ
	?_Getal@?$_Tree@V?$_Tmap_traits@HV?$vector@HV?$allocator@H@std@@@std@@U?$less@H@2@V?$allocator@U?$pair@$$CBHV?$vector@HV?$allocator@H@std@@@std@@@std@@@2@$0A@@std@@@std@@IEBAAEBV?$allocator@U?$_Tree_node@U?$pair@$$CBHV?$vector@HV?$allocator@H@std@@@std@@@std@@PEAX@std@@@2@XZ
	?_Getal@?$_Tree@V?$_Tmap_traits@HV?$vector@V?$reference_wrapper@VStripPtR@@@std@@V?$allocator@V?$reference_wrapper@VStripPtR@@@std@@@2@@std@@U?$less@H@2@V?$allocator@U?$pair@$$CBHV?$vector@V?$reference_wrapper@VStripPtR@@@std@@V?$allocator@V?$reference_wrapper@VStripPtR@@@std@@@2@@std@@@std@@@2@$0A@@std@@@std@@IEAAAEAV?$allocator@U?$_Tree_node@U?$pair@$$CBHV?$vector@V?$reference_wrapper@VStripPtR@@@std@@V?$allocator@V?$reference_wrapper@VStripPtR@@@std@@@2@@std@@@std@@PEAX@std@@@2@XZ
	?_Getal@?$_Tree@V?$_Tmap_traits@HV?$vector@V?$reference_wrapper@VStripPtR@@@std@@V?$allocator@V?$reference_wrapper@VStripPtR@@@std@@@2@@std@@U?$less@H@2@V?$allocator@U?$pair@$$CBHV?$vector@V?$reference_wrapper@VStripPtR@@@std@@V?$allocator@V?$reference_wrapper@VStripPtR@@@std@@@2@@std@@@std@@@2@$0A@@std@@@std@@IEBAAEBV?$allocator@U?$_Tree_node@U?$pair@$$CBHV?$vector@V?$reference_wrapper@VStripPtR@@@std@@V?$allocator@V?$reference_wrapper@VStripPtR@@@std@@@2@@std@@@std@@PEAX@std@@@2@XZ
	?_Getal@?$_Tree@V?$_Tmap_traits@HVPStrips@@U?$less@H@std@@V?$allocator@U?$pair@$$CBHVPStrips@@@std@@@3@$0A@@std@@@std@@IEAAAEAV?$allocator@U?$_Tree_node@U?$pair@$$CBHVPStrips@@@std@@PEAX@std@@@2@XZ
	?_Getal@?$_Tree@V?$_Tmap_traits@HVPStrips@@U?$less@H@std@@V?$allocator@U?$pair@$$CBHVPStrips@@@std@@@3@$0A@@std@@@std@@IEBAAEBV?$allocator@U?$_Tree_node@U?$pair@$$CBHVPStrips@@@std@@PEAX@std@@@2@XZ
	?_Getal@?$_Tree@V?$_Tmap_traits@HVStripPt@@U?$less@H@std@@V?$allocator@U?$pair@$$CBHVStripPt@@@std@@@3@$0A@@std@@@std@@IEAAAEAV?$allocator@U?$_Tree_node@U?$pair@$$CBHVStripPt@@@std@@PEAX@std@@@2@XZ
	?_Getal@?$_Tree@V?$_Tmap_traits@HVStripPt@@U?$less@H@std@@V?$allocator@U?$pair@$$CBHVStripPt@@@std@@@3@$0A@@std@@@std@@IEBAAEBV?$allocator@U?$_Tree_node@U?$pair@$$CBHVStripPt@@@std@@PEAX@std@@@2@XZ
	?_Getal@?$_Tree@V?$_Tmap_traits@HW4Rel@@U?$less@H@std@@V?$allocator@U?$pair@$$CBHW4Rel@@@std@@@3@$0A@@std@@@std@@IEAAAEAV?$allocator@U?$_Tree_node@U?$pair@$$CBHW4Rel@@@std@@PEAX@std@@@2@XZ
	?_Getal@?$_Tree@V?$_Tmap_traits@HW4Rel@@U?$less@H@std@@V?$allocator@U?$pair@$$CBHW4Rel@@@std@@@3@$0A@@std@@@std@@IEBAAEBV?$allocator@U?$_Tree_node@U?$pair@$$CBHW4Rel@@@std@@PEAX@std@@@2@XZ
	?_Getal@?$_Tree@V?$_Tmap_traits@VPair@@V?$map@HHU?$less@H@std@@V?$allocator@U?$pair@$$CBHH@std@@@2@@std@@U?$less@VPair@@@3@V?$allocator@U?$pair@$$CBVPair@@V?$map@HHU?$less@H@std@@V?$allocator@U?$pair@$$CBHH@std@@@2@@std@@@std@@@3@$0A@@std@@@std@@IEAAAEAV?$allocator@U?$_Tree_node@U?$pair@$$CBVPair@@V?$map@HHU?$less@H@std@@V?$allocator@U?$pair@$$CBHH@std@@@2@@std@@@std@@PEAX@std@@@2@XZ
	?_Getal@?$_Tree@V?$_Tmap_traits@VPair@@V?$map@HHU?$less@H@std@@V?$allocator@U?$pair@$$CBHH@std@@@2@@std@@U?$less@VPair@@@3@V?$allocator@U?$pair@$$CBVPair@@V?$map@HHU?$less@H@std@@V?$allocator@U?$pair@$$CBHH@std@@@2@@std@@@std@@@3@$0A@@std@@@std@@IEBAAEBV?$allocator@U?$_Tree_node@U?$pair@$$CBVPair@@V?$map@HHU?$less@H@std@@V?$allocator@U?$pair@$$CBHH@std@@@2@@std@@@std@@PEAX@std@@@2@XZ
	?_Getal@?$_Tree@V?$_Tset_traits@HU?$less@H@std@@V?$allocator@H@2@$0A@@std@@@std@@IEAAAEAV?$allocator@U?$_Tree_node@HPEAX@std@@@2@XZ
	?_Getal@?$_Tree@V?$_Tset_traits@HU?$less@H@std@@V?$allocator@H@2@$0A@@std@@@std@@IEBAAEBV?$allocator@U?$_Tree_node@HPEAX@std@@@2@XZ
	?_Getal@?$_Tree@V?$_Tset_traits@VPair@@U?$less@VPair@@@std@@V?$allocator@VPair@@@3@$0A@@std@@@std@@IEAAAEAV?$allocator@U?$_Tree_node@VPair@@PEAX@std@@@2@XZ
	?_Getal@?$_Tree@V?$_Tset_traits@VPair@@U?$less@VPair@@@std@@V?$allocator@VPair@@@3@$0A@@std@@@std@@IEBAAEBV?$allocator@U?$_Tree_node@VPair@@PEAX@std@@@2@XZ
	?_Getal@?$_Tree@V?$_Tset_traits@VStripPtL@@U?$less@VStripPtL@@@std@@V?$allocator@VStripPtL@@@3@$0A@@std@@@std@@IEAAAEAV?$allocator@U?$_Tree_node@VStripPtL@@PEAX@std@@@2@XZ
	?_Getal@?$_Tree@V?$_Tset_traits@VStripPtL@@U?$less@VStripPtL@@@std@@V?$allocator@VStripPtL@@@3@$0A@@std@@@std@@IEBAAEBV?$allocator@U?$_Tree_node@VStripPtL@@PEAX@std@@@2@XZ
	?_Getal@?$basic_string@DU?$char_traits@D@std@@V?$allocator@D@2@@std@@AEAAAEAV?$allocator@D@2@XZ
	?_Getal@?$basic_string@DU?$char_traits@D@std@@V?$allocator@D@2@@std@@AEBAAEBV?$allocator@D@2@XZ
	?_Getal@?$deque@HV?$allocator@H@std@@@std@@AEAAAEAV?$allocator@H@2@XZ
	?_Getal@?$deque@HV?$allocator@H@std@@@std@@AEBAAEBV?$allocator@H@2@XZ
	?_Getal@?$deque@V?$vector@HV?$allocator@H@std@@@std@@V?$allocator@V?$vector@HV?$allocator@H@std@@@std@@@2@@std@@AEAAAEAV?$allocator@V?$vector@HV?$allocator@H@std@@@std@@@2@XZ
	?_Getal@?$deque@V?$vector@HV?$allocator@H@std@@@std@@V?$allocator@V?$vector@HV?$allocator@H@std@@@std@@@2@@std@@AEBAAEBV?$allocator@V?$vector@HV?$allocator@H@std@@@std@@@2@XZ
	?_Getal@?$deque@VPair@@V?$allocator@VPair@@@std@@@std@@AEAAAEAV?$allocator@VPair@@@2@XZ
	?_Getal@?$deque@VStripPtR@@V?$allocator@VStripPtR@@@std@@@std@@AEAAAEAV?$allocator@VStripPtR@@@2@XZ
	?_Getal@?$deque@VStripPtR@@V?$allocator@VStripPtR@@@std@@@std@@AEBAAEBV?$allocator@VStripPtR@@@2@XZ
	?_Getal@?$list@U?$pair@$$CBVPair@@VSubP@@@std@@V?$allocator@U?$pair@$$CBVPair@@VSubP@@@std@@@2@@std@@AEAAAEAV?$allocator@U?$_List_node@U?$pair@$$CBVPair@@VSubP@@@std@@PEAX@std@@@2@XZ
	?_Getal@?$list@VPair@@V?$allocator@VPair@@@std@@@std@@AEAAAEAV?$allocator@U?$_List_node@VPair@@PEAX@std@@@2@XZ
	?_Getal@?$vector@HV?$allocator@H@std@@@std@@AEAAAEAV?$allocator@H@2@XZ
	?_Getal@?$vector@HV?$allocator@H@std@@@std@@AEBAAEBV?$allocator@H@2@XZ
	?_Getal@?$vector@PEBVInterPtType@@V?$allocator@PEBVInterPtType@@@std@@@std@@AEAAAEAV?$allocator@PEBVInterPtType@@@2@XZ
	?_Getal@?$vector@PEBVInterPtType@@V?$allocator@PEBVInterPtType@@@std@@@std@@AEBAAEBV?$allocator@PEBVInterPtType@@@2@XZ
	?_Getal@?$vector@U?$pair@VInterPtType@@V1@@std@@V?$allocator@U?$pair@VInterPtType@@V1@@std@@@2@@std@@AEAAAEAV?$allocator@U?$pair@VInterPtType@@V1@@std@@@2@XZ
	?_Getal@?$vector@U?$pair@VInterPtType@@V1@@std@@V?$allocator@U?$pair@VInterPtType@@V1@@std@@@2@@std@@AEBAAEBV?$allocator@U?$pair@VInterPtType@@V1@@std@@@2@XZ
	?_Getal@?$vector@V?$_List_unchecked_const_iterator@V?$_List_val@U?$_List_simple_types@VPair@@@std@@@std@@U_Iterator_base0@2@@std@@V?$allocator@V?$_List_unchecked_const_iterator@V?$_List_val@U?$_List_simple_types@VPair@@@std@@@std@@U_Iterator_base0@2@@std@@@2@@std@@AEAAAEAV?$allocator@V?$_List_unchecked_const_iterator@V?$_List_val@U?$_List_simple_types@VPair@@@std@@@std@@U_Iterator_base0@2@@std@@@2@XZ
	?_Getal@?$vector@V?$_List_unchecked_iterator@V?$_List_val@U?$_List_simple_types@U?$pair@$$CBVPair@@VSubP@@@std@@@std@@@std@@@std@@V?$allocator@V?$_List_unchecked_iterator@V?$_List_val@U?$_List_simple_types@U?$pair@$$CBVPair@@VSubP@@@std@@@std@@@std@@@std@@@2@@std@@AEAAAEAV?$allocator@V?$_List_unchecked_iterator@V?$_List_val@U?$_List_simple_types@U?$pair@$$CBVPair@@VSubP@@@std@@@std@@@std@@@std@@@2@XZ
	?_Getal@?$vector@V?$deque@VStripPtR@@V?$allocator@VStripPtR@@@std@@@std@@V?$allocator@V?$deque@VStripPtR@@V?$allocator@VStripPtR@@@std@@@std@@@2@@std@@AEAAAEAV?$allocator@V?$deque@VStripPtR@@V?$allocator@VStripPtR@@@std@@@std@@@2@XZ
	?_Getal@?$vector@V?$deque@VStripPtR@@V?$allocator@VStripPtR@@@std@@@std@@V?$allocator@V?$deque@VStripPtR@@V?$allocator@VStripPtR@@@std@@@std@@@2@@std@@AEBAAEBV?$allocator@V?$deque@VStripPtR@@V?$allocator@VStripPtR@@@std@@@std@@@2@XZ
	?_Getal@?$vector@V?$reference_wrapper@VStripPt@@@std@@V?$allocator@V?$reference_wrapper@VStripPt@@@std@@@2@@std@@AEAAAEAV?$allocator@V?$reference_wrapper@VStripPt@@@std@@@2@XZ
	?_Getal@?$vector@V?$reference_wrapper@VStripPt@@@std@@V?$allocator@V?$reference_wrapper@VStripPt@@@std@@@2@@std@@AEBAAEBV?$allocator@V?$reference_wrapper@VStripPt@@@std@@@2@XZ
	?_Getal@?$vector@V?$reference_wrapper@VStripPtR@@@std@@V?$allocator@V?$reference_wrapper@VStripPtR@@@std@@@2@@std@@AEAAAEAV?$allocator@V?$reference_wrapper@VStripPtR@@@std@@@2@XZ
	?_Getal@?$vector@V?$reference_wrapper@VStripPtR@@@std@@V?$allocator@V?$reference_wrapper@VStripPtR@@@std@@@2@@std@@AEBAAEBV?$allocator@V?$reference_wrapper@VStripPtR@@@std@@@2@XZ
	?_Getal@?$vector@V?$shared_ptr@VLine@@@std@@V?$allocator@V?$shared_ptr@VLine@@@std@@@2@@std@@AEAAAEAV?$allocator@V?$shared_ptr@VLine@@@std@@@2@XZ
	?_Getal@?$vector@V?$shared_ptr@VLine@@@std@@V?$allocator@V?$shared_ptr@VLine@@@std@@@2@@std@@AEBAAEBV?$allocator@V?$shared_ptr@VLine@@@std@@@2@XZ
	?_Getal@?$vector@V?$shared_ptr@VObj@@@std@@V?$allocator@V?$shared_ptr@VObj@@@std@@@2@@std@@AEAAAEAV?$allocator@V?$shared_ptr@VObj@@@std@@@2@XZ
	?_Getal@?$vector@V?$shared_ptr@VObj@@@std@@V?$allocator@V?$shared_ptr@VObj@@@std@@@2@@std@@AEBAAEBV?$allocator@V?$shared_ptr@VObj@@@std@@@2@XZ
	?_Getal@?$vector@V?$vector@HV?$allocator@H@std@@@std@@V?$allocator@V?$vector@HV?$allocator@H@std@@@std@@@2@@std@@AEAAAEAV?$allocator@V?$vector@HV?$allocator@H@std@@@std@@@2@XZ
	?_Getal@?$vector@V?$vector@HV?$allocator@H@std@@@std@@V?$allocator@V?$vector@HV?$allocator@H@std@@@std@@@2@@std@@AEBAAEBV?$allocator@V?$vector@HV?$allocator@H@std@@@std@@@2@XZ
	?_Getal@?$vector@V?$vector@VPoint@@V?$allocator@VPoint@@@std@@@std@@V?$allocator@V?$vector@VPoint@@V?$allocator@VPoint@@@std@@@std@@@2@@std@@AEAAAEAV?$allocator@V?$vector@VPoint@@V?$allocator@VPoint@@@std@@@std@@@2@XZ
	?_Getal@?$vector@VInterPtType@@V?$allocator@VInterPtType@@@std@@@std@@AEAAAEAV?$allocator@VInterPtType@@@2@XZ
	?_Getal@?$vector@VInterPtType@@V?$allocator@VInterPtType@@@std@@@std@@AEBAAEBV?$allocator@VInterPtType@@@2@XZ
	?_Getal@?$vector@VMergePt@@V?$allocator@VMergePt@@@std@@@std@@AEAAAEAV?$allocator@VMergePt@@@2@XZ
	?_Getal@?$vector@VMergePt@@V?$allocator@VMergePt@@@std@@@std@@AEBAAEBV?$allocator@VMergePt@@@2@XZ
	?_Getal@?$vector@VNode@@V?$allocator@VNode@@@std@@@std@@AEAAAEAV?$allocator@VNode@@@2@XZ
	?_Getal@?$vector@VNode@@V?$allocator@VNode@@@std@@@std@@AEBAAEBV?$allocator@VNode@@@2@XZ
	?_Getal@?$vector@VPair@@V?$allocator@VPair@@@std@@@std@@AEAAAEAV?$allocator@VPair@@@2@XZ
	?_Getal@?$vector@VPair@@V?$allocator@VPair@@@std@@@std@@AEBAAEBV?$allocator@VPair@@@2@XZ
	?_Getal@?$vector@VPoint@@V?$allocator@VPoint@@@std@@@std@@AEAAAEAV?$allocator@VPoint@@@2@XZ
	?_Getal@?$vector@VPoint@@V?$allocator@VPoint@@@std@@@std@@AEBAAEBV?$allocator@VPoint@@@2@XZ
	?_Getal@?$vector@VPolyAtEdge@@V?$allocator@VPolyAtEdge@@@std@@@std@@AEAAAEAV?$allocator@VPolyAtEdge@@@2@XZ
	?_Getal@?$vector@VPolyAtEdge@@V?$allocator@VPolyAtEdge@@@std@@@std@@AEBAAEBV?$allocator@VPolyAtEdge@@@2@XZ
	?_Getal@?$vector@VStripPtL2@@V?$allocator@VStripPtL2@@@std@@@std@@AEAAAEAV?$allocator@VStripPtL2@@@2@XZ
	?_Getal@?$vector@VStripPtL2@@V?$allocator@VStripPtL2@@@std@@@std@@AEBAAEBV?$allocator@VStripPtL2@@@2@XZ
	?_Getal@?$vector@VStripPtL3@@V?$allocator@VStripPtL3@@@std@@@std@@AEAAAEAV?$allocator@VStripPtL3@@@2@XZ
	?_Getal@?$vector@VStripPtL3@@V?$allocator@VStripPtL3@@@std@@@std@@AEBAAEBV?$allocator@VStripPtL3@@@2@XZ
	?_Getal@?$vector@VStripPtL@@V?$allocator@VStripPtL@@@std@@@std@@AEAAAEAV?$allocator@VStripPtL@@@2@XZ
	?_Getal@?$vector@VStripPtL@@V?$allocator@VStripPtL@@@std@@@std@@AEBAAEBV?$allocator@VStripPtL@@@2@XZ
	?_Getal@?$vector@VVert6@@V?$allocator@VVert6@@@std@@@std@@AEAAAEAV?$allocator@VVert6@@@2@XZ
	?_Getblock@?$_Deque_val@U?$_Deque_simple_types@H@std@@@std@@QEBA_K_K@Z
	?_Getblock@?$_Deque_val@U?$_Deque_simple_types@V?$vector@HV?$allocator@H@std@@@std@@@std@@@std@@QEBA_K_K@Z
	?_Getblock@?$_Deque_val@U?$_Deque_simple_types@VPair@@@std@@@std@@QEBA_K_K@Z
	?_Getblock@?$_Deque_val@U?$_Deque_simple_types@VStripPtR@@@std@@@std@@QEBA_K_K@Z
	?_Getblock@?$deque@HV?$allocator@H@std@@@std@@AEBA_K_K@Z
	?_Getblock@?$deque@V?$vector@HV?$allocator@H@std@@@std@@V?$allocator@V?$vector@HV?$allocator@H@std@@@std@@@2@@std@@AEBA_K_K@Z
	?_Getblock@?$deque@VPair@@V?$allocator@VPair@@@std@@@std@@AEBA_K_K@Z
	?_Getblock@?$deque@VStripPtR@@V?$allocator@VStripPtR@@@std@@@std@@AEBA_K_K@Z
	?_Getcomp@?$_Tree@V?$_Tmap_traits@HHU?$less@H@std@@V?$allocator@U?$pair@$$CBHH@std@@@2@$0A@@std@@@std@@IEBAAEBU?$less@H@2@XZ
	?_Getcomp@?$_Tree@V?$_Tmap_traits@HV?$set@HU?$less@H@std@@V?$allocator@H@2@@std@@U?$less@H@2@V?$allocator@U?$pair@$$CBHV?$set@HU?$less@H@std@@V?$allocator@H@2@@std@@@std@@@2@$0A@@std@@@std@@IEBAAEBU?$less@H@2@XZ
	?_Getcomp@?$_Tree@V?$_Tmap_traits@HV?$vector@HV?$allocator@H@std@@@std@@U?$less@H@2@V?$allocator@U?$pair@$$CBHV?$vector@HV?$allocator@H@std@@@std@@@std@@@2@$0A@@std@@@std@@IEBAAEBU?$less@H@2@XZ
	?_Getcomp@?$_Tree@V?$_Tmap_traits@HV?$vector@V?$reference_wrapper@VStripPtR@@@std@@V?$allocator@V?$reference_wrapper@VStripPtR@@@std@@@2@@std@@U?$less@H@2@V?$allocator@U?$pair@$$CBHV?$vector@V?$reference_wrapper@VStripPtR@@@std@@V?$allocator@V?$reference_wrapper@VStripPtR@@@std@@@2@@std@@@std@@@2@$0A@@std@@@std@@IEBAAEBU?$less@H@2@XZ
	?_Getcomp@?$_Tree@V?$_Tmap_traits@HVPStrips@@U?$less@H@std@@V?$allocator@U?$pair@$$CBHVPStrips@@@std@@@3@$0A@@std@@@std@@IEBAAEBU?$less@H@2@XZ
	?_Getcomp@?$_Tree@V?$_Tmap_traits@HVStripPt@@U?$less@H@std@@V?$allocator@U?$pair@$$CBHVStripPt@@@std@@@3@$0A@@std@@@std@@IEBAAEBU?$less@H@2@XZ
	?_Getcomp@?$_Tree@V?$_Tmap_traits@HW4Rel@@U?$less@H@std@@V?$allocator@U?$pair@$$CBHW4Rel@@@std@@@3@$0A@@std@@@std@@IEBAAEBU?$less@H@2@XZ
	?_Getcomp@?$_Tree@V?$_Tmap_traits@VPair@@V?$map@HHU?$less@H@std@@V?$allocator@U?$pair@$$CBHH@std@@@2@@std@@U?$less@VPair@@@3@V?$allocator@U?$pair@$$CBVPair@@V?$map@HHU?$less@H@std@@V?$allocator@U?$pair@$$CBHH@std@@@2@@std@@@std@@@3@$0A@@std@@@std@@IEBAAEBU?$less@VPair@@@2@XZ
	?_Getcomp@?$_Tree@V?$_Tset_traits@HU?$less@H@std@@V?$allocator@H@2@$0A@@std@@@std@@IEBAAEBU?$less@H@2@XZ
	?_Getcomp@?$_Tree@V?$_Tset_traits@VPair@@U?$less@VPair@@@std@@V?$allocator@VPair@@@3@$0A@@std@@@std@@IEBAAEBU?$less@VPair@@@2@XZ
	?_Getcomp@?$_Tree@V?$_Tset_traits@VStripPtL@@U?$less@VStripPtL@@@std@@V?$allocator@VStripPtL@@@3@$0A@@std@@@std@@IEBAAEBU?$less@VStripPtL@@@2@XZ
	?_Getcont@_Iterator_base12@std@@QEBAPEBU_Container_base12@2@XZ
	?_Getfacet@locale@std@@QEBAPEBVfacet@12@_K@Z
	?_Getptr@?$_Ref_count_obj@VBB@@@std@@QEAAPEAVBB@@XZ
	?_Growmap@?$deque@HV?$allocator@H@std@@@std@@AEAAX_K@Z
	?_Growmap@?$deque@V?$vector@HV?$allocator@H@std@@@std@@V?$allocator@V?$vector@HV?$allocator@H@std@@@std@@@2@@std@@AEAAX_K@Z
	?_Growmap@?$deque@VStripPtR@@V?$allocator@VStripPtR@@@std@@@std@@AEAAX_K@Z
	?_Incref@_Ref_count_base@std@@QEAAXXZ
	?_Init@?$basic_filebuf@DU?$char_traits@D@std@@@std@@IEAAXPEAU_iobuf@@W4_Initfl@12@@Z
	?_Initcvt@?$basic_filebuf@DU?$char_traits@D@std@@@std@@IEAAXAEBV?$codecvt@DDU_Mbstatet@@@2@@Z
	?_Insert_node@?$_Tree_val@U?$_Tree_simple_types@H@std@@@std@@QEAAPEAU?$_Tree_node@HPEAX@2@U?$_Tree_id@PEAU?$_Tree_node@HPEAX@std@@@2@QEAU32@@Z
	?_Insert_node@?$_Tree_val@U?$_Tree_simple_types@U?$pair@$$CBHH@std@@@std@@@std@@QEAAPEAU?$_Tree_node@U?$pair@$$CBHH@std@@PEAX@2@U?$_Tree_id@PEAU?$_Tree_node@U?$pair@$$CBHH@std@@PEAX@std@@@2@QEAU32@@Z
	?_Insert_node@?$_Tree_val@U?$_Tree_simple_types@U?$pair@$$CBHV?$set@HU?$less@H@std@@V?$allocator@H@2@@std@@@std@@@std@@@std@@QEAAPEAU?$_Tree_node@U?$pair@$$CBHV?$set@HU?$less@H@std@@V?$allocator@H@2@@std@@@std@@PEAX@2@U?$_Tree_id@PEAU?$_Tree_node@U?$pair@$$CBHV?$set@HU?$less@H@std@@V?$allocator@H@2@@std@@@std@@PEAX@std@@@2@QEAU32@@Z
	?_Insert_node@?$_Tree_val@U?$_Tree_simple_types@U?$pair@$$CBHV?$vector@HV?$allocator@H@std@@@std@@@std@@@std@@@std@@QEAAPEAU?$_Tree_node@U?$pair@$$CBHV?$vector@HV?$allocator@H@std@@@std@@@std@@PEAX@2@U?$_Tree_id@PEAU?$_Tree_node@U?$pair@$$CBHV?$vector@HV?$allocator@H@std@@@std@@@std@@PEAX@std@@@2@QEAU32@@Z
	?_Insert_node@?$_Tree_val@U?$_Tree_simple_types@U?$pair@$$CBHV?$vector@V?$reference_wrapper@VStripPtR@@@std@@V?$allocator@V?$reference_wrapper@VStripPtR@@@std@@@2@@std@@@std@@@std@@@std@@QEAAPEAU?$_Tree_node@U?$pair@$$CBHV?$vector@V?$reference_wrapper@VStripPtR@@@std@@V?$allocator@V?$reference_wrapper@VStripPtR@@@std@@@2@@std@@@std@@PEAX@2@U?$_Tree_id@PEAU?$_Tree_node@U?$pair@$$CBHV?$vector@V?$reference_wrapper@VStripPtR@@@std@@V?$allocator@V?$reference_wrapper@VStripPtR@@@std@@@2@@std@@@std@@PEAX@std@@@2@QEAU32@@Z
	?_Insert_node@?$_Tree_val@U?$_Tree_simple_types@U?$pair@$$CBHVPStrips@@@std@@@std@@@std@@QEAAPEAU?$_Tree_node@U?$pair@$$CBHVPStrips@@@std@@PEAX@2@U?$_Tree_id@PEAU?$_Tree_node@U?$pair@$$CBHVPStrips@@@std@@PEAX@std@@@2@QEAU32@@Z
	?_Insert_node@?$_Tree_val@U?$_Tree_simple_types@U?$pair@$$CBHVStripPt@@@std@@@std@@@std@@QEAAPEAU?$_Tree_node@U?$pair@$$CBHVStripPt@@@std@@PEAX@2@U?$_Tree_id@PEAU?$_Tree_node@U?$pair@$$CBHVStripPt@@@std@@PEAX@std@@@2@QEAU32@@Z
	?_Insert_node@?$_Tree_val@U?$_Tree_simple_types@U?$pair@$$CBHW4Rel@@@std@@@std@@@std@@QEAAPEAU?$_Tree_node@U?$pair@$$CBHW4Rel@@@std@@PEAX@2@U?$_Tree_id@PEAU?$_Tree_node@U?$pair@$$CBHW4Rel@@@std@@PEAX@std@@@2@QEAU32@@Z
	?_Insert_node@?$_Tree_val@U?$_Tree_simple_types@U?$pair@$$CBVPair@@V?$map@HHU?$less@H@std@@V?$allocator@U?$pair@$$CBHH@std@@@2@@std@@@std@@@std@@@std@@QEAAPEAU?$_Tree_node@U?$pair@$$CBVPair@@V?$map@HHU?$less@H@std@@V?$allocator@U?$pair@$$CBHH@std@@@2@@std@@@std@@PEAX@2@U?$_Tree_id@PEAU?$_Tree_node@U?$pair@$$CBVPair@@V?$map@HHU?$less@H@std@@V?$allocator@U?$pair@$$CBHH@std@@@2@@std@@@std@@PEAX@std@@@2@QEAU32@@Z
	?_Insert_node@?$_Tree_val@U?$_Tree_simple_types@V?$reference_wrapper@VStripPt@@@std@@@std@@@std@@QEAAPEAU?$_Tree_node@V?$reference_wrapper@VStripPt@@@std@@PEAX@2@U?$_Tree_id@PEAU?$_Tree_node@V?$reference_wrapper@VStripPt@@@std@@PEAX@std@@@2@QEAU32@@Z
	?_Insert_node@?$_Tree_val@U?$_Tree_simple_types@VPair@@@std@@@std@@QEAAPEAU?$_Tree_node@VPair@@PEAX@2@U?$_Tree_id@PEAU?$_Tree_node@VPair@@PEAX@std@@@2@QEAU32@@Z
	?_Insert_node@?$_Tree_val@U?$_Tree_simple_types@VStripPtL3@@@std@@@std@@QEAAPEAU?$_Tree_node@VStripPtL3@@PEAX@2@U?$_Tree_id@PEAU?$_Tree_node@VStripPtL3@@PEAX@std@@@2@QEAU32@@Z
	?_Insert_node@?$_Tree_val@U?$_Tree_simple_types@VStripPtL@@@std@@@std@@QEAAPEAU?$_Tree_node@VStripPtL@@PEAX@2@U?$_Tree_id@PEAU?$_Tree_node@VStripPtL@@PEAX@std@@@2@QEAU32@@Z
	?_Kfn@?$_Tset_traits@HU?$less@H@std@@V?$allocator@H@2@$0A@@std@@SAAEBHAEBH@Z
	?_Kfn@?$_Tset_traits@VPair@@U?$less@VPair@@@std@@V?$allocator@VPair@@@3@$0A@@std@@SAAEBVPair@@AEBV3@@Z
	?_Kfn@?$_Tset_traits@VStripPtL@@U?$less@VStripPtL@@@std@@V?$allocator@VStripPtL@@@3@$0A@@std@@SAAEBVStripPtL@@AEBV3@@Z
	?_Large_string_engaged@?$_String_val@U?$_Simple_types@D@std@@@std@@QEBA_NXZ
	?_Less@?$tuple@$$V@std@@QEBA_NAEBV12@@Z
	?_Lock@?$basic_filebuf@DU?$char_traits@D@std@@@std@@UEAAXXZ
	?_Lrotate@?$_Tree_val@U?$_Tree_simple_types@H@std@@@std@@QEAAXPEAU?$_Tree_node@HPEAX@2@@Z
	?_Lrotate@?$_Tree_val@U?$_Tree_simple_types@U?$pair@$$CBHH@std@@@std@@@std@@QEAAXPEAU?$_Tree_node@U?$pair@$$CBHH@std@@PEAX@2@@Z
	?_Lrotate@?$_Tree_val@U?$_Tree_simple_types@U?$pair@$$CBHV?$set@HU?$less@H@std@@V?$allocator@H@2@@std@@@std@@@std@@@std@@QEAAXPEAU?$_Tree_node@U?$pair@$$CBHV?$set@HU?$less@H@std@@V?$allocator@H@2@@std@@@std@@PEAX@2@@Z
	?_Lrotate@?$_Tree_val@U?$_Tree_simple_types@U?$pair@$$CBHV?$vector@HV?$allocator@H@std@@@std@@@std@@@std@@@std@@QEAAXPEAU?$_Tree_node@U?$pair@$$CBHV?$vector@HV?$allocator@H@std@@@std@@@std@@PEAX@2@@Z
	?_Lrotate@?$_Tree_val@U?$_Tree_simple_types@U?$pair@$$CBHV?$vector@V?$reference_wrapper@VStripPtR@@@std@@V?$allocator@V?$reference_wrapper@VStripPtR@@@std@@@2@@std@@@std@@@std@@@std@@QEAAXPEAU?$_Tree_node@U?$pair@$$CBHV?$vector@V?$reference_wrapper@VStripPtR@@@std@@V?$allocator@V?$reference_wrapper@VStripPtR@@@std@@@2@@std@@@std@@PEAX@2@@Z
	?_Lrotate@?$_Tree_val@U?$_Tree_simple_types@U?$pair@$$CBHVPStrips@@@std@@@std@@@std@@QEAAXPEAU?$_Tree_node@U?$pair@$$CBHVPStrips@@@std@@PEAX@2@@Z
	?_Lrotate@?$_Tree_val@U?$_Tree_simple_types@U?$pair@$$CBHVStripPt@@@std@@@std@@@std@@QEAAXPEAU?$_Tree_node@U?$pair@$$CBHVStripPt@@@std@@PEAX@2@@Z
	?_Lrotate@?$_Tree_val@U?$_Tree_simple_types@U?$pair@$$CBHW4Rel@@@std@@@std@@@std@@QEAAXPEAU?$_Tree_node@U?$pair@$$CBHW4Rel@@@std@@PEAX@2@@Z
	?_Lrotate@?$_Tree_val@U?$_Tree_simple_types@U?$pair@$$CBVPair@@V?$map@HHU?$less@H@std@@V?$allocator@U?$pair@$$CBHH@std@@@2@@std@@@std@@@std@@@std@@QEAAXPEAU?$_Tree_node@U?$pair@$$CBVPair@@V?$map@HHU?$less@H@std@@V?$allocator@U?$pair@$$CBHH@std@@@2@@std@@@std@@PEAX@2@@Z
	?_Lrotate@?$_Tree_val@U?$_Tree_simple_types@V?$reference_wrapper@VStripPt@@@std@@@std@@@std@@QEAAXPEAU?$_Tree_node@V?$reference_wrapper@VStripPt@@@std@@PEAX@2@@Z
	?_Lrotate@?$_Tree_val@U?$_Tree_simple_types@VPair@@@std@@@std@@QEAAXPEAU?$_Tree_node@VPair@@PEAX@2@@Z
	?_Lrotate@?$_Tree_val@U?$_Tree_simple_types@VStripPtL3@@@std@@@std@@QEAAXPEAU?$_Tree_node@VStripPtL3@@PEAX@2@@Z
	?_Lrotate@?$_Tree_val@U?$_Tree_simple_types@VStripPtL@@@std@@@std@@QEAAXPEAU?$_Tree_node@VStripPtL@@PEAX@2@@Z
	?_Make_iter@?$deque@HV?$allocator@H@std@@@std@@QEBA?AV?$_Deque_iterator@V?$_Deque_val@U?$_Deque_simple_types@H@std@@@std@@@2@V?$_Deque_const_iterator@V?$_Deque_val@U?$_Deque_simple_types@H@std@@@std@@@2@@Z
	?_Make_iterator@?$vector@VInterPtType@@V?$allocator@VInterPtType@@@std@@@std@@AEAA?AV?$_Vector_iterator@V?$_Vector_val@U?$_Simple_types@VInterPtType@@@std@@@std@@@2@QEAVInterPtType@@@Z
	?_Make_iterator_offset@?$vector@V?$reference_wrapper@VStripPtR@@@std@@V?$allocator@V?$reference_wrapper@VStripPtR@@@std@@@2@@std@@AEAA?AV?$_Vector_iterator@V?$_Vector_val@U?$_Simple_types@V?$reference_wrapper@VStripPtR@@@std@@@std@@@std@@@2@_K@Z
	?_Maklocwcs@std@@YAPEA_WPEB_W@Z
	?_Map@?$deque@HV?$allocator@H@std@@@std@@AEAAAEAPEAPEAHXZ
	?_Map@?$deque@V?$vector@HV?$allocator@H@std@@@std@@V?$allocator@V?$vector@HV?$allocator@H@std@@@std@@@2@@std@@AEAAAEAPEAPEAV?$vector@HV?$allocator@H@std@@@2@XZ
	?_Map@?$deque@VPair@@V?$allocator@VPair@@@std@@@std@@AEAAAEAPEAPEAVPair@@XZ
	?_Map@?$deque@VStripPtR@@V?$allocator@VStripPtR@@@std@@@std@@AEAAAEAPEAPEAVStripPtR@@XZ
	?_Mapsize@?$deque@HV?$allocator@H@std@@@std@@AEAAAEA_KXZ
	?_Mapsize@?$deque@V?$vector@HV?$allocator@H@std@@@std@@V?$allocator@V?$vector@HV?$allocator@H@std@@@std@@@2@@std@@AEAAAEA_KXZ
	?_Mapsize@?$deque@VPair@@V?$allocator@VPair@@@std@@@std@@AEAAAEA_KXZ
	?_Mapsize@?$deque@VStripPtR@@V?$allocator@VStripPtR@@@std@@@std@@AEAAAEA_KXZ
	?_Max@?$_Tree_val@U?$_Tree_simple_types@H@std@@@std@@SAPEAU?$_Tree_node@HPEAX@2@PEAU32@@Z
	?_Max@?$_Tree_val@U?$_Tree_simple_types@U?$pair@$$CBHVStripPt@@@std@@@std@@@std@@SAPEAU?$_Tree_node@U?$pair@$$CBHVStripPt@@@std@@PEAX@2@PEAU32@@Z
	?_Max@?$_Tree_val@U?$_Tree_simple_types@V?$reference_wrapper@VStripPt@@@std@@@std@@@std@@SAPEAU?$_Tree_node@V?$reference_wrapper@VStripPt@@@std@@PEAX@2@PEAU32@@Z
	?_Min@?$_Tree_val@U?$_Tree_simple_types@H@std@@@std@@SAPEAU?$_Tree_node@HPEAX@2@PEAU32@@Z
	?_Min@?$_Tree_val@U?$_Tree_simple_types@U?$pair@$$CBHH@std@@@std@@@std@@SAPEAU?$_Tree_node@U?$pair@$$CBHH@std@@PEAX@2@PEAU32@@Z
	?_Min@?$_Tree_val@U?$_Tree_simple_types@U?$pair@$$CBHV?$set@HU?$less@H@std@@V?$allocator@H@2@@std@@@std@@@std@@@std@@SAPEAU?$_Tree_node@U?$pair@$$CBHV?$set@HU?$less@H@std@@V?$allocator@H@2@@std@@@std@@PEAX@2@PEAU32@@Z
	?_Min@?$_Tree_val@U?$_Tree_simple_types@U?$pair@$$CBHV?$vector@HV?$allocator@H@std@@@std@@@std@@@std@@@std@@SAPEAU?$_Tree_node@U?$pair@$$CBHV?$vector@HV?$allocator@H@std@@@std@@@std@@PEAX@2@PEAU32@@Z
	?_Min@?$_Tree_val@U?$_Tree_simple_types@U?$pair@$$CBHV?$vector@V?$reference_wrapper@VStripPtR@@@std@@V?$allocator@V?$reference_wrapper@VStripPtR@@@std@@@2@@std@@@std@@@std@@@std@@SAPEAU?$_Tree_node@U?$pair@$$CBHV?$vector@V?$reference_wrapper@VStripPtR@@@std@@V?$allocator@V?$reference_wrapper@VStripPtR@@@std@@@2@@std@@@std@@PEAX@2@PEAU32@@Z
	?_Min@?$_Tree_val@U?$_Tree_simple_types@U?$pair@$$CBHVPStrips@@@std@@@std@@@std@@SAPEAU?$_Tree_node@U?$pair@$$CBHVPStrips@@@std@@PEAX@2@PEAU32@@Z
	?_Min@?$_Tree_val@U?$_Tree_simple_types@U?$pair@$$CBHVStripPt@@@std@@@std@@@std@@SAPEAU?$_Tree_node@U?$pair@$$CBHVStripPt@@@std@@PEAX@2@PEAU32@@Z
	?_Min@?$_Tree_val@U?$_Tree_simple_types@U?$pair@$$CBHW4Rel@@@std@@@std@@@std@@SAPEAU?$_Tree_node@U?$pair@$$CBHW4Rel@@@std@@PEAX@2@PEAU32@@Z
	?_Min@?$_Tree_val@U?$_Tree_simple_types@U?$pair@$$CBVPair@@V?$map@HHU?$less@H@std@@V?$allocator@U?$pair@$$CBHH@std@@@2@@std@@@std@@@std@@@std@@SAPEAU?$_Tree_node@U?$pair@$$CBVPair@@V?$map@HHU?$less@H@std@@V?$allocator@U?$pair@$$CBHH@std@@@2@@std@@@std@@PEAX@2@PEAU32@@Z
	?_Min@?$_Tree_val@U?$_Tree_simple_types@V?$reference_wrapper@VStripPt@@@std@@@std@@@std@@SAPEAU?$_Tree_node@V?$reference_wrapper@VStripPt@@@std@@PEAX@2@PEAU32@@Z
	?_Min@?$_Tree_val@U?$_Tree_simple_types@VStripPtL3@@@std@@@std@@SAPEAU?$_Tree_node@VStripPtL3@@PEAX@2@PEAU32@@Z
	?_Min@?$_Tree_val@U?$_Tree_simple_types@VStripPtL@@@std@@@std@@SAPEAU?$_Tree_node@VStripPtL@@PEAX@2@PEAU32@@Z
	?_Move_assign@?$deque@VStripPtR@@V?$allocator@VStripPtR@@@std@@@std@@AEAAXAEAV12@U_Equal_allocators@2@@Z
	?_Move_assign@?$vector@HV?$allocator@H@std@@@std@@AEAAXAEAV12@U_Equal_allocators@2@@Z
	?_Move_construct@?$vector@HV?$allocator@H@std@@@std@@AEAAXAEAV12@U?$integral_constant@_N$00@2@@Z
	?_Move_construct@?$vector@U?$pair@VInterPtType@@V1@@std@@V?$allocator@U?$pair@VInterPtType@@V1@@std@@@2@@std@@AEAAXAEAV12@U?$integral_constant@_N$00@2@@Z
	?_Move_construct@?$vector@V?$shared_ptr@VObj@@@std@@V?$allocator@V?$shared_ptr@VObj@@@std@@@2@@std@@AEAAXAEAV12@U?$integral_constant@_N$00@2@@Z
	?_Move_construct@?$vector@VInterPtType@@V?$allocator@VInterPtType@@@std@@@std@@AEAAXAEAV12@U?$integral_constant@_N$00@2@@Z
	?_Move_construct@?$vector@VPair@@V?$allocator@VPair@@@std@@@std@@AEAAXAEAV12@U?$integral_constant@_N$00@2@@Z
	?_Myoff@?$deque@HV?$allocator@H@std@@@std@@AEAAAEA_KXZ
	?_Myoff@?$deque@HV?$allocator@H@std@@@std@@AEBAAEB_KXZ
	?_Myoff@?$deque@V?$vector@HV?$allocator@H@std@@@std@@V?$allocator@V?$vector@HV?$allocator@H@std@@@std@@@2@@std@@AEAAAEA_KXZ
	?_Myoff@?$deque@V?$vector@HV?$allocator@H@std@@@std@@V?$allocator@V?$vector@HV?$allocator@H@std@@@std@@@2@@std@@AEBAAEB_KXZ
	?_Myoff@?$deque@VPair@@V?$allocator@VPair@@@std@@@std@@AEAAAEA_KXZ
	?_Myoff@?$deque@VPair@@V?$allocator@VPair@@@std@@@std@@AEBAAEB_KXZ
	?_Myoff@?$deque@VStripPtR@@V?$allocator@VStripPtR@@@std@@@std@@AEAAAEA_KXZ
	?_Myoff@?$deque@VStripPtR@@V?$allocator@VStripPtR@@@std@@@std@@AEBAAEB_KXZ
	?_Myptr@?$_String_val@U?$_Simple_types@D@std@@@std@@QEAAPEADXZ
	?_Myptr@?$_String_val@U?$_Simple_types@D@std@@@std@@QEBAPEBDXZ
	?_Mysize@?$deque@HV?$allocator@H@std@@@std@@AEAAAEA_KXZ
	?_Mysize@?$deque@HV?$allocator@H@std@@@std@@AEBAAEB_KXZ
	?_Mysize@?$deque@V?$vector@HV?$allocator@H@std@@@std@@V?$allocator@V?$vector@HV?$allocator@H@std@@@std@@@2@@std@@AEAAAEA_KXZ
	?_Mysize@?$deque@V?$vector@HV?$allocator@H@std@@@std@@V?$allocator@V?$vector@HV?$allocator@H@std@@@std@@@2@@std@@AEBAAEB_KXZ
	?_Mysize@?$deque@VPair@@V?$allocator@VPair@@@std@@@std@@AEAAAEA_KXZ
	?_Mysize@?$deque@VPair@@V?$allocator@VPair@@@std@@@std@@AEBAAEB_KXZ
	?_Mysize@?$deque@VStripPtR@@V?$allocator@VStripPtR@@@std@@@std@@AEAAAEA_KXZ
	?_Mysize@?$deque@VStripPtR@@V?$allocator@VStripPtR@@@std@@@std@@AEBAAEB_KXZ
	?_Orphan_all@?$deque@HV?$allocator@H@std@@@std@@AEAAXXZ
	?_Orphan_all@?$deque@V?$vector@HV?$allocator@H@std@@@std@@V?$allocator@V?$vector@HV?$allocator@H@std@@@std@@@2@@std@@AEAAXXZ
	?_Orphan_all@?$deque@VPair@@V?$allocator@VPair@@@std@@@std@@AEAAXXZ
	?_Orphan_all@?$deque@VStripPtR@@V?$allocator@VStripPtR@@@std@@@std@@AEAAXXZ
	?_Orphan_all@_Container_base12@std@@QEAAXXZ
	?_Orphan_me@_Iterator_base12@std@@QEAAXXZ
	?_Orphan_off@?$deque@HV?$allocator@H@std@@@std@@AEBAX_K@Z
	?_Orphan_off@?$deque@V?$vector@HV?$allocator@H@std@@@std@@V?$allocator@V?$vector@HV?$allocator@H@std@@@std@@@2@@std@@AEBAX_K@Z
	?_Orphan_off@?$deque@VPair@@V?$allocator@VPair@@@std@@@std@@AEBAX_K@Z
	?_Orphan_off@?$deque@VStripPtR@@V?$allocator@VStripPtR@@@std@@@std@@AEBAX_K@Z
	?_Orphan_ptr@?$_Tree_val@U?$_Tree_simple_types@H@std@@@std@@QEAAXQEAU?$_Tree_node@HPEAX@2@@Z
	?_Orphan_ptr@?$_Tree_val@U?$_Tree_simple_types@U?$pair@$$CBHVPStrips@@@std@@@std@@@std@@QEAAXQEAU?$_Tree_node@U?$pair@$$CBHVPStrips@@@std@@PEAX@2@@Z
	?_Orphan_ptr@?$_Tree_val@U?$_Tree_simple_types@U?$pair@$$CBHVStripPt@@@std@@@std@@@std@@QEAAXQEAU?$_Tree_node@U?$pair@$$CBHVStripPt@@@std@@PEAX@2@@Z
	?_Orphan_ptr@?$_Tree_val@U?$_Tree_simple_types@U?$pair@$$CBHW4Rel@@@std@@@std@@@std@@QEAAXQEAU?$_Tree_node@U?$pair@$$CBHW4Rel@@@std@@PEAX@2@@Z
	?_Orphan_range@?$vector@HV?$allocator@H@std@@@std@@AEBAXPEAH0@Z
	?_Orphan_range@?$vector@PEBVInterPtType@@V?$allocator@PEBVInterPtType@@@std@@@std@@AEBAXPEAPEBVInterPtType@@0@Z
	?_Orphan_range@?$vector@U?$pair@VInterPtType@@V1@@std@@V?$allocator@U?$pair@VInterPtType@@V1@@std@@@2@@std@@AEBAXPEAU?$pair@VInterPtType@@V1@@2@0@Z
	?_Orphan_range@?$vector@V?$deque@VStripPtR@@V?$allocator@VStripPtR@@@std@@@std@@V?$allocator@V?$deque@VStripPtR@@V?$allocator@VStripPtR@@@std@@@std@@@2@@std@@AEBAXPEAV?$deque@VStripPtR@@V?$allocator@VStripPtR@@@std@@@2@0@Z
	?_Orphan_range@?$vector@V?$reference_wrapper@VStripPt@@@std@@V?$allocator@V?$reference_wrapper@VStripPt@@@std@@@2@@std@@AEBAXPEAV?$reference_wrapper@VStripPt@@@2@0@Z
	?_Orphan_range@?$vector@V?$reference_wrapper@VStripPtR@@@std@@V?$allocator@V?$reference_wrapper@VStripPtR@@@std@@@2@@std@@AEBAXPEAV?$reference_wrapper@VStripPtR@@@2@0@Z
	?_Orphan_range@?$vector@V?$shared_ptr@VLine@@@std@@V?$allocator@V?$shared_ptr@VLine@@@std@@@2@@std@@AEBAXPEAV?$shared_ptr@VLine@@@2@0@Z
	?_Orphan_range@?$vector@V?$shared_ptr@VObj@@@std@@V?$allocator@V?$shared_ptr@VObj@@@std@@@2@@std@@AEBAXPEAV?$shared_ptr@VObj@@@2@0@Z
	?_Orphan_range@?$vector@V?$vector@HV?$allocator@H@std@@@std@@V?$allocator@V?$vector@HV?$allocator@H@std@@@std@@@2@@std@@AEBAXPEAV?$vector@HV?$allocator@H@std@@@2@0@Z
	?_Orphan_range@?$vector@VInterPtType@@V?$allocator@VInterPtType@@@std@@@std@@AEBAXPEAVInterPtType@@0@Z
	?_Orphan_range@?$vector@VMergePt@@V?$allocator@VMergePt@@@std@@@std@@AEBAXPEAVMergePt@@0@Z
	?_Orphan_range@?$vector@VNode@@V?$allocator@VNode@@@std@@@std@@AEBAXPEAVNode@@0@Z
	?_Orphan_range@?$vector@VPair@@V?$allocator@VPair@@@std@@@std@@AEBAXPEAVPair@@0@Z
	?_Orphan_range@?$vector@VPoint@@V?$allocator@VPoint@@@std@@@std@@AEBAXPEAVPoint@@0@Z
	?_Orphan_range@?$vector@VPolyAtEdge@@V?$allocator@VPolyAtEdge@@@std@@@std@@AEBAXPEAVPolyAtEdge@@0@Z
	?_Orphan_range@?$vector@VStripPtL2@@V?$allocator@VStripPtL2@@@std@@@std@@AEBAXPEAVStripPtL2@@0@Z
	?_Orphan_range@?$vector@VStripPtL3@@V?$allocator@VStripPtL3@@@std@@@std@@AEBAXPEAVStripPtL3@@0@Z
	?_Orphan_range@?$vector@VStripPtL@@V?$allocator@VStripPtL@@@std@@@std@@AEBAXPEAVStripPtL@@0@Z
	?_Push_back_internal@?$deque@HV?$allocator@H@std@@@std@@AEAAXAEBH@Z
	?_Push_back_internal@?$deque@V?$vector@HV?$allocator@H@std@@@std@@V?$allocator@V?$vector@HV?$allocator@H@std@@@std@@@2@@std@@AEAAXAEBV?$vector@HV?$allocator@H@std@@@2@@Z
	?_Push_back_internal@?$deque@VStripPtR@@V?$allocator@VStripPtR@@@std@@@std@@AEAAX$$QEAVStripPtR@@@Z
	?_Push_back_internal@?$deque@VStripPtR@@V?$allocator@VStripPtR@@@std@@@std@@AEAAXAEBVStripPtR@@@Z
	?_Release@?$_Alloc_construct_ptr@V?$allocator@U?$_Tree_node@HPEAX@std@@@std@@@std@@QEAAPEAU?$_Tree_node@HPEAX@2@XZ
	?_Release@?$_Alloc_construct_ptr@V?$allocator@U?$_Tree_node@U?$pair@$$CBHH@std@@PEAX@std@@@std@@@std@@QEAAPEAU?$_Tree_node@U?$pair@$$CBHH@std@@PEAX@2@XZ
	?_Release@?$_Alloc_construct_ptr@V?$allocator@U?$_Tree_node@U?$pair@$$CBHV?$set@HU?$less@H@std@@V?$allocator@H@2@@std@@@std@@PEAX@std@@@std@@@std@@QEAAPEAU?$_Tree_node@U?$pair@$$CBHV?$set@HU?$less@H@std@@V?$allocator@H@2@@std@@@std@@PEAX@2@XZ
	?_Release@?$_Alloc_construct_ptr@V?$allocator@U?$_Tree_node@U?$pair@$$CBHV?$vector@HV?$allocator@H@std@@@std@@@std@@PEAX@std@@@std@@@std@@QEAAPEAU?$_Tree_node@U?$pair@$$CBHV?$vector@HV?$allocator@H@std@@@std@@@std@@PEAX@2@XZ
	?_Release@?$_Alloc_construct_ptr@V?$allocator@U?$_Tree_node@U?$pair@$$CBHV?$vector@V?$reference_wrapper@VStripPtR@@@std@@V?$allocator@V?$reference_wrapper@VStripPtR@@@std@@@2@@std@@@std@@PEAX@std@@@std@@@std@@QEAAPEAU?$_Tree_node@U?$pair@$$CBHV?$vector@V?$reference_wrapper@VStripPtR@@@std@@V?$allocator@V?$reference_wrapper@VStripPtR@@@std@@@2@@std@@@std@@PEAX@2@XZ
	?_Release@?$_Alloc_construct_ptr@V?$allocator@U?$_Tree_node@U?$pair@$$CBHVPStrips@@@std@@PEAX@std@@@std@@@std@@QEAAPEAU?$_Tree_node@U?$pair@$$CBHVPStrips@@@std@@PEAX@2@XZ
	?_Release@?$_Alloc_construct_ptr@V?$allocator@U?$_Tree_node@U?$pair@$$CBHVStripPt@@@std@@PEAX@std@@@std@@@std@@QEAAPEAU?$_Tree_node@U?$pair@$$CBHVStripPt@@@std@@PEAX@2@XZ
	?_Release@?$_Alloc_construct_ptr@V?$allocator@U?$_Tree_node@U?$pair@$$CBHW4Rel@@@std@@PEAX@std@@@std@@@std@@QEAAPEAU?$_Tree_node@U?$pair@$$CBHW4Rel@@@std@@PEAX@2@XZ
	?_Release@?$_Alloc_construct_ptr@V?$allocator@U?$_Tree_node@U?$pair@$$CBVPair@@V?$map@HHU?$less@H@std@@V?$allocator@U?$pair@$$CBHH@std@@@2@@std@@@std@@PEAX@std@@@std@@@std@@QEAAPEAU?$_Tree_node@U?$pair@$$CBVPair@@V?$map@HHU?$less@H@std@@V?$allocator@U?$pair@$$CBHH@std@@@2@@std@@@std@@PEAX@2@XZ
	?_Release@?$_Alloc_construct_ptr@V?$allocator@U?$_Tree_node@V?$reference_wrapper@VStripPt@@@std@@PEAX@std@@@std@@@std@@QEAAPEAU?$_Tree_node@V?$reference_wrapper@VStripPt@@@std@@PEAX@2@XZ
	?_Release@?$_Alloc_construct_ptr@V?$allocator@U?$_Tree_node@VPair@@PEAX@std@@@std@@@std@@QEAAPEAU?$_Tree_node@VPair@@PEAX@2@XZ
	?_Release@?$_Alloc_construct_ptr@V?$allocator@U?$_Tree_node@VStripPtL3@@PEAX@std@@@std@@@std@@QEAAPEAU?$_Tree_node@VStripPtL3@@PEAX@2@XZ
	?_Release@?$_Alloc_construct_ptr@V?$allocator@U?$_Tree_node@VStripPtL@@PEAX@std@@@std@@@std@@QEAAPEAU?$_Tree_node@VStripPtL@@PEAX@2@XZ
	?_Release@?$_Tree_head_scoped_ptr@V?$allocator@U?$_Tree_node@U?$pair@$$CBHVStripPt@@@std@@PEAX@std@@@std@@V?$_Tree_val@U?$_Tree_simple_types@U?$pair@$$CBHVStripPt@@@std@@@std@@@2@@std@@QEAAXXZ
	?_Release@?$_Uninitialized_backout_al@V?$allocator@U?$pair@VInterPtType@@V1@@std@@@std@@@std@@QEAAPEAU?$pair@VInterPtType@@V1@@2@XZ
	?_Release@?$_Uninitialized_backout_al@V?$allocator@V?$deque@VStripPtR@@V?$allocator@VStripPtR@@@std@@@std@@@std@@@std@@QEAAPEAV?$deque@VStripPtR@@V?$allocator@VStripPtR@@@std@@@2@XZ
	?_Release@?$_Uninitialized_backout_al@V?$allocator@V?$reference_wrapper@VStripPt@@@std@@@std@@@std@@QEAAPEAV?$reference_wrapper@VStripPt@@@2@XZ
	?_Release@?$_Uninitialized_backout_al@V?$allocator@V?$reference_wrapper@VStripPtR@@@std@@@std@@@std@@QEAAPEAV?$reference_wrapper@VStripPtR@@@2@XZ
	?_Release@?$_Uninitialized_backout_al@V?$allocator@V?$shared_ptr@VLine@@@std@@@std@@@std@@QEAAPEAV?$shared_ptr@VLine@@@2@XZ
	?_Release@?$_Uninitialized_backout_al@V?$allocator@V?$shared_ptr@VObj@@@std@@@std@@@std@@QEAAPEAV?$shared_ptr@VObj@@@2@XZ
	?_Release@?$_Uninitialized_backout_al@V?$allocator@V?$vector@HV?$allocator@H@std@@@std@@@std@@@std@@QEAAPEAV?$vector@HV?$allocator@H@std@@@2@XZ
	?_Release@?$_Uninitialized_backout_al@V?$allocator@VInterPtType@@@std@@@std@@QEAAPEAVInterPtType@@XZ
	?_Release@?$_Uninitialized_backout_al@V?$allocator@VMergePt@@@std@@@std@@QEAAPEAVMergePt@@XZ
	?_Release@?$_Uninitialized_backout_al@V?$allocator@VNode@@@std@@@std@@QEAAPEAVNode@@XZ
	?_Release@?$_Uninitialized_backout_al@V?$allocator@VPair@@@std@@@std@@QEAAPEAVPair@@XZ
	?_Release@?$_Uninitialized_backout_al@V?$allocator@VPoint@@@std@@@std@@QEAAPEAVPoint@@XZ
	?_Release@?$_Uninitialized_backout_al@V?$allocator@VPolyAtEdge@@@std@@@std@@QEAAPEAVPolyAtEdge@@XZ
	?_Release@?$_Uninitialized_backout_al@V?$allocator@VStripPtL2@@@std@@@std@@QEAAPEAVStripPtL2@@XZ
	?_Release@?$_Uninitialized_backout_al@V?$allocator@VStripPtL3@@@std@@@std@@QEAAPEAVStripPtL3@@XZ
	?_Release@?$_Uninitialized_backout_al@V?$allocator@VStripPtL@@@std@@@std@@QEAAPEAVStripPtL@@XZ
	?_Release@_Basic_container_proxy_ptr12@std@@QEAAXXZ
	?_Reset_back@?$basic_filebuf@DU?$char_traits@D@std@@@std@@AEAAXXZ
	?_Rrotate@?$_Tree_val@U?$_Tree_simple_types@H@std@@@std@@QEAAXPEAU?$_Tree_node@HPEAX@2@@Z
	?_Rrotate@?$_Tree_val@U?$_Tree_simple_types@U?$pair@$$CBHH@std@@@std@@@std@@QEAAXPEAU?$_Tree_node@U?$pair@$$CBHH@std@@PEAX@2@@Z
	?_Rrotate@?$_Tree_val@U?$_Tree_simple_types@U?$pair@$$CBHV?$set@HU?$less@H@std@@V?$allocator@H@2@@std@@@std@@@std@@@std@@QEAAXPEAU?$_Tree_node@U?$pair@$$CBHV?$set@HU?$less@H@std@@V?$allocator@H@2@@std@@@std@@PEAX@2@@Z
	?_Rrotate@?$_Tree_val@U?$_Tree_simple_types@U?$pair@$$CBHV?$vector@HV?$allocator@H@std@@@std@@@std@@@std@@@std@@QEAAXPEAU?$_Tree_node@U?$pair@$$CBHV?$vector@HV?$allocator@H@std@@@std@@@std@@PEAX@2@@Z
	?_Rrotate@?$_Tree_val@U?$_Tree_simple_types@U?$pair@$$CBHV?$vector@V?$reference_wrapper@VStripPtR@@@std@@V?$allocator@V?$reference_wrapper@VStripPtR@@@std@@@2@@std@@@std@@@std@@@std@@QEAAXPEAU?$_Tree_node@U?$pair@$$CBHV?$vector@V?$reference_wrapper@VStripPtR@@@std@@V?$allocator@V?$reference_wrapper@VStripPtR@@@std@@@2@@std@@@std@@PEAX@2@@Z
	?_Rrotate@?$_Tree_val@U?$_Tree_simple_types@U?$pair@$$CBHVPStrips@@@std@@@std@@@std@@QEAAXPEAU?$_Tree_node@U?$pair@$$CBHVPStrips@@@std@@PEAX@2@@Z
	?_Rrotate@?$_Tree_val@U?$_Tree_simple_types@U?$pair@$$CBHVStripPt@@@std@@@std@@@std@@QEAAXPEAU?$_Tree_node@U?$pair@$$CBHVStripPt@@@std@@PEAX@2@@Z
	?_Rrotate@?$_Tree_val@U?$_Tree_simple_types@U?$pair@$$CBHW4Rel@@@std@@@std@@@std@@QEAAXPEAU?$_Tree_node@U?$pair@$$CBHW4Rel@@@std@@PEAX@2@@Z
	?_Rrotate@?$_Tree_val@U?$_Tree_simple_types@U?$pair@$$CBVPair@@V?$map@HHU?$less@H@std@@V?$allocator@U?$pair@$$CBHH@std@@@2@@std@@@std@@@std@@@std@@QEAAXPEAU?$_Tree_node@U?$pair@$$CBVPair@@V?$map@HHU?$less@H@std@@V?$allocator@U?$pair@$$CBHH@std@@@2@@std@@@std@@PEAX@2@@Z
	?_Rrotate@?$_Tree_val@U?$_Tree_simple_types@V?$reference_wrapper@VStripPt@@@std@@@std@@@std@@QEAAXPEAU?$_Tree_node@V?$reference_wrapper@VStripPt@@@std@@PEAX@2@@Z
	?_Rrotate@?$_Tree_val@U?$_Tree_simple_types@VPair@@@std@@@std@@QEAAXPEAU?$_Tree_node@VPair@@PEAX@2@@Z
	?_Rrotate@?$_Tree_val@U?$_Tree_simple_types@VStripPtL3@@@std@@@std@@QEAAXPEAU?$_Tree_node@VStripPtL3@@PEAX@2@@Z
	?_Rrotate@?$_Tree_val@U?$_Tree_simple_types@VStripPtL@@@std@@@std@@QEAAXPEAU?$_Tree_node@VStripPtL@@PEAX@2@@Z
	?_Seek_to@?$_Deque_const_iterator@V?$_Deque_val@U?$_Deque_simple_types@H@std@@@std@@@std@@QEAAXAEBV?$_Deque_unchecked_const_iterator@V?$_Deque_val@U?$_Deque_simple_types@H@std@@@std@@@2@@Z
	?_Seek_to@?$_Deque_const_iterator@V?$_Deque_val@U?$_Deque_simple_types@VStripPtR@@@std@@@std@@@std@@QEAAXAEBV?$_Deque_unchecked_const_iterator@V?$_Deque_val@U?$_Deque_simple_types@VStripPtR@@@std@@@std@@@2@@Z
	?_Seek_to@?$_Vector_const_iterator@V?$_Vector_val@U?$_Simple_types@H@std@@@std@@@std@@QEAAXPEBH@Z
	?_Seek_to@?$_Vector_const_iterator@V?$_Vector_val@U?$_Simple_types@V?$deque@VStripPtR@@V?$allocator@VStripPtR@@@std@@@std@@@std@@@std@@@std@@QEAAXPEBV?$deque@VStripPtR@@V?$allocator@VStripPtR@@@std@@@2@@Z
	?_Seek_to@?$_Vector_const_iterator@V?$_Vector_val@U?$_Simple_types@V?$reference_wrapper@VStripPtR@@@std@@@std@@@std@@@std@@QEAAXPEBV?$reference_wrapper@VStripPtR@@@2@@Z
	?_Seek_to@?$_Vector_const_iterator@V?$_Vector_val@U?$_Simple_types@VInterPtType@@@std@@@std@@@std@@QEAAXPEBVInterPtType@@@Z
	?_Set_back@?$basic_filebuf@DU?$char_traits@D@std@@@std@@AEAAXXZ
	?_Set_ptr_rep@?$_Ptr_base@VBB@@@std@@IEAAXPEAVBB@@PEAV_Ref_count_base@2@@Z
	?_Set_ptr_rep@?$_Ptr_base@VLine@@@std@@IEAAXPEAVLine@@PEAV_Ref_count_base@2@@Z
	?_Setcont@?$_Deque_const_iterator@V?$_Deque_val@U?$_Deque_simple_types@H@std@@@std@@@std@@QEAAXPEBV?$_Deque_val@U?$_Deque_simple_types@H@std@@@2@@Z
	?_Setcont@?$_Deque_const_iterator@V?$_Deque_val@U?$_Deque_simple_types@V?$vector@HV?$allocator@H@std@@@std@@@std@@@std@@@std@@QEAAXPEBV?$_Deque_val@U?$_Deque_simple_types@V?$vector@HV?$allocator@H@std@@@std@@@std@@@2@@Z
	?_Setcont@?$_Deque_const_iterator@V?$_Deque_val@U?$_Deque_simple_types@VStripPtR@@@std@@@std@@@std@@QEAAXPEBV?$_Deque_val@U?$_Deque_simple_types@VStripPtR@@@std@@@2@@Z
	?_Swap_proxy_and_iterators@_Container_base12@std@@QEAAXAEAU12@@Z
	?_Swap_val@?$vector@HV?$allocator@H@std@@@std@@AEAAXAEAV12@@Z
	?_Take_contents@?$deque@VStripPtR@@V?$allocator@VStripPtR@@@std@@@std@@AEAAXAEAV12@@Z
	?_Take_contents@?$vector@HV?$allocator@H@std@@@std@@AEAAXAEAV12@@Z
	?_Take_contents@?$vector@U?$pair@VInterPtType@@V1@@std@@V?$allocator@U?$pair@VInterPtType@@V1@@std@@@2@@std@@AEAAXAEAV12@@Z
	?_Take_contents@?$vector@V?$shared_ptr@VObj@@@std@@V?$allocator@V?$shared_ptr@VObj@@@std@@@2@@std@@AEAAXAEAV12@@Z
	?_Take_contents@?$vector@VInterPtType@@V?$allocator@VInterPtType@@@std@@@std@@AEAAXAEAV12@@Z
	?_Take_contents@?$vector@VPair@@V?$allocator@VPair@@@std@@@std@@AEAAXAEAV12@@Z
	?_Test@vtkPolyDataBooleanFilter@@AEAAXPEAVvtkPolyData@@AEAV?$map@HVPStrips@@U?$less@H@std@@V?$allocator@U?$pair@$$CBHVPStrips@@@std@@@3@@std@@@Z
	?_Throw_tree_length_error@std@@YAXXZ
	?_Tidy@?$deque@HV?$allocator@H@std@@@std@@AEAAXXZ
	?_Tidy@?$deque@V?$vector@HV?$allocator@H@std@@@std@@V?$allocator@V?$vector@HV?$allocator@H@std@@@std@@@2@@std@@AEAAXXZ
	?_Tidy@?$deque@VPair@@V?$allocator@VPair@@@std@@@std@@AEAAXXZ
	?_Tidy@?$deque@VStripPtR@@V?$allocator@VStripPtR@@@std@@@std@@AEAAXXZ
	?_Tidy@?$list@U?$pair@$$CBVPair@@VSubP@@@std@@V?$allocator@U?$pair@$$CBVPair@@VSubP@@@std@@@2@@std@@AEAAXXZ
	?_Tidy@?$list@VPair@@V?$allocator@VPair@@@std@@@std@@AEAAXXZ
	?_Tidy@?$vector@HV?$allocator@H@std@@@std@@AEAAXXZ
	?_Tidy@?$vector@PEBVInterPtType@@V?$allocator@PEBVInterPtType@@@std@@@std@@AEAAXXZ
	?_Tidy@?$vector@U?$pair@VInterPtType@@V1@@std@@V?$allocator@U?$pair@VInterPtType@@V1@@std@@@2@@std@@AEAAXXZ
	?_Tidy@?$vector@V?$_List_unchecked_const_iterator@V?$_List_val@U?$_List_simple_types@VPair@@@std@@@std@@U_Iterator_base0@2@@std@@V?$allocator@V?$_List_unchecked_const_iterator@V?$_List_val@U?$_List_simple_types@VPair@@@std@@@std@@U_Iterator_base0@2@@std@@@2@@std@@AEAAXXZ
	?_Tidy@?$vector@V?$_List_unchecked_iterator@V?$_List_val@U?$_List_simple_types@U?$pair@$$CBVPair@@VSubP@@@std@@@std@@@std@@@std@@V?$allocator@V?$_List_unchecked_iterator@V?$_List_val@U?$_List_simple_types@U?$pair@$$CBVPair@@VSubP@@@std@@@std@@@std@@@std@@@2@@std@@AEAAXXZ
	?_Tidy@?$vector@V?$deque@VStripPtR@@V?$allocator@VStripPtR@@@std@@@std@@V?$allocator@V?$deque@VStripPtR@@V?$allocator@VStripPtR@@@std@@@std@@@2@@std@@AEAAXXZ
	?_Tidy@?$vector@V?$reference_wrapper@VStripPt@@@std@@V?$allocator@V?$reference_wrapper@VStripPt@@@std@@@2@@std@@AEAAXXZ
	?_Tidy@?$vector@V?$reference_wrapper@VStripPtR@@@std@@V?$allocator@V?$reference_wrapper@VStripPtR@@@std@@@2@@std@@AEAAXXZ
	?_Tidy@?$vector@V?$shared_ptr@VLine@@@std@@V?$allocator@V?$shared_ptr@VLine@@@std@@@2@@std@@AEAAXXZ
	?_Tidy@?$vector@V?$shared_ptr@VObj@@@std@@V?$allocator@V?$shared_ptr@VObj@@@std@@@2@@std@@AEAAXXZ
	?_Tidy@?$vector@V?$vector@HV?$allocator@H@std@@@std@@V?$allocator@V?$vector@HV?$allocator@H@std@@@std@@@2@@std@@AEAAXXZ
	?_Tidy@?$vector@V?$vector@VPoint@@V?$allocator@VPoint@@@std@@@std@@V?$allocator@V?$vector@VPoint@@V?$allocator@VPoint@@@std@@@std@@@2@@std@@AEAAXXZ
	?_Tidy@?$vector@VInterPtType@@V?$allocator@VInterPtType@@@std@@@std@@AEAAXXZ
	?_Tidy@?$vector@VMergePt@@V?$allocator@VMergePt@@@std@@@std@@AEAAXXZ
	?_Tidy@?$vector@VNode@@V?$allocator@VNode@@@std@@@std@@AEAAXXZ
	?_Tidy@?$vector@VPair@@V?$allocator@VPair@@@std@@@std@@AEAAXXZ
	?_Tidy@?$vector@VPoint@@V?$allocator@VPoint@@@std@@@std@@AEAAXXZ
	?_Tidy@?$vector@VPolyAtEdge@@V?$allocator@VPolyAtEdge@@@std@@@std@@AEAAXXZ
	?_Tidy@?$vector@VStripPtL2@@V?$allocator@VStripPtL2@@@std@@@std@@AEAAXXZ
	?_Tidy@?$vector@VStripPtL3@@V?$allocator@VStripPtL3@@@std@@@std@@AEAAXXZ
	?_Tidy@?$vector@VStripPtL@@V?$allocator@VStripPtL@@@std@@@std@@AEAAXXZ
	?_Tidy@?$vector@VVert6@@V?$allocator@VVert6@@@std@@@std@@AEAAXXZ
	?_Tidy_deallocate@?$basic_string@DU?$char_traits@D@std@@V?$allocator@D@2@@std@@AEAAXXZ
	?_Tidy_init@?$basic_string@DU?$char_traits@D@std@@V?$allocator@D@2@@std@@AEAAXXZ
	?_Ufill@?$vector@V?$vector@HV?$allocator@H@std@@@std@@V?$allocator@V?$vector@HV?$allocator@H@std@@@std@@@2@@std@@AEAAPEAV?$vector@HV?$allocator@H@std@@@2@PEAV32@_KU_Value_init_tag@2@@Z
	?_Umove@?$vector@HV?$allocator@H@std@@@std@@AEAAPEAHPEAH00@Z
	?_Umove@?$vector@PEBVInterPtType@@V?$allocator@PEBVInterPtType@@@std@@@std@@AEAAPEAPEBVInterPtType@@PEAPEBV3@00@Z
	?_Umove@?$vector@U?$pair@VInterPtType@@V1@@std@@V?$allocator@U?$pair@VInterPtType@@V1@@std@@@2@@std@@AEAAPEAU?$pair@VInterPtType@@V1@@2@PEAU32@00@Z
	?_Umove@?$vector@V?$deque@VStripPtR@@V?$allocator@VStripPtR@@@std@@@std@@V?$allocator@V?$deque@VStripPtR@@V?$allocator@VStripPtR@@@std@@@std@@@2@@std@@AEAAPEAV?$deque@VStripPtR@@V?$allocator@VStripPtR@@@std@@@2@PEAV32@00@Z
	?_Umove@?$vector@V?$reference_wrapper@VStripPt@@@std@@V?$allocator@V?$reference_wrapper@VStripPt@@@std@@@2@@std@@AEAAPEAV?$reference_wrapper@VStripPt@@@2@PEAV32@00@Z
	?_Umove@?$vector@V?$reference_wrapper@VStripPtR@@@std@@V?$allocator@V?$reference_wrapper@VStripPtR@@@std@@@2@@std@@AEAAPEAV?$reference_wrapper@VStripPtR@@@2@PEAV32@00@Z
	?_Umove@?$vector@V?$shared_ptr@VLine@@@std@@V?$allocator@V?$shared_ptr@VLine@@@std@@@2@@std@@AEAAPEAV?$shared_ptr@VLine@@@2@PEAV32@00@Z
	?_Umove@?$vector@V?$shared_ptr@VObj@@@std@@V?$allocator@V?$shared_ptr@VObj@@@std@@@2@@std@@AEAAPEAV?$shared_ptr@VObj@@@2@PEAV32@00@Z
	?_Umove@?$vector@V?$vector@HV?$allocator@H@std@@@std@@V?$allocator@V?$vector@HV?$allocator@H@std@@@std@@@2@@std@@AEAAPEAV?$vector@HV?$allocator@H@std@@@2@PEAV32@00@Z
	?_Umove@?$vector@VInterPtType@@V?$allocator@VInterPtType@@@std@@@std@@AEAAPEAVInterPtType@@PEAV3@00@Z
	?_Umove@?$vector@VMergePt@@V?$allocator@VMergePt@@@std@@@std@@AEAAPEAVMergePt@@PEAV3@00@Z
	?_Umove@?$vector@VNode@@V?$allocator@VNode@@@std@@@std@@AEAAPEAVNode@@PEAV3@00@Z
	?_Umove@?$vector@VPair@@V?$allocator@VPair@@@std@@@std@@AEAAPEAVPair@@PEAV3@00@Z
	?_Umove@?$vector@VPoint@@V?$allocator@VPoint@@@std@@@std@@AEAAPEAVPoint@@PEAV3@00@Z
	?_Umove@?$vector@VPolyAtEdge@@V?$allocator@VPolyAtEdge@@@std@@@std@@AEAAPEAVPolyAtEdge@@PEAV3@00@Z
	?_Umove@?$vector@VStripPtL2@@V?$allocator@VStripPtL2@@@std@@@std@@AEAAPEAVStripPtL2@@PEAV3@00@Z
	?_Umove@?$vector@VStripPtL3@@V?$allocator@VStripPtL3@@@std@@@std@@AEAAPEAVStripPtL3@@PEAV3@00@Z
	?_Umove@?$vector@VStripPtL@@V?$allocator@VStripPtL@@@std@@@std@@AEAAPEAVStripPtL@@PEAV3@00@Z
	?_Umove_if_noexcept1@?$vector@HV?$allocator@H@std@@@std@@AEAAXPEAH00U?$integral_constant@_N$00@2@@Z
	?_Umove_if_noexcept1@?$vector@PEBVInterPtType@@V?$allocator@PEBVInterPtType@@@std@@@std@@AEAAXPEAPEBVInterPtType@@00U?$integral_constant@_N$00@2@@Z
	?_Umove_if_noexcept1@?$vector@U?$pair@VInterPtType@@V1@@std@@V?$allocator@U?$pair@VInterPtType@@V1@@std@@@2@@std@@AEAAXPEAU?$pair@VInterPtType@@V1@@2@00U?$integral_constant@_N$00@2@@Z
	?_Umove_if_noexcept1@?$vector@V?$deque@VStripPtR@@V?$allocator@VStripPtR@@@std@@@std@@V?$allocator@V?$deque@VStripPtR@@V?$allocator@VStripPtR@@@std@@@std@@@2@@std@@AEAAXPEAV?$deque@VStripPtR@@V?$allocator@VStripPtR@@@std@@@2@00U?$integral_constant@_N$0A@@2@@Z
	?_Umove_if_noexcept1@?$vector@V?$reference_wrapper@VStripPt@@@std@@V?$allocator@V?$reference_wrapper@VStripPt@@@std@@@2@@std@@AEAAXPEAV?$reference_wrapper@VStripPt@@@2@00U?$integral_constant@_N$00@2@@Z
	?_Umove_if_noexcept1@?$vector@V?$reference_wrapper@VStripPtR@@@std@@V?$allocator@V?$reference_wrapper@VStripPtR@@@std@@@2@@std@@AEAAXPEAV?$reference_wrapper@VStripPtR@@@2@00U?$integral_constant@_N$00@2@@Z
	?_Umove_if_noexcept1@?$vector@V?$shared_ptr@VLine@@@std@@V?$allocator@V?$shared_ptr@VLine@@@std@@@2@@std@@AEAAXPEAV?$shared_ptr@VLine@@@2@00U?$integral_constant@_N$00@2@@Z
	?_Umove_if_noexcept1@?$vector@V?$shared_ptr@VObj@@@std@@V?$allocator@V?$shared_ptr@VObj@@@std@@@2@@std@@AEAAXPEAV?$shared_ptr@VObj@@@2@00U?$integral_constant@_N$00@2@@Z
	?_Umove_if_noexcept1@?$vector@V?$vector@HV?$allocator@H@std@@@std@@V?$allocator@V?$vector@HV?$allocator@H@std@@@std@@@2@@std@@AEAAXPEAV?$vector@HV?$allocator@H@std@@@2@00U?$integral_constant@_N$00@2@@Z
	?_Umove_if_noexcept1@?$vector@VInterPtType@@V?$allocator@VInterPtType@@@std@@@std@@AEAAXPEAVInterPtType@@00U?$integral_constant@_N$00@2@@Z
	?_Umove_if_noexcept1@?$vector@VMergePt@@V?$allocator@VMergePt@@@std@@@std@@AEAAXPEAVMergePt@@00U?$integral_constant@_N$00@2@@Z
	?_Umove_if_noexcept1@?$vector@VNode@@V?$allocator@VNode@@@std@@@std@@AEAAXPEAVNode@@00U?$integral_constant@_N$00@2@@Z
	?_Umove_if_noexcept1@?$vector@VPair@@V?$allocator@VPair@@@std@@@std@@AEAAXPEAVPair@@00U?$integral_constant@_N$00@2@@Z
	?_Umove_if_noexcept1@?$vector@VPoint@@V?$allocator@VPoint@@@std@@@std@@AEAAXPEAVPoint@@00U?$integral_constant@_N$0A@@2@@Z
	?_Umove_if_noexcept1@?$vector@VPolyAtEdge@@V?$allocator@VPolyAtEdge@@@std@@@std@@AEAAXPEAVPolyAtEdge@@00U?$integral_constant@_N$00@2@@Z
	?_Umove_if_noexcept1@?$vector@VStripPtL2@@V?$allocator@VStripPtL2@@@std@@@std@@AEAAXPEAVStripPtL2@@00U?$integral_constant@_N$00@2@@Z
	?_Umove_if_noexcept1@?$vector@VStripPtL3@@V?$allocator@VStripPtL3@@@std@@@std@@AEAAXPEAVStripPtL3@@00U?$integral_constant@_N$00@2@@Z
	?_Umove_if_noexcept1@?$vector@VStripPtL@@V?$allocator@VStripPtL@@@std@@@std@@AEAAXPEAVStripPtL@@00U?$integral_constant@_N$00@2@@Z
	?_Umove_if_noexcept@?$vector@HV?$allocator@H@std@@@std@@AEAAXPEAH00@Z
	?_Umove_if_noexcept@?$vector@PEBVInterPtType@@V?$allocator@PEBVInterPtType@@@std@@@std@@AEAAXPEAPEBVInterPtType@@00@Z
	?_Umove_if_noexcept@?$vector@U?$pair@VInterPtType@@V1@@std@@V?$allocator@U?$pair@VInterPtType@@V1@@std@@@2@@std@@AEAAXPEAU?$pair@VInterPtType@@V1@@2@00@Z
	?_Umove_if_noexcept@?$vector@V?$deque@VStripPtR@@V?$allocator@VStripPtR@@@std@@@std@@V?$allocator@V?$deque@VStripPtR@@V?$allocator@VStripPtR@@@std@@@std@@@2@@std@@AEAAXPEAV?$deque@VStripPtR@@V?$allocator@VStripPtR@@@std@@@2@00@Z
	?_Umove_if_noexcept@?$vector@V?$reference_wrapper@VStripPt@@@std@@V?$allocator@V?$reference_wrapper@VStripPt@@@std@@@2@@std@@AEAAXPEAV?$reference_wrapper@VStripPt@@@2@00@Z
	?_Umove_if_noexcept@?$vector@V?$reference_wrapper@VStripPtR@@@std@@V?$allocator@V?$reference_wrapper@VStripPtR@@@std@@@2@@std@@AEAAXPEAV?$reference_wrapper@VStripPtR@@@2@00@Z
	?_Umove_if_noexcept@?$vector@V?$shared_ptr@VLine@@@std@@V?$allocator@V?$shared_ptr@VLine@@@std@@@2@@std@@AEAAXPEAV?$shared_ptr@VLine@@@2@00@Z
	?_Umove_if_noexcept@?$vector@V?$shared_ptr@VObj@@@std@@V?$allocator@V?$shared_ptr@VObj@@@std@@@2@@std@@AEAAXPEAV?$shared_ptr@VObj@@@2@00@Z
	?_Umove_if_noexcept@?$vector@V?$vector@HV?$allocator@H@std@@@std@@V?$allocator@V?$vector@HV?$allocator@H@std@@@std@@@2@@std@@AEAAXPEAV?$vector@HV?$allocator@H@std@@@2@00@Z
	?_Umove_if_noexcept@?$vector@VInterPtType@@V?$allocator@VInterPtType@@@std@@@std@@AEAAXPEAVInterPtType@@00@Z
	?_Umove_if_noexcept@?$vector@VMergePt@@V?$allocator@VMergePt@@@std@@@std@@AEAAXPEAVMergePt@@00@Z
	?_Umove_if_noexcept@?$vector@VNode@@V?$allocator@VNode@@@std@@@std@@AEAAXPEAVNode@@00@Z
	?_Umove_if_noexcept@?$vector@VPair@@V?$allocator@VPair@@@std@@@std@@AEAAXPEAVPair@@00@Z
	?_Umove_if_noexcept@?$vector@VPoint@@V?$allocator@VPoint@@@std@@@std@@AEAAXPEAVPoint@@00@Z
	?_Umove_if_noexcept@?$vector@VPolyAtEdge@@V?$allocator@VPolyAtEdge@@@std@@@std@@AEAAXPEAVPolyAtEdge@@00@Z
	?_Umove_if_noexcept@?$vector@VStripPtL2@@V?$allocator@VStripPtL2@@@std@@@std@@AEAAXPEAVStripPtL2@@00@Z
	?_Umove_if_noexcept@?$vector@VStripPtL3@@V?$allocator@VStripPtL3@@@std@@@std@@AEAAXPEAVStripPtL3@@00@Z
	?_Umove_if_noexcept@?$vector@VStripPtL@@V?$allocator@VStripPtL@@@std@@@std@@AEAAXPEAVStripPtL@@00@Z
	?_Unchecked_begin@?$_Tree@V?$_Tmap_traits@HV?$vector@HV?$allocator@H@std@@@std@@U?$less@H@2@V?$allocator@U?$pair@$$CBHV?$vector@HV?$allocator@H@std@@@std@@@std@@@2@$0A@@std@@@std@@QEAA?AV?$_Tree_unchecked_iterator@V?$_Tree_val@U?$_Tree_simple_types@U?$pair@$$CBHV?$vector@HV?$allocator@H@std@@@std@@@std@@@std@@@std@@@2@XZ
	?_Unchecked_begin@?$_Tree@V?$_Tmap_traits@HVPStrips@@U?$less@H@std@@V?$allocator@U?$pair@$$CBHVPStrips@@@std@@@3@$0A@@std@@@std@@QEAA?AV?$_Tree_unchecked_iterator@V?$_Tree_val@U?$_Tree_simple_types@U?$pair@$$CBHVPStrips@@@std@@@std@@@std@@@2@XZ
	?_Unchecked_begin@?$_Tree@V?$_Tmap_traits@HVStripPt@@U?$less@H@std@@V?$allocator@U?$pair@$$CBHVStripPt@@@std@@@3@$0A@@std@@@std@@QEAA?AV?$_Tree_unchecked_iterator@V?$_Tree_val@U?$_Tree_simple_types@U?$pair@$$CBHVStripPt@@@std@@@std@@@std@@@2@XZ
	?_Unchecked_begin@?$deque@HV?$allocator@H@std@@@std@@QEAA?AV?$_Deque_unchecked_iterator@V?$_Deque_val@U?$_Deque_simple_types@H@std@@@std@@@2@XZ
	?_Unchecked_begin@?$deque@V?$vector@HV?$allocator@H@std@@@std@@V?$allocator@V?$vector@HV?$allocator@H@std@@@std@@@2@@std@@QEAA?AV?$_Deque_unchecked_iterator@V?$_Deque_val@U?$_Deque_simple_types@V?$vector@HV?$allocator@H@std@@@std@@@std@@@std@@@2@XZ
	?_Unchecked_begin@?$deque@VStripPtR@@V?$allocator@VStripPtR@@@std@@@std@@QEAA?AV?$_Deque_unchecked_iterator@V?$_Deque_val@U?$_Deque_simple_types@VStripPtR@@@std@@@std@@@2@XZ
	?_Unchecked_begin@?$deque@VStripPtR@@V?$allocator@VStripPtR@@@std@@@std@@QEBA?AV?$_Deque_unchecked_const_iterator@V?$_Deque_val@U?$_Deque_simple_types@VStripPtR@@@std@@@std@@@2@XZ
	?_Unchecked_begin@?$vector@HV?$allocator@H@std@@@std@@QEAAPEAHXZ
	?_Unchecked_begin@?$vector@V?$deque@VStripPtR@@V?$allocator@VStripPtR@@@std@@@std@@V?$allocator@V?$deque@VStripPtR@@V?$allocator@VStripPtR@@@std@@@std@@@2@@std@@QEAAPEAV?$deque@VStripPtR@@V?$allocator@VStripPtR@@@std@@@2@XZ
	?_Unchecked_begin@?$vector@V?$reference_wrapper@VStripPt@@@std@@V?$allocator@V?$reference_wrapper@VStripPt@@@std@@@2@@std@@QEAAPEAV?$reference_wrapper@VStripPt@@@2@XZ
	?_Unchecked_begin@?$vector@V?$shared_ptr@VLine@@@std@@V?$allocator@V?$shared_ptr@VLine@@@std@@@2@@std@@QEAAPEAV?$shared_ptr@VLine@@@2@XZ
	?_Unchecked_begin@?$vector@V?$vector@HV?$allocator@H@std@@@std@@V?$allocator@V?$vector@HV?$allocator@H@std@@@std@@@2@@std@@QEAAPEAV?$vector@HV?$allocator@H@std@@@2@XZ
	?_Unchecked_begin@?$vector@V?$vector@VPoint@@V?$allocator@VPoint@@@std@@@std@@V?$allocator@V?$vector@VPoint@@V?$allocator@VPoint@@@std@@@std@@@2@@std@@QEAAPEAV?$vector@VPoint@@V?$allocator@VPoint@@@std@@@2@XZ
	?_Unchecked_begin@?$vector@VPair@@V?$allocator@VPair@@@std@@@std@@QEAAPEAVPair@@XZ
	?_Unchecked_begin@?$vector@VPoint@@V?$allocator@VPoint@@@std@@@std@@QEAAPEAVPoint@@XZ
	?_Unchecked_end@?$_Tree@V?$_Tmap_traits@HV?$vector@HV?$allocator@H@std@@@std@@U?$less@H@2@V?$allocator@U?$pair@$$CBHV?$vector@HV?$allocator@H@std@@@std@@@std@@@2@$0A@@std@@@std@@QEBA?AU_Default_sentinel@2@XZ
	?_Unchecked_end@?$_Tree@V?$_Tmap_traits@HVPStrips@@U?$less@H@std@@V?$allocator@U?$pair@$$CBHVPStrips@@@std@@@3@$0A@@std@@@std@@QEBA?AU_Default_sentinel@2@XZ
	?_Unchecked_end@?$_Tree@V?$_Tmap_traits@HVStripPt@@U?$less@H@std@@V?$allocator@U?$pair@$$CBHVStripPt@@@std@@@3@$0A@@std@@@std@@QEBA?AU_Default_sentinel@2@XZ
	?_Unchecked_end@?$deque@HV?$allocator@H@std@@@std@@QEAA?AV?$_Deque_unchecked_iterator@V?$_Deque_val@U?$_Deque_simple_types@H@std@@@std@@@2@XZ
	?_Unchecked_end@?$deque@VStripPtR@@V?$allocator@VStripPtR@@@std@@@std@@QEAA?AV?$_Deque_unchecked_iterator@V?$_Deque_val@U?$_Deque_simple_types@VStripPtR@@@std@@@std@@@2@XZ
	?_Unchecked_end@?$deque@VStripPtR@@V?$allocator@VStripPtR@@@std@@@std@@QEBA?AV?$_Deque_unchecked_const_iterator@V?$_Deque_val@U?$_Deque_simple_types@VStripPtR@@@std@@@std@@@2@XZ
	?_Unchecked_end@?$vector@HV?$allocator@H@std@@@std@@QEAAPEAHXZ
	?_Unchecked_end@?$vector@V?$deque@VStripPtR@@V?$allocator@VStripPtR@@@std@@@std@@V?$allocator@V?$deque@VStripPtR@@V?$allocator@VStripPtR@@@std@@@std@@@2@@std@@QEAAPEAV?$deque@VStripPtR@@V?$allocator@VStripPtR@@@std@@@2@XZ
	?_Unchecked_end@?$vector@V?$reference_wrapper@VStripPt@@@std@@V?$allocator@V?$reference_wrapper@VStripPt@@@std@@@2@@std@@QEAAPEAV?$reference_wrapper@VStripPt@@@2@XZ
	?_Unchecked_end@?$vector@V?$shared_ptr@VLine@@@std@@V?$allocator@V?$shared_ptr@VLine@@@std@@@2@@std@@QEAAPEAV?$shared_ptr@VLine@@@2@XZ
	?_Unchecked_end@?$vector@V?$vector@HV?$allocator@H@std@@@std@@V?$allocator@V?$vector@HV?$allocator@H@std@@@std@@@2@@std@@QEAAPEAV?$vector@HV?$allocator@H@std@@@2@XZ
	?_Unchecked_end@?$vector@V?$vector@VPoint@@V?$allocator@VPoint@@@std@@@std@@V?$allocator@V?$vector@VPoint@@V?$allocator@VPoint@@@std@@@std@@@2@@std@@QEAAPEAV?$vector@VPoint@@V?$allocator@VPoint@@@std@@@2@XZ
	?_Unchecked_end@?$vector@VPair@@V?$allocator@VPair@@@std@@@std@@QEAAPEAVPair@@XZ
	?_Unchecked_end@?$vector@VPoint@@V?$allocator@VPoint@@@std@@@std@@QEAAPEAVPoint@@XZ
	?_Unlock@?$basic_filebuf@DU?$char_traits@D@std@@@std@@UEAAXXZ
	?_Unwrapped@?$_Deque_iterator@V?$_Deque_val@U?$_Deque_simple_types@H@std@@@std@@@std@@QEBA?AV?$_Deque_unchecked_iterator@V?$_Deque_val@U?$_Deque_simple_types@H@std@@@std@@@2@XZ
	?_Unwrapped@?$_Deque_iterator@V?$_Deque_val@U?$_Deque_simple_types@VStripPtR@@@std@@@std@@@std@@QEBA?AV?$_Deque_unchecked_iterator@V?$_Deque_val@U?$_Deque_simple_types@VStripPtR@@@std@@@std@@@2@XZ
	?_Unwrapped@?$_Tree_const_iterator@V?$_Tree_val@U?$_Tree_simple_types@H@std@@@std@@@std@@QEBA?AV?$_Tree_unchecked_const_iterator@V?$_Tree_val@U?$_Tree_simple_types@H@std@@@std@@U_Iterator_base0@2@@2@XZ
	?_Unwrapped@?$_Tree_const_iterator@V?$_Tree_val@U?$_Tree_simple_types@VStripPtL3@@@std@@@std@@@std@@QEBA?AV?$_Tree_unchecked_const_iterator@V?$_Tree_val@U?$_Tree_simple_types@VStripPtL3@@@std@@@std@@U_Iterator_base0@2@@2@XZ
	?_Unwrapped@?$_Vector_const_iterator@V?$_Vector_val@U?$_Simple_types@H@std@@@std@@@std@@QEBAPEBHXZ
	?_Unwrapped@?$_Vector_iterator@V?$_Vector_val@U?$_Simple_types@H@std@@@std@@@std@@QEBAPEAHXZ
	?_Unwrapped@?$_Vector_iterator@V?$_Vector_val@U?$_Simple_types@PEBVInterPtType@@@std@@@std@@@std@@QEBAPEAPEBVInterPtType@@XZ
	?_Unwrapped@?$_Vector_iterator@V?$_Vector_val@U?$_Simple_types@V?$deque@VStripPtR@@V?$allocator@VStripPtR@@@std@@@std@@@std@@@std@@@std@@QEBAPEAV?$deque@VStripPtR@@V?$allocator@VStripPtR@@@std@@@2@XZ
	?_Unwrapped@?$_Vector_iterator@V?$_Vector_val@U?$_Simple_types@V?$reference_wrapper@VStripPtR@@@std@@@std@@@std@@@std@@QEBAPEAV?$reference_wrapper@VStripPtR@@@2@XZ
	?_Unwrapped@?$_Vector_iterator@V?$_Vector_val@U?$_Simple_types@VInterPtType@@@std@@@std@@@std@@QEBAPEAVInterPtType@@XZ
	?_Unwrapped@?$_Vector_iterator@V?$_Vector_val@U?$_Simple_types@VPoint@@@std@@@std@@@std@@QEBAPEAVPoint@@XZ
	?_Unwrapped@?$_Vector_iterator@V?$_Vector_val@U?$_Simple_types@VStripPtL3@@@std@@@std@@@std@@QEBAPEAVStripPtL3@@XZ
	?_Verify_offset@?$_Deque_const_iterator@V?$_Deque_val@U?$_Deque_simple_types@H@std@@@std@@@std@@QEBAX_J@Z
	?_Verify_offset@?$_Vector_const_iterator@V?$_Vector_val@U?$_Simple_types@H@std@@@std@@@std@@QEBAX_J@Z
	?_Verify_offset@?$_Vector_const_iterator@V?$_Vector_val@U?$_Simple_types@V?$reference_wrapper@VStripPtR@@@std@@@std@@@std@@@std@@QEBAX_J@Z
	?_Verify_offset@?$_Vector_const_iterator@V?$_Vector_val@U?$_Simple_types@VInterPtType@@@std@@@std@@@std@@QEBAX_J@Z
	?_Verify_offset@?$_Vector_const_iterator@V?$_Vector_val@U?$_Simple_types@VMergePt@@@std@@@std@@@std@@QEBAX_J@Z
	?_Verify_offset@?$_Vector_const_iterator@V?$_Vector_val@U?$_Simple_types@VPair@@@std@@@std@@@std@@QEBAX_J@Z
	?_Verify_offset@?$_Vector_const_iterator@V?$_Vector_val@U?$_Simple_types@VStripPtL3@@@std@@@std@@@std@@QEBAX_J@Z
	?_Verify_range@std@@YAXAEBV?$_Deque_const_iterator@V?$_Deque_val@U?$_Deque_simple_types@H@std@@@std@@@1@0@Z
	?_Verify_range@std@@YAXAEBV?$_Deque_const_iterator@V?$_Deque_val@U?$_Deque_simple_types@VStripPtR@@@std@@@std@@@1@0@Z
	?_Verify_range@std@@YAXAEBV?$_Tree_const_iterator@V?$_Tree_val@U?$_Tree_simple_types@H@std@@@std@@@1@0@Z
	?_Verify_range@std@@YAXAEBV?$_Tree_const_iterator@V?$_Tree_val@U?$_Tree_simple_types@VStripPtL3@@@std@@@std@@@1@0@Z
	?_Verify_range@std@@YAXAEBV?$_Vector_const_iterator@V?$_Vector_val@U?$_Simple_types@H@std@@@std@@@1@0@Z
	?_Verify_range@std@@YAXAEBV?$_Vector_const_iterator@V?$_Vector_val@U?$_Simple_types@PEBVInterPtType@@@std@@@std@@@1@0@Z
	?_Verify_range@std@@YAXAEBV?$_Vector_const_iterator@V?$_Vector_val@U?$_Simple_types@V?$deque@VStripPtR@@V?$allocator@VStripPtR@@@std@@@std@@@std@@@std@@@1@0@Z
	?_Verify_range@std@@YAXAEBV?$_Vector_const_iterator@V?$_Vector_val@U?$_Simple_types@V?$reference_wrapper@VStripPtR@@@std@@@std@@@std@@@1@0@Z
	?_Verify_range@std@@YAXAEBV?$_Vector_const_iterator@V?$_Vector_val@U?$_Simple_types@VInterPtType@@@std@@@std@@@1@0@Z
	?_Verify_range@std@@YAXAEBV?$_Vector_const_iterator@V?$_Vector_val@U?$_Simple_types@VPoint@@@std@@@std@@@1@0@Z
	?_Verify_range@std@@YAXAEBV?$_Vector_const_iterator@V?$_Vector_val@U?$_Simple_types@VStripPtL3@@@std@@@std@@@1@0@Z
	?_Xlen@?$basic_string@DU?$char_traits@D@std@@V?$allocator@D@2@@std@@CAXXZ
	?_Xlen@?$deque@HV?$allocator@H@std@@@std@@AEBAXXZ
	?_Xlen@?$deque@V?$vector@HV?$allocator@H@std@@@std@@V?$allocator@V?$vector@HV?$allocator@H@std@@@std@@@2@@std@@AEBAXXZ
	?_Xlen@?$deque@VStripPtR@@V?$allocator@VStripPtR@@@std@@@std@@AEBAXXZ
	?_Xlength@?$vector@HV?$allocator@H@std@@@std@@CAXXZ
	?_Xlength@?$vector@PEBVInterPtType@@V?$allocator@PEBVInterPtType@@@std@@@std@@CAXXZ
	?_Xlength@?$vector@U?$pair@VInterPtType@@V1@@std@@V?$allocator@U?$pair@VInterPtType@@V1@@std@@@2@@std@@CAXXZ
	?_Xlength@?$vector@V?$deque@VStripPtR@@V?$allocator@VStripPtR@@@std@@@std@@V?$allocator@V?$deque@VStripPtR@@V?$allocator@VStripPtR@@@std@@@std@@@2@@std@@CAXXZ
	?_Xlength@?$vector@V?$reference_wrapper@VStripPt@@@std@@V?$allocator@V?$reference_wrapper@VStripPt@@@std@@@2@@std@@CAXXZ
	?_Xlength@?$vector@V?$reference_wrapper@VStripPtR@@@std@@V?$allocator@V?$reference_wrapper@VStripPtR@@@std@@@2@@std@@CAXXZ
	?_Xlength@?$vector@V?$shared_ptr@VLine@@@std@@V?$allocator@V?$shared_ptr@VLine@@@std@@@2@@std@@CAXXZ
	?_Xlength@?$vector@V?$shared_ptr@VObj@@@std@@V?$allocator@V?$shared_ptr@VObj@@@std@@@2@@std@@CAXXZ
	?_Xlength@?$vector@V?$vector@HV?$allocator@H@std@@@std@@V?$allocator@V?$vector@HV?$allocator@H@std@@@std@@@2@@std@@CAXXZ
	?_Xlength@?$vector@VInterPtType@@V?$allocator@VInterPtType@@@std@@@std@@CAXXZ
	?_Xlength@?$vector@VMergePt@@V?$allocator@VMergePt@@@std@@@std@@CAXXZ
	?_Xlength@?$vector@VNode@@V?$allocator@VNode@@@std@@@std@@CAXXZ
	?_Xlength@?$vector@VPair@@V?$allocator@VPair@@@std@@@std@@CAXXZ
	?_Xlength@?$vector@VPoint@@V?$allocator@VPoint@@@std@@@std@@CAXXZ
	?_Xlength@?$vector@VPolyAtEdge@@V?$allocator@VPolyAtEdge@@@std@@@std@@CAXXZ
	?_Xlength@?$vector@VStripPtL2@@V?$allocator@VStripPtL2@@@std@@@std@@CAXXZ
	?_Xlength@?$vector@VStripPtL3@@V?$allocator@VStripPtL3@@@std@@@std@@CAXXZ
	?_Xlength@?$vector@VStripPtL@@V?$allocator@VStripPtL@@@std@@@std@@CAXXZ
	?_Xran@?$_String_val@U?$_Simple_types@D@std@@@std@@SAXXZ
	?__empty_global_delete@@YAXPEAX@Z
	?__empty_global_delete@@YAXPEAX_K@Z
	?__global_array_delete@@YAXPEAX@Z
	?__global_array_delete@@YAXPEAX_K@Z
	?__global_delete@@YAXPEAX@Z
	?__global_delete@@YAXPEAX_K@Z
	?abs@@YANN@Z
	?allocate@?$allocator@D@std@@QEAAPEAD_K@Z
	?allocate@?$allocator@H@std@@QEAAPEAH_K@Z
	?allocate@?$allocator@PEAH@std@@QEAAPEAPEAH_K@Z
	?allocate@?$allocator@PEAV?$vector@HV?$allocator@H@std@@@std@@@std@@QEAAPEAPEAV?$vector@HV?$allocator@H@std@@@2@_K@Z
	?allocate@?$allocator@PEAVStripPtR@@@std@@QEAAPEAPEAVStripPtR@@_K@Z
	?allocate@?$allocator@PEBVInterPtType@@@std@@QEAAPEAPEBVInterPtType@@_K@Z
	?allocate@?$allocator@U?$_Tree_node@HPEAX@std@@@std@@QEAAPEAU?$_Tree_node@HPEAX@2@_K@Z
	?allocate@?$allocator@U?$_Tree_node@U?$pair@$$CBHH@std@@PEAX@std@@@std@@QEAAPEAU?$_Tree_node@U?$pair@$$CBHH@std@@PEAX@2@_K@Z
	?allocate@?$allocator@U?$_Tree_node@U?$pair@$$CBHV?$set@HU?$less@H@std@@V?$allocator@H@2@@std@@@std@@PEAX@std@@@std@@QEAAPEAU?$_Tree_node@U?$pair@$$CBHV?$set@HU?$less@H@std@@V?$allocator@H@2@@std@@@std@@PEAX@2@_K@Z
	?allocate@?$allocator@U?$_Tree_node@U?$pair@$$CBHV?$vector@HV?$allocator@H@std@@@std@@@std@@PEAX@std@@@std@@QEAAPEAU?$_Tree_node@U?$pair@$$CBHV?$vector@HV?$allocator@H@std@@@std@@@std@@PEAX@2@_K@Z
	?allocate@?$allocator@U?$_Tree_node@U?$pair@$$CBHV?$vector@V?$reference_wrapper@VStripPtR@@@std@@V?$allocator@V?$reference_wrapper@VStripPtR@@@std@@@2@@std@@@std@@PEAX@std@@@std@@QEAAPEAU?$_Tree_node@U?$pair@$$CBHV?$vector@V?$reference_wrapper@VStripPtR@@@std@@V?$allocator@V?$reference_wrapper@VStripPtR@@@std@@@2@@std@@@std@@PEAX@2@_K@Z
	?allocate@?$allocator@U?$_Tree_node@U?$pair@$$CBHVPStrips@@@std@@PEAX@std@@@std@@QEAAPEAU?$_Tree_node@U?$pair@$$CBHVPStrips@@@std@@PEAX@2@_K@Z
	?allocate@?$allocator@U?$_Tree_node@U?$pair@$$CBHVStripPt@@@std@@PEAX@std@@@std@@QEAAPEAU?$_Tree_node@U?$pair@$$CBHVStripPt@@@std@@PEAX@2@_K@Z
	?allocate@?$allocator@U?$_Tree_node@U?$pair@$$CBHW4Rel@@@std@@PEAX@std@@@std@@QEAAPEAU?$_Tree_node@U?$pair@$$CBHW4Rel@@@std@@PEAX@2@_K@Z
	?allocate@?$allocator@U?$_Tree_node@U?$pair@$$CBVPair@@V?$map@HHU?$less@H@std@@V?$allocator@U?$pair@$$CBHH@std@@@2@@std@@@std@@PEAX@std@@@std@@QEAAPEAU?$_Tree_node@U?$pair@$$CBVPair@@V?$map@HHU?$less@H@std@@V?$allocator@U?$pair@$$CBHH@std@@@2@@std@@@std@@PEAX@2@_K@Z
	?allocate@?$allocator@U?$_Tree_node@V?$reference_wrapper@VStripPt@@@std@@PEAX@std@@@std@@QEAAPEAU?$_Tree_node@V?$reference_wrapper@VStripPt@@@std@@PEAX@2@_K@Z
	?allocate@?$allocator@U?$_Tree_node@VPair@@PEAX@std@@@std@@QEAAPEAU?$_Tree_node@VPair@@PEAX@2@_K@Z
	?allocate@?$allocator@U?$_Tree_node@VStripPtL3@@PEAX@std@@@std@@QEAAPEAU?$_Tree_node@VStripPtL3@@PEAX@2@_K@Z
	?allocate@?$allocator@U?$_Tree_node@VStripPtL@@PEAX@std@@@std@@QEAAPEAU?$_Tree_node@VStripPtL@@PEAX@2@_K@Z
	?allocate@?$allocator@U?$pair@VInterPtType@@V1@@std@@@std@@QEAAPEAU?$pair@VInterPtType@@V1@@2@_K@Z
	?allocate@?$allocator@U_Container_proxy@std@@@std@@QEAAPEAU_Container_proxy@2@_K@Z
	?allocate@?$allocator@V?$deque@VStripPtR@@V?$allocator@VStripPtR@@@std@@@std@@@std@@QEAAPEAV?$deque@VStripPtR@@V?$allocator@VStripPtR@@@std@@@2@_K@Z
	?allocate@?$allocator@V?$reference_wrapper@VStripPt@@@std@@@std@@QEAAPEAV?$reference_wrapper@VStripPt@@@2@_K@Z
	?allocate@?$allocator@V?$reference_wrapper@VStripPtR@@@std@@@std@@QEAAPEAV?$reference_wrapper@VStripPtR@@@2@_K@Z
	?allocate@?$allocator@V?$shared_ptr@VLine@@@std@@@std@@QEAAPEAV?$shared_ptr@VLine@@@2@_K@Z
	?allocate@?$allocator@V?$shared_ptr@VObj@@@std@@@std@@QEAAPEAV?$shared_ptr@VObj@@@2@_K@Z
	?allocate@?$allocator@V?$vector@HV?$allocator@H@std@@@std@@@std@@QEAAPEAV?$vector@HV?$allocator@H@std@@@2@_K@Z
	?allocate@?$allocator@VInterPtType@@@std@@QEAAPEAVInterPtType@@_K@Z
	?allocate@?$allocator@VMergePt@@@std@@QEAAPEAVMergePt@@_K@Z
	?allocate@?$allocator@VNode@@@std@@QEAAPEAVNode@@_K@Z
	?allocate@?$allocator@VPair@@@std@@QEAAPEAVPair@@_K@Z
	?allocate@?$allocator@VPoint@@@std@@QEAAPEAVPoint@@_K@Z
	?allocate@?$allocator@VPolyAtEdge@@@std@@QEAAPEAVPolyAtEdge@@_K@Z
	?allocate@?$allocator@VStripPtL2@@@std@@QEAAPEAVStripPtL2@@_K@Z
	?allocate@?$allocator@VStripPtL3@@@std@@QEAAPEAVStripPtL3@@_K@Z
	?allocate@?$allocator@VStripPtL@@@std@@QEAAPEAVStripPtL@@_K@Z
	?allocate@?$allocator@VStripPtR@@@std@@QEAAPEAVStripPtR@@_K@Z
	?assign@?$_Narrow_char_traits@DH@std@@SAXAEADAEBD@Z
	?at@?$map@HVPStrips@@U?$less@H@std@@V?$allocator@U?$pair@$$CBHVPStrips@@@std@@@3@@std@@QEAAAEAVPStrips@@AEBH@Z
	?at@?$map@HVStripPt@@U?$less@H@std@@V?$allocator@U?$pair@$$CBHVStripPt@@@std@@@3@@std@@QEBAAEBVStripPt@@AEBH@Z
	?back@?$deque@HV?$allocator@H@std@@@std@@QEAAAEAHXZ
	?back@?$deque@VStripPtR@@V?$allocator@VStripPtR@@@std@@@std@@QEAAAEAVStripPtR@@XZ
	?back@?$deque@VStripPtR@@V?$allocator@VStripPtR@@@std@@@std@@QEBAAEBVStripPtR@@XZ
	?back@?$vector@HV?$allocator@H@std@@@std@@QEAAAEAHXZ
	?back@?$vector@VPair@@V?$allocator@VPair@@@std@@@std@@QEAAAEAVPair@@XZ
	?back@?$vector@VStripPtL3@@V?$allocator@VStripPtL3@@@std@@@std@@QEAAAEAVStripPtL3@@XZ
	?base@?$reverse_iterator@PEAVStripPtL3@@@std@@QEBAPEAVStripPtL3@@XZ
	?base@?$reverse_iterator@V?$_Deque_iterator@V?$_Deque_val@U?$_Deque_simple_types@VStripPtR@@@std@@@std@@@std@@@std@@QEBA?AV?$_Deque_iterator@V?$_Deque_val@U?$_Deque_simple_types@VStripPtR@@@std@@@std@@@2@XZ
	?base@?$reverse_iterator@V?$_Deque_unchecked_iterator@V?$_Deque_val@U?$_Deque_simple_types@VStripPtR@@@std@@@std@@@std@@@std@@QEBA?AV?$_Deque_unchecked_iterator@V?$_Deque_val@U?$_Deque_simple_types@VStripPtR@@@std@@@std@@@2@XZ
	?base@?$reverse_iterator@V?$_Vector_const_iterator@V?$_Vector_val@U?$_Simple_types@VPair@@@std@@@std@@@std@@@std@@QEBA?AV?$_Vector_const_iterator@V?$_Vector_val@U?$_Simple_types@VPair@@@std@@@std@@@2@XZ
	?base@?$reverse_iterator@V?$_Vector_iterator@V?$_Vector_val@U?$_Simple_types@V?$reference_wrapper@VStripPtR@@@std@@@std@@@std@@@std@@@std@@QEBA?AV?$_Vector_iterator@V?$_Vector_val@U?$_Simple_types@V?$reference_wrapper@VStripPtR@@@std@@@std@@@std@@@2@XZ
	?base@?$reverse_iterator@V?$_Vector_iterator@V?$_Vector_val@U?$_Simple_types@VStripPtL3@@@std@@@std@@@std@@@std@@QEBA?AV?$_Vector_iterator@V?$_Vector_val@U?$_Simple_types@VStripPtL3@@@std@@@std@@@2@XZ
	?begin@?$_Tree@V?$_Tmap_traits@HHU?$less@H@std@@V?$allocator@U?$pair@$$CBHH@std@@@2@$0A@@std@@@std@@QEAA?AV?$_Tree_iterator@V?$_Tree_val@U?$_Tree_simple_types@U?$pair@$$CBHH@std@@@std@@@std@@@2@XZ
	?begin@?$_Tree@V?$_Tmap_traits@HV?$set@HU?$less@H@std@@V?$allocator@H@2@@std@@U?$less@H@2@V?$allocator@U?$pair@$$CBHV?$set@HU?$less@H@std@@V?$allocator@H@2@@std@@@std@@@2@$0A@@std@@@std@@QEAA?AV?$_Tree_iterator@V?$_Tree_val@U?$_Tree_simple_types@U?$pair@$$CBHV?$set@HU?$less@H@std@@V?$allocator@H@2@@std@@@std@@@std@@@std@@@2@XZ
	?begin@?$_Tree@V?$_Tmap_traits@HV?$vector@HV?$allocator@H@std@@@std@@U?$less@H@2@V?$allocator@U?$pair@$$CBHV?$vector@HV?$allocator@H@std@@@std@@@std@@@2@$0A@@std@@@std@@QEAA?AV?$_Tree_iterator@V?$_Tree_val@U?$_Tree_simple_types@U?$pair@$$CBHV?$vector@HV?$allocator@H@std@@@std@@@std@@@std@@@std@@@2@XZ
	?begin@?$_Tree@V?$_Tmap_traits@HV?$vector@V?$reference_wrapper@VStripPtR@@@std@@V?$allocator@V?$reference_wrapper@VStripPtR@@@std@@@2@@std@@U?$less@H@2@V?$allocator@U?$pair@$$CBHV?$vector@V?$reference_wrapper@VStripPtR@@@std@@V?$allocator@V?$reference_wrapper@VStripPtR@@@std@@@2@@std@@@std@@@2@$0A@@std@@@std@@QEAA?AV?$_Tree_iterator@V?$_Tree_val@U?$_Tree_simple_types@U?$pair@$$CBHV?$vector@V?$reference_wrapper@VStripPtR@@@std@@V?$allocator@V?$reference_wrapper@VStripPtR@@@std@@@2@@std@@@std@@@std@@@std@@@2@XZ
	?begin@?$_Tree@V?$_Tmap_traits@HVPStrips@@U?$less@H@std@@V?$allocator@U?$pair@$$CBHVPStrips@@@std@@@3@$0A@@std@@@std@@QEAA?AV?$_Tree_iterator@V?$_Tree_val@U?$_Tree_simple_types@U?$pair@$$CBHVPStrips@@@std@@@std@@@std@@@2@XZ
	?begin@?$_Tree@V?$_Tmap_traits@HVStripPt@@U?$less@H@std@@V?$allocator@U?$pair@$$CBHVStripPt@@@std@@@3@$0A@@std@@@std@@QEAA?AV?$_Tree_iterator@V?$_Tree_val@U?$_Tree_simple_types@U?$pair@$$CBHVStripPt@@@std@@@std@@@std@@@2@XZ
	?begin@?$_Tree@V?$_Tmap_traits@HW4Rel@@U?$less@H@std@@V?$allocator@U?$pair@$$CBHW4Rel@@@std@@@3@$0A@@std@@@std@@QEAA?AV?$_Tree_iterator@V?$_Tree_val@U?$_Tree_simple_types@U?$pair@$$CBHW4Rel@@@std@@@std@@@std@@@2@XZ
	?begin@?$_Tree@V?$_Tmap_traits@VPair@@V?$map@HHU?$less@H@std@@V?$allocator@U?$pair@$$CBHH@std@@@2@@std@@U?$less@VPair@@@3@V?$allocator@U?$pair@$$CBVPair@@V?$map@HHU?$less@H@std@@V?$allocator@U?$pair@$$CBHH@std@@@2@@std@@@std@@@3@$0A@@std@@@std@@QEAA?AV?$_Tree_iterator@V?$_Tree_val@U?$_Tree_simple_types@U?$pair@$$CBVPair@@V?$map@HHU?$less@H@std@@V?$allocator@U?$pair@$$CBHH@std@@@2@@std@@@std@@@std@@@std@@@2@XZ
	?begin@?$_Tree@V?$_Tset_traits@HU?$less@H@std@@V?$allocator@H@2@$0A@@std@@@std@@QEAA?AV?$_Tree_const_iterator@V?$_Tree_val@U?$_Tree_simple_types@H@std@@@std@@@2@XZ
	?begin@?$_Tree@V?$_Tset_traits@VStripPtL@@U?$less@VStripPtL@@@std@@V?$allocator@VStripPtL@@@3@$0A@@std@@@std@@QEAA?AV?$_Tree_const_iterator@V?$_Tree_val@U?$_Tree_simple_types@VStripPtL@@@std@@@std@@@2@XZ
	?begin@?$deque@HV?$allocator@H@std@@@std@@QEAA?AV?$_Deque_iterator@V?$_Deque_val@U?$_Deque_simple_types@H@std@@@std@@@2@XZ
	?begin@?$deque@V?$vector@HV?$allocator@H@std@@@std@@V?$allocator@V?$vector@HV?$allocator@H@std@@@std@@@2@@std@@QEAA?AV?$_Deque_iterator@V?$_Deque_val@U?$_Deque_simple_types@V?$vector@HV?$allocator@H@std@@@std@@@std@@@std@@@2@XZ
	?begin@?$deque@VStripPtR@@V?$allocator@VStripPtR@@@std@@@std@@QEAA?AV?$_Deque_iterator@V?$_Deque_val@U?$_Deque_simple_types@VStripPtR@@@std@@@std@@@2@XZ
	?begin@?$deque@VStripPtR@@V?$allocator@VStripPtR@@@std@@@std@@QEBA?AV?$_Deque_const_iterator@V?$_Deque_val@U?$_Deque_simple_types@VStripPtR@@@std@@@std@@@2@XZ
	?begin@?$initializer_list@H@std@@QEBAPEBHXZ
	?begin@?$vector@HV?$allocator@H@std@@@std@@QEAA?AV?$_Vector_iterator@V?$_Vector_val@U?$_Simple_types@H@std@@@std@@@2@XZ
	?begin@?$vector@HV?$allocator@H@std@@@std@@QEBA?AV?$_Vector_const_iterator@V?$_Vector_val@U?$_Simple_types@H@std@@@std@@@2@XZ
	?begin@?$vector@PEBVInterPtType@@V?$allocator@PEBVInterPtType@@@std@@@std@@QEAA?AV?$_Vector_iterator@V?$_Vector_val@U?$_Simple_types@PEBVInterPtType@@@std@@@std@@@2@XZ
	?begin@?$vector@U?$pair@VInterPtType@@V1@@std@@V?$allocator@U?$pair@VInterPtType@@V1@@std@@@2@@std@@QEAA?AV?$_Vector_iterator@V?$_Vector_val@U?$_Simple_types@U?$pair@VInterPtType@@V1@@std@@@std@@@std@@@2@XZ
	?begin@?$vector@V?$deque@VStripPtR@@V?$allocator@VStripPtR@@@std@@@std@@V?$allocator@V?$deque@VStripPtR@@V?$allocator@VStripPtR@@@std@@@std@@@2@@std@@QEAA?AV?$_Vector_iterator@V?$_Vector_val@U?$_Simple_types@V?$deque@VStripPtR@@V?$allocator@VStripPtR@@@std@@@std@@@std@@@std@@@2@XZ
	?begin@?$vector@V?$deque@VStripPtR@@V?$allocator@VStripPtR@@@std@@@std@@V?$allocator@V?$deque@VStripPtR@@V?$allocator@VStripPtR@@@std@@@std@@@2@@std@@QEBA?AV?$_Vector_const_iterator@V?$_Vector_val@U?$_Simple_types@V?$deque@VStripPtR@@V?$allocator@VStripPtR@@@std@@@std@@@std@@@std@@@2@XZ
	?begin@?$vector@V?$reference_wrapper@VStripPtR@@@std@@V?$allocator@V?$reference_wrapper@VStripPtR@@@std@@@2@@std@@QEAA?AV?$_Vector_iterator@V?$_Vector_val@U?$_Simple_types@V?$reference_wrapper@VStripPtR@@@std@@@std@@@std@@@2@XZ
	?begin@?$vector@V?$shared_ptr@VLine@@@std@@V?$allocator@V?$shared_ptr@VLine@@@std@@@2@@std@@QEAA?AV?$_Vector_iterator@V?$_Vector_val@U?$_Simple_types@V?$shared_ptr@VLine@@@std@@@std@@@std@@@2@XZ
	?begin@?$vector@V?$shared_ptr@VObj@@@std@@V?$allocator@V?$shared_ptr@VObj@@@std@@@2@@std@@QEAA?AV?$_Vector_iterator@V?$_Vector_val@U?$_Simple_types@V?$shared_ptr@VObj@@@std@@@std@@@std@@@2@XZ
	?begin@?$vector@V?$vector@HV?$allocator@H@std@@@std@@V?$allocator@V?$vector@HV?$allocator@H@std@@@std@@@2@@std@@QEAA?AV?$_Vector_iterator@V?$_Vector_val@U?$_Simple_types@V?$vector@HV?$allocator@H@std@@@std@@@std@@@std@@@2@XZ
	?begin@?$vector@VInterPtType@@V?$allocator@VInterPtType@@@std@@@std@@QEAA?AV?$_Vector_iterator@V?$_Vector_val@U?$_Simple_types@VInterPtType@@@std@@@std@@@2@XZ
	?begin@?$vector@VMergePt@@V?$allocator@VMergePt@@@std@@@std@@QEAA?AV?$_Vector_iterator@V?$_Vector_val@U?$_Simple_types@VMergePt@@@std@@@std@@@2@XZ
	?begin@?$vector@VPair@@V?$allocator@VPair@@@std@@@std@@QEAA?AV?$_Vector_iterator@V?$_Vector_val@U?$_Simple_types@VPair@@@std@@@std@@@2@XZ
	?begin@?$vector@VPair@@V?$allocator@VPair@@@std@@@std@@QEBA?AV?$_Vector_const_iterator@V?$_Vector_val@U?$_Simple_types@VPair@@@std@@@std@@@2@XZ
	?begin@?$vector@VPoint@@V?$allocator@VPoint@@@std@@@std@@QEAA?AV?$_Vector_iterator@V?$_Vector_val@U?$_Simple_types@VPoint@@@std@@@std@@@2@XZ
	?begin@?$vector@VStripPtL2@@V?$allocator@VStripPtL2@@@std@@@std@@QEAA?AV?$_Vector_iterator@V?$_Vector_val@U?$_Simple_types@VStripPtL2@@@std@@@std@@@2@XZ
	?begin@?$vector@VStripPtL3@@V?$allocator@VStripPtL3@@@std@@@std@@QEAA?AV?$_Vector_iterator@V?$_Vector_val@U?$_Simple_types@VStripPtL3@@@std@@@std@@@2@XZ
	?begin@?$vector@VStripPtL@@V?$allocator@VStripPtL@@@std@@@std@@QEAA?AV?$_Vector_iterator@V?$_Vector_val@U?$_Simple_types@VStripPtL@@@std@@@std@@@2@XZ
	?capacity@?$vector@HV?$allocator@H@std@@@std@@QEBA_KXZ
	?capacity@?$vector@PEBVInterPtType@@V?$allocator@PEBVInterPtType@@@std@@@std@@QEBA_KXZ
	?capacity@?$vector@U?$pair@VInterPtType@@V1@@std@@V?$allocator@U?$pair@VInterPtType@@V1@@std@@@2@@std@@QEBA_KXZ
	?capacity@?$vector@V?$deque@VStripPtR@@V?$allocator@VStripPtR@@@std@@@std@@V?$allocator@V?$deque@VStripPtR@@V?$allocator@VStripPtR@@@std@@@std@@@2@@std@@QEBA_KXZ
	?capacity@?$vector@V?$reference_wrapper@VStripPt@@@std@@V?$allocator@V?$reference_wrapper@VStripPt@@@std@@@2@@std@@QEBA_KXZ
	?capacity@?$vector@V?$reference_wrapper@VStripPtR@@@std@@V?$allocator@V?$reference_wrapper@VStripPtR@@@std@@@2@@std@@QEBA_KXZ
	?capacity@?$vector@V?$shared_ptr@VLine@@@std@@V?$allocator@V?$shared_ptr@VLine@@@std@@@2@@std@@QEBA_KXZ
	?capacity@?$vector@V?$shared_ptr@VObj@@@std@@V?$allocator@V?$shared_ptr@VObj@@@std@@@2@@std@@QEBA_KXZ
	?capacity@?$vector@V?$vector@HV?$allocator@H@std@@@std@@V?$allocator@V?$vector@HV?$allocator@H@std@@@std@@@2@@std@@QEBA_KXZ
	?capacity@?$vector@VInterPtType@@V?$allocator@VInterPtType@@@std@@@std@@QEBA_KXZ
	?capacity@?$vector@VMergePt@@V?$allocator@VMergePt@@@std@@@std@@QEBA_KXZ
	?capacity@?$vector@VNode@@V?$allocator@VNode@@@std@@@std@@QEBA_KXZ
	?capacity@?$vector@VPair@@V?$allocator@VPair@@@std@@@std@@QEBA_KXZ
	?capacity@?$vector@VPoint@@V?$allocator@VPoint@@@std@@@std@@QEBA_KXZ
	?capacity@?$vector@VPolyAtEdge@@V?$allocator@VPolyAtEdge@@@std@@@std@@QEBA_KXZ
	?capacity@?$vector@VStripPtL2@@V?$allocator@VStripPtL2@@@std@@@std@@QEBA_KXZ
	?capacity@?$vector@VStripPtL3@@V?$allocator@VStripPtL3@@@std@@@std@@QEBA_KXZ
	?capacity@?$vector@VStripPtL@@V?$allocator@VStripPtL@@@std@@@std@@QEBA_KXZ
	?clear@?$_Tree@V?$_Tmap_traits@HVPStrips@@U?$less@H@std@@V?$allocator@U?$pair@$$CBHVPStrips@@@std@@@3@$0A@@std@@@std@@QEAAXXZ
	?clear@?$_Tree@V?$_Tmap_traits@HVStripPt@@U?$less@H@std@@V?$allocator@U?$pair@$$CBHVStripPt@@@std@@@3@$0A@@std@@@std@@QEAAXXZ
	?clear@?$_Tree@V?$_Tmap_traits@HW4Rel@@U?$less@H@std@@V?$allocator@U?$pair@$$CBHW4Rel@@@std@@@3@$0A@@std@@@std@@QEAAXXZ
	?clear@?$_Tree@V?$_Tset_traits@HU?$less@H@std@@V?$allocator@H@2@$0A@@std@@@std@@QEAAXXZ
	?clear@?$deque@HV?$allocator@H@std@@@std@@QEAAXXZ
	?clear@?$deque@VStripPtR@@V?$allocator@VStripPtR@@@std@@@std@@QEAAXXZ
	?close@?$basic_filebuf@DU?$char_traits@D@std@@@std@@QEAAPEAV12@XZ
	?close@?$basic_ofstream@DU?$char_traits@D@std@@@std@@QEAAXXZ
	?copy@?$_Narrow_char_traits@DH@std@@SAPEADQEADQEBD_K@Z
	?count@?$_Tree@V?$_Tmap_traits@HHU?$less@H@std@@V?$allocator@U?$pair@$$CBHH@std@@@2@$0A@@std@@@std@@QEBA_KAEBH@Z
	?count@?$_Tree@V?$_Tmap_traits@HVStripPt@@U?$less@H@std@@V?$allocator@U?$pair@$$CBHVStripPt@@@std@@@3@$0A@@std@@@std@@QEBA_KAEBH@Z
	?count@?$_Tree@V?$_Tset_traits@HU?$less@H@std@@V?$allocator@H@2@$0A@@std@@@std@@QEBA_KAEBH@Z
	?count@?$_Tree@V?$_Tset_traits@VPair@@U?$less@VPair@@@std@@V?$allocator@VPair@@@3@$0A@@std@@@std@@QEBA_KAEBVPair@@@Z
	?data@?$basic_string@DU?$char_traits@D@std@@V?$allocator@D@2@@std@@QEBAPEBDXZ
	?deallocate@?$_Default_allocator_traits@V?$allocator@U?$_List_node@U?$pair@$$CBVPair@@VSubP@@@std@@PEAX@std@@@std@@@std@@SAXAEAV?$allocator@U?$_List_node@U?$pair@$$CBVPair@@VSubP@@@std@@PEAX@std@@@2@QEAU?$_List_node@U?$pair@$$CBVPair@@VSubP@@@std@@PEAX@2@_K@Z
	?deallocate@?$_Default_allocator_traits@V?$allocator@U?$_List_node@VPair@@PEAX@std@@@std@@@std@@SAXAEAV?$allocator@U?$_List_node@VPair@@PEAX@std@@@2@QEAU?$_List_node@VPair@@PEAX@2@_K@Z
	?deallocate@?$_Default_allocator_traits@V?$allocator@U?$_Tree_node@HPEAX@std@@@std@@@std@@SAXAEAV?$allocator@U?$_Tree_node@HPEAX@std@@@2@QEAU?$_Tree_node@HPEAX@2@_K@Z
	?deallocate@?$_Default_allocator_traits@V?$allocator@U?$_Tree_node@U?$pair@$$CBHH@std@@PEAX@std@@@std@@@std@@SAXAEAV?$allocator@U?$_Tree_node@U?$pair@$$CBHH@std@@PEAX@std@@@2@QEAU?$_Tree_node@U?$pair@$$CBHH@std@@PEAX@2@_K@Z
	?deallocate@?$_Default_allocator_traits@V?$allocator@U?$_Tree_node@U?$pair@$$CBHV?$set@HU?$less@H@std@@V?$allocator@H@2@@std@@@std@@PEAX@std@@@std@@@std@@SAXAEAV?$allocator@U?$_Tree_node@U?$pair@$$CBHV?$set@HU?$less@H@std@@V?$allocator@H@2@@std@@@std@@PEAX@std@@@2@QEAU?$_Tree_node@U?$pair@$$CBHV?$set@HU?$less@H@std@@V?$allocator@H@2@@std@@@std@@PEAX@2@_K@Z
	?deallocate@?$_Default_allocator_traits@V?$allocator@U?$_Tree_node@U?$pair@$$CBHV?$vector@HV?$allocator@H@std@@@std@@@std@@PEAX@std@@@std@@@std@@SAXAEAV?$allocator@U?$_Tree_node@U?$pair@$$CBHV?$vector@HV?$allocator@H@std@@@std@@@std@@PEAX@std@@@2@QEAU?$_Tree_node@U?$pair@$$CBHV?$vector@HV?$allocator@H@std@@@std@@@std@@PEAX@2@_K@Z
	?deallocate@?$_Default_allocator_traits@V?$allocator@U?$_Tree_node@U?$pair@$$CBHV?$vector@V?$reference_wrapper@VStripPtR@@@std@@V?$allocator@V?$reference_wrapper@VStripPtR@@@std@@@2@@std@@@std@@PEAX@std@@@std@@@std@@SAXAEAV?$allocator@U?$_Tree_node@U?$pair@$$CBHV?$vector@V?$reference_wrapper@VStripPtR@@@std@@V?$allocator@V?$reference_wrapper@VStripPtR@@@std@@@2@@std@@@std@@PEAX@std@@@2@QEAU?$_Tree_node@U?$pair@$$CBHV?$vector@V?$reference_wrapper@VStripPtR@@@std@@V?$allocator@V?$reference_wrapper@VStripPtR@@@std@@@2@@std@@@std@@PEAX@2@_K@Z
	?deallocate@?$_Default_allocator_traits@V?$allocator@U?$_Tree_node@U?$pair@$$CBHVPStrips@@@std@@PEAX@std@@@std@@@std@@SAXAEAV?$allocator@U?$_Tree_node@U?$pair@$$CBHVPStrips@@@std@@PEAX@std@@@2@QEAU?$_Tree_node@U?$pair@$$CBHVPStrips@@@std@@PEAX@2@_K@Z
	?deallocate@?$_Default_allocator_traits@V?$allocator@U?$_Tree_node@U?$pair@$$CBHVStripPt@@@std@@PEAX@std@@@std@@@std@@SAXAEAV?$allocator@U?$_Tree_node@U?$pair@$$CBHVStripPt@@@std@@PEAX@std@@@2@QEAU?$_Tree_node@U?$pair@$$CBHVStripPt@@@std@@PEAX@2@_K@Z
	?deallocate@?$_Default_allocator_traits@V?$allocator@U?$_Tree_node@U?$pair@$$CBHW4Rel@@@std@@PEAX@std@@@std@@@std@@SAXAEAV?$allocator@U?$_Tree_node@U?$pair@$$CBHW4Rel@@@std@@PEAX@std@@@2@QEAU?$_Tree_node@U?$pair@$$CBHW4Rel@@@std@@PEAX@2@_K@Z
	?deallocate@?$_Default_allocator_traits@V?$allocator@U?$_Tree_node@U?$pair@$$CBVPair@@V?$map@HHU?$less@H@std@@V?$allocator@U?$pair@$$CBHH@std@@@2@@std@@@std@@PEAX@std@@@std@@@std@@SAXAEAV?$allocator@U?$_Tree_node@U?$pair@$$CBVPair@@V?$map@HHU?$less@H@std@@V?$allocator@U?$pair@$$CBHH@std@@@2@@std@@@std@@PEAX@std@@@2@QEAU?$_Tree_node@U?$pair@$$CBVPair@@V?$map@HHU?$less@H@std@@V?$allocator@U?$pair@$$CBHH@std@@@2@@std@@@std@@PEAX@2@_K@Z
	?deallocate@?$_Default_allocator_traits@V?$allocator@U?$_Tree_node@V?$reference_wrapper@VStripPt@@@std@@PEAX@std@@@std@@@std@@SAXAEAV?$allocator@U?$_Tree_node@V?$reference_wrapper@VStripPt@@@std@@PEAX@std@@@2@QEAU?$_Tree_node@V?$reference_wrapper@VStripPt@@@std@@PEAX@2@_K@Z
	?deallocate@?$_Default_allocator_traits@V?$allocator@U?$_Tree_node@VPair@@PEAX@std@@@std@@@std@@SAXAEAV?$allocator@U?$_Tree_node@VPair@@PEAX@std@@@2@QEAU?$_Tree_node@VPair@@PEAX@2@_K@Z
	?deallocate@?$_Default_allocator_traits@V?$allocator@U?$_Tree_node@VStripPtL3@@PEAX@std@@@std@@@std@@SAXAEAV?$allocator@U?$_Tree_node@VStripPtL3@@PEAX@std@@@2@QEAU?$_Tree_node@VStripPtL3@@PEAX@2@_K@Z
	?deallocate@?$_Default_allocator_traits@V?$allocator@U?$_Tree_node@VStripPtL@@PEAX@std@@@std@@@std@@SAXAEAV?$allocator@U?$_Tree_node@VStripPtL@@PEAX@std@@@2@QEAU?$_Tree_node@VStripPtL@@PEAX@2@_K@Z
	?deallocate@?$_Default_allocator_traits@V?$allocator@U_Container_proxy@std@@@std@@@std@@SAXAEAV?$allocator@U_Container_proxy@std@@@2@QEAU_Container_proxy@2@_K@Z
	?deallocate@?$allocator@D@std@@QEAAXQEAD_K@Z
	?deallocate@?$allocator@H@std@@QEAAXQEAH_K@Z
	?deallocate@?$allocator@PEAH@std@@QEAAXQEAPEAH_K@Z
	?deallocate@?$allocator@PEAV?$vector@HV?$allocator@H@std@@@std@@@std@@QEAAXQEAPEAV?$vector@HV?$allocator@H@std@@@2@_K@Z
	?deallocate@?$allocator@PEAVPair@@@std@@QEAAXQEAPEAVPair@@_K@Z
	?deallocate@?$allocator@PEAVStripPtR@@@std@@QEAAXQEAPEAVStripPtR@@_K@Z
	?deallocate@?$allocator@PEBVInterPtType@@@std@@QEAAXQEAPEBVInterPtType@@_K@Z
	?deallocate@?$allocator@U?$_Tree_node@HPEAX@std@@@std@@QEAAXQEAU?$_Tree_node@HPEAX@2@_K@Z
	?deallocate@?$allocator@U?$_Tree_node@U?$pair@$$CBHH@std@@PEAX@std@@@std@@QEAAXQEAU?$_Tree_node@U?$pair@$$CBHH@std@@PEAX@2@_K@Z
	?deallocate@?$allocator@U?$_Tree_node@U?$pair@$$CBHV?$set@HU?$less@H@std@@V?$allocator@H@2@@std@@@std@@PEAX@std@@@std@@QEAAXQEAU?$_Tree_node@U?$pair@$$CBHV?$set@HU?$less@H@std@@V?$allocator@H@2@@std@@@std@@PEAX@2@_K@Z
	?deallocate@?$allocator@U?$_Tree_node@U?$pair@$$CBHV?$vector@HV?$allocator@H@std@@@std@@@std@@PEAX@std@@@std@@QEAAXQEAU?$_Tree_node@U?$pair@$$CBHV?$vector@HV?$allocator@H@std@@@std@@@std@@PEAX@2@_K@Z
	?deallocate@?$allocator@U?$_Tree_node@U?$pair@$$CBHV?$vector@V?$reference_wrapper@VStripPtR@@@std@@V?$allocator@V?$reference_wrapper@VStripPtR@@@std@@@2@@std@@@std@@PEAX@std@@@std@@QEAAXQEAU?$_Tree_node@U?$pair@$$CBHV?$vector@V?$reference_wrapper@VStripPtR@@@std@@V?$allocator@V?$reference_wrapper@VStripPtR@@@std@@@2@@std@@@std@@PEAX@2@_K@Z
	?deallocate@?$allocator@U?$_Tree_node@U?$pair@$$CBHVPStrips@@@std@@PEAX@std@@@std@@QEAAXQEAU?$_Tree_node@U?$pair@$$CBHVPStrips@@@std@@PEAX@2@_K@Z
	?deallocate@?$allocator@U?$_Tree_node@U?$pair@$$CBHVStripPt@@@std@@PEAX@std@@@std@@QEAAXQEAU?$_Tree_node@U?$pair@$$CBHVStripPt@@@std@@PEAX@2@_K@Z
	?deallocate@?$allocator@U?$_Tree_node@U?$pair@$$CBHW4Rel@@@std@@PEAX@std@@@std@@QEAAXQEAU?$_Tree_node@U?$pair@$$CBHW4Rel@@@std@@PEAX@2@_K@Z
	?deallocate@?$allocator@U?$_Tree_node@U?$pair@$$CBVPair@@V?$map@HHU?$less@H@std@@V?$allocator@U?$pair@$$CBHH@std@@@2@@std@@@std@@PEAX@std@@@std@@QEAAXQEAU?$_Tree_node@U?$pair@$$CBVPair@@V?$map@HHU?$less@H@std@@V?$allocator@U?$pair@$$CBHH@std@@@2@@std@@@std@@PEAX@2@_K@Z
	?deallocate@?$allocator@U?$_Tree_node@V?$reference_wrapper@VStripPt@@@std@@PEAX@std@@@std@@QEAAXQEAU?$_Tree_node@V?$reference_wrapper@VStripPt@@@std@@PEAX@2@_K@Z
	?deallocate@?$allocator@U?$_Tree_node@VPair@@PEAX@std@@@std@@QEAAXQEAU?$_Tree_node@VPair@@PEAX@2@_K@Z
	?deallocate@?$allocator@U?$_Tree_node@VStripPtL3@@PEAX@std@@@std@@QEAAXQEAU?$_Tree_node@VStripPtL3@@PEAX@2@_K@Z
	?deallocate@?$allocator@U?$_Tree_node@VStripPtL@@PEAX@std@@@std@@QEAAXQEAU?$_Tree_node@VStripPtL@@PEAX@2@_K@Z
	?deallocate@?$allocator@U?$pair@VInterPtType@@V1@@std@@@std@@QEAAXQEAU?$pair@VInterPtType@@V1@@2@_K@Z
	?deallocate@?$allocator@V?$_List_unchecked_const_iterator@V?$_List_val@U?$_List_simple_types@VPair@@@std@@@std@@U_Iterator_base0@2@@std@@@std@@QEAAXQEAV?$_List_unchecked_const_iterator@V?$_List_val@U?$_List_simple_types@VPair@@@std@@@std@@U_Iterator_base0@2@@2@_K@Z
	?deallocate@?$allocator@V?$_List_unchecked_iterator@V?$_List_val@U?$_List_simple_types@U?$pair@$$CBVPair@@VSubP@@@std@@@std@@@std@@@std@@@std@@QEAAXQEAV?$_List_unchecked_iterator@V?$_List_val@U?$_List_simple_types@U?$pair@$$CBVPair@@VSubP@@@std@@@std@@@std@@@2@_K@Z
	?deallocate@?$allocator@V?$deque@VStripPtR@@V?$allocator@VStripPtR@@@std@@@std@@@std@@QEAAXQEAV?$deque@VStripPtR@@V?$allocator@VStripPtR@@@std@@@2@_K@Z
	?deallocate@?$allocator@V?$reference_wrapper@VStripPt@@@std@@@std@@QEAAXQEAV?$reference_wrapper@VStripPt@@@2@_K@Z
	?deallocate@?$allocator@V?$reference_wrapper@VStripPtR@@@std@@@std@@QEAAXQEAV?$reference_wrapper@VStripPtR@@@2@_K@Z
	?deallocate@?$allocator@V?$shared_ptr@VLine@@@std@@@std@@QEAAXQEAV?$shared_ptr@VLine@@@2@_K@Z
	?deallocate@?$allocator@V?$shared_ptr@VObj@@@std@@@std@@QEAAXQEAV?$shared_ptr@VObj@@@2@_K@Z
	?deallocate@?$allocator@V?$vector@HV?$allocator@H@std@@@std@@@std@@QEAAXQEAV?$vector@HV?$allocator@H@std@@@2@_K@Z
	?deallocate@?$allocator@V?$vector@VPoint@@V?$allocator@VPoint@@@std@@@std@@@std@@QEAAXQEAV?$vector@VPoint@@V?$allocator@VPoint@@@std@@@2@_K@Z
	?deallocate@?$allocator@VInterPtType@@@std@@QEAAXQEAVInterPtType@@_K@Z
	?deallocate@?$allocator@VMergePt@@@std@@QEAAXQEAVMergePt@@_K@Z
	?deallocate@?$allocator@VNode@@@std@@QEAAXQEAVNode@@_K@Z
	?deallocate@?$allocator@VPair@@@std@@QEAAXQEAVPair@@_K@Z
	?deallocate@?$allocator@VPoint@@@std@@QEAAXQEAVPoint@@_K@Z
	?deallocate@?$allocator@VPolyAtEdge@@@std@@QEAAXQEAVPolyAtEdge@@_K@Z
	?deallocate@?$allocator@VStripPtL2@@@std@@QEAAXQEAVStripPtL2@@_K@Z
	?deallocate@?$allocator@VStripPtL3@@@std@@QEAAXQEAVStripPtL3@@_K@Z
	?deallocate@?$allocator@VStripPtL@@@std@@QEAAXQEAVStripPtL@@_K@Z
	?deallocate@?$allocator@VStripPtR@@@std@@QEAAXQEAVStripPtR@@_K@Z
	?deallocate@?$allocator@VVert6@@@std@@QEAAXQEAVVert6@@_K@Z
	?empty@?$_Tree@V?$_Tmap_traits@HW4Rel@@U?$less@H@std@@V?$allocator@U?$pair@$$CBHW4Rel@@@std@@@3@$0A@@std@@@std@@QEBA_NXZ
	?empty@?$deque@HV?$allocator@H@std@@@std@@QEBA_NXZ
	?empty@?$deque@V?$vector@HV?$allocator@H@std@@@std@@V?$allocator@V?$vector@HV?$allocator@H@std@@@std@@@2@@std@@QEBA_NXZ
	?empty@?$deque@VPair@@V?$allocator@VPair@@@std@@@std@@QEBA_NXZ
	?empty@?$deque@VStripPtR@@V?$allocator@VStripPtR@@@std@@@std@@QEBA_NXZ
	?empty@?$vector@V?$vector@HV?$allocator@H@std@@@std@@V?$allocator@V?$vector@HV?$allocator@H@std@@@std@@@2@@std@@QEBA_NXZ
	?end@?$_Tree@V?$_Tmap_traits@HHU?$less@H@std@@V?$allocator@U?$pair@$$CBHH@std@@@2@$0A@@std@@@std@@QEAA?AV?$_Tree_iterator@V?$_Tree_val@U?$_Tree_simple_types@U?$pair@$$CBHH@std@@@std@@@std@@@2@XZ
	?end@?$_Tree@V?$_Tmap_traits@HV?$set@HU?$less@H@std@@V?$allocator@H@2@@std@@U?$less@H@2@V?$allocator@U?$pair@$$CBHV?$set@HU?$less@H@std@@V?$allocator@H@2@@std@@@std@@@2@$0A@@std@@@std@@QEAA?AV?$_Tree_iterator@V?$_Tree_val@U?$_Tree_simple_types@U?$pair@$$CBHV?$set@HU?$less@H@std@@V?$allocator@H@2@@std@@@std@@@std@@@std@@@2@XZ
	?end@?$_Tree@V?$_Tmap_traits@HV?$vector@HV?$allocator@H@std@@@std@@U?$less@H@2@V?$allocator@U?$pair@$$CBHV?$vector@HV?$allocator@H@std@@@std@@@std@@@2@$0A@@std@@@std@@QEAA?AV?$_Tree_iterator@V?$_Tree_val@U?$_Tree_simple_types@U?$pair@$$CBHV?$vector@HV?$allocator@H@std@@@std@@@std@@@std@@@std@@@2@XZ
	?end@?$_Tree@V?$_Tmap_traits@HV?$vector@V?$reference_wrapper@VStripPtR@@@std@@V?$allocator@V?$reference_wrapper@VStripPtR@@@std@@@2@@std@@U?$less@H@2@V?$allocator@U?$pair@$$CBHV?$vector@V?$reference_wrapper@VStripPtR@@@std@@V?$allocator@V?$reference_wrapper@VStripPtR@@@std@@@2@@std@@@std@@@2@$0A@@std@@@std@@QEAA?AV?$_Tree_iterator@V?$_Tree_val@U?$_Tree_simple_types@U?$pair@$$CBHV?$vector@V?$reference_wrapper@VStripPtR@@@std@@V?$allocator@V?$reference_wrapper@VStripPtR@@@std@@@2@@std@@@std@@@std@@@std@@@2@XZ
	?end@?$_Tree@V?$_Tmap_traits@HVPStrips@@U?$less@H@std@@V?$allocator@U?$pair@$$CBHVPStrips@@@std@@@3@$0A@@std@@@std@@QEAA?AV?$_Tree_iterator@V?$_Tree_val@U?$_Tree_simple_types@U?$pair@$$CBHVPStrips@@@std@@@std@@@std@@@2@XZ
	?end@?$_Tree@V?$_Tmap_traits@HVStripPt@@U?$less@H@std@@V?$allocator@U?$pair@$$CBHVStripPt@@@std@@@3@$0A@@std@@@std@@QEAA?AV?$_Tree_iterator@V?$_Tree_val@U?$_Tree_simple_types@U?$pair@$$CBHVStripPt@@@std@@@std@@@std@@@2@XZ
	?end@?$_Tree@V?$_Tmap_traits@HW4Rel@@U?$less@H@std@@V?$allocator@U?$pair@$$CBHW4Rel@@@std@@@3@$0A@@std@@@std@@QEAA?AV?$_Tree_iterator@V?$_Tree_val@U?$_Tree_simple_types@U?$pair@$$CBHW4Rel@@@std@@@std@@@std@@@2@XZ
	?end@?$_Tree@V?$_Tmap_traits@VPair@@V?$map@HHU?$less@H@std@@V?$allocator@U?$pair@$$CBHH@std@@@2@@std@@U?$less@VPair@@@3@V?$allocator@U?$pair@$$CBVPair@@V?$map@HHU?$less@H@std@@V?$allocator@U?$pair@$$CBHH@std@@@2@@std@@@std@@@3@$0A@@std@@@std@@QEAA?AV?$_Tree_iterator@V?$_Tree_val@U?$_Tree_simple_types@U?$pair@$$CBVPair@@V?$map@HHU?$less@H@std@@V?$allocator@U?$pair@$$CBHH@std@@@2@@std@@@std@@@std@@@std@@@2@XZ
	?end@?$_Tree@V?$_Tset_traits@HU?$less@H@std@@V?$allocator@H@2@$0A@@std@@@std@@QEAA?AV?$_Tree_const_iterator@V?$_Tree_val@U?$_Tree_simple_types@H@std@@@std@@@2@XZ
	?end@?$_Tree@V?$_Tset_traits@VStripPtL@@U?$less@VStripPtL@@@std@@V?$allocator@VStripPtL@@@3@$0A@@std@@@std@@QEAA?AV?$_Tree_const_iterator@V?$_Tree_val@U?$_Tree_simple_types@VStripPtL@@@std@@@std@@@2@XZ
	?end@?$deque@HV?$allocator@H@std@@@std@@QEAA?AV?$_Deque_iterator@V?$_Deque_val@U?$_Deque_simple_types@H@std@@@std@@@2@XZ
	?end@?$deque@V?$vector@HV?$allocator@H@std@@@std@@V?$allocator@V?$vector@HV?$allocator@H@std@@@std@@@2@@std@@QEAA?AV?$_Deque_iterator@V?$_Deque_val@U?$_Deque_simple_types@V?$vector@HV?$allocator@H@std@@@std@@@std@@@std@@@2@XZ
	?end@?$deque@VStripPtR@@V?$allocator@VStripPtR@@@std@@@std@@QEAA?AV?$_Deque_iterator@V?$_Deque_val@U?$_Deque_simple_types@VStripPtR@@@std@@@std@@@2@XZ
	?end@?$deque@VStripPtR@@V?$allocator@VStripPtR@@@std@@@std@@QEBA?AV?$_Deque_const_iterator@V?$_Deque_val@U?$_Deque_simple_types@VStripPtR@@@std@@@std@@@2@XZ
	?end@?$initializer_list@H@std@@QEBAPEBHXZ
	?end@?$vector@HV?$allocator@H@std@@@std@@QEAA?AV?$_Vector_iterator@V?$_Vector_val@U?$_Simple_types@H@std@@@std@@@2@XZ
	?end@?$vector@HV?$allocator@H@std@@@std@@QEBA?AV?$_Vector_const_iterator@V?$_Vector_val@U?$_Simple_types@H@std@@@std@@@2@XZ
	?end@?$vector@PEBVInterPtType@@V?$allocator@PEBVInterPtType@@@std@@@std@@QEAA?AV?$_Vector_iterator@V?$_Vector_val@U?$_Simple_types@PEBVInterPtType@@@std@@@std@@@2@XZ
	?end@?$vector@U?$pair@VInterPtType@@V1@@std@@V?$allocator@U?$pair@VInterPtType@@V1@@std@@@2@@std@@QEAA?AV?$_Vector_iterator@V?$_Vector_val@U?$_Simple_types@U?$pair@VInterPtType@@V1@@std@@@std@@@std@@@2@XZ
	?end@?$vector@V?$deque@VStripPtR@@V?$allocator@VStripPtR@@@std@@@std@@V?$allocator@V?$deque@VStripPtR@@V?$allocator@VStripPtR@@@std@@@std@@@2@@std@@QEAA?AV?$_Vector_iterator@V?$_Vector_val@U?$_Simple_types@V?$deque@VStripPtR@@V?$allocator@VStripPtR@@@std@@@std@@@std@@@std@@@2@XZ
	?end@?$vector@V?$deque@VStripPtR@@V?$allocator@VStripPtR@@@std@@@std@@V?$allocator@V?$deque@VStripPtR@@V?$allocator@VStripPtR@@@std@@@std@@@2@@std@@QEBA?AV?$_Vector_const_iterator@V?$_Vector_val@U?$_Simple_types@V?$deque@VStripPtR@@V?$allocator@VStripPtR@@@std@@@std@@@std@@@std@@@2@XZ
	?end@?$vector@V?$reference_wrapper@VStripPtR@@@std@@V?$allocator@V?$reference_wrapper@VStripPtR@@@std@@@2@@std@@QEAA?AV?$_Vector_iterator@V?$_Vector_val@U?$_Simple_types@V?$reference_wrapper@VStripPtR@@@std@@@std@@@std@@@2@XZ
	?end@?$vector@V?$shared_ptr@VLine@@@std@@V?$allocator@V?$shared_ptr@VLine@@@std@@@2@@std@@QEAA?AV?$_Vector_iterator@V?$_Vector_val@U?$_Simple_types@V?$shared_ptr@VLine@@@std@@@std@@@std@@@2@XZ
	?end@?$vector@V?$shared_ptr@VObj@@@std@@V?$allocator@V?$shared_ptr@VObj@@@std@@@2@@std@@QEAA?AV?$_Vector_iterator@V?$_Vector_val@U?$_Simple_types@V?$shared_ptr@VObj@@@std@@@std@@@std@@@2@XZ
	?end@?$vector@V?$vector@HV?$allocator@H@std@@@std@@V?$allocator@V?$vector@HV?$allocator@H@std@@@std@@@2@@std@@QEAA?AV?$_Vector_iterator@V?$_Vector_val@U?$_Simple_types@V?$vector@HV?$allocator@H@std@@@std@@@std@@@std@@@2@XZ
	?end@?$vector@VInterPtType@@V?$allocator@VInterPtType@@@std@@@std@@QEAA?AV?$_Vector_iterator@V?$_Vector_val@U?$_Simple_types@VInterPtType@@@std@@@std@@@2@XZ
	?end@?$vector@VMergePt@@V?$allocator@VMergePt@@@std@@@std@@QEAA?AV?$_Vector_iterator@V?$_Vector_val@U?$_Simple_types@VMergePt@@@std@@@std@@@2@XZ
	?end@?$vector@VPair@@V?$allocator@VPair@@@std@@@std@@QEAA?AV?$_Vector_iterator@V?$_Vector_val@U?$_Simple_types@VPair@@@std@@@std@@@2@XZ
	?end@?$vector@VPair@@V?$allocator@VPair@@@std@@@std@@QEBA?AV?$_Vector_const_iterator@V?$_Vector_val@U?$_Simple_types@VPair@@@std@@@std@@@2@XZ
	?end@?$vector@VPoint@@V?$allocator@VPoint@@@std@@@std@@QEAA?AV?$_Vector_iterator@V?$_Vector_val@U?$_Simple_types@VPoint@@@std@@@std@@@2@XZ
	?end@?$vector@VStripPtL2@@V?$allocator@VStripPtL2@@@std@@@std@@QEAA?AV?$_Vector_iterator@V?$_Vector_val@U?$_Simple_types@VStripPtL2@@@std@@@std@@@2@XZ
	?end@?$vector@VStripPtL3@@V?$allocator@VStripPtL3@@@std@@@std@@QEAA?AV?$_Vector_iterator@V?$_Vector_val@U?$_Simple_types@VStripPtL3@@@std@@@std@@@2@XZ
	?end@?$vector@VStripPtL@@V?$allocator@VStripPtL@@@std@@@std@@QEAA?AV?$_Vector_iterator@V?$_Vector_val@U?$_Simple_types@VStripPtL@@@std@@@std@@@2@XZ
	?eof@?$_Narrow_char_traits@DH@std@@SAHXZ
	?eq_int_type@?$_Narrow_char_traits@DH@std@@SA_NAEBH0@Z
	?erase@?$_Tree@V?$_Tmap_traits@HVStripPt@@U?$less@H@std@@V?$allocator@U?$pair@$$CBHVStripPt@@@std@@@3@$0A@@std@@@std@@QEAA_KAEBH@Z
	?erase@?$basic_string@DU?$char_traits@D@std@@V?$allocator@D@2@@std@@QEAAAEAV12@_K_K@Z
	?erase@?$deque@HV?$allocator@H@std@@@std@@QEAA?AV?$_Deque_iterator@V?$_Deque_val@U?$_Deque_simple_types@H@std@@@std@@@2@V?$_Deque_const_iterator@V?$_Deque_val@U?$_Deque_simple_types@H@std@@@std@@@2@0@Z
	?erase@?$deque@HV?$allocator@H@std@@@std@@QEAA?AV?$_Deque_iterator@V?$_Deque_val@U?$_Deque_simple_types@H@std@@@std@@@2@V?$_Deque_const_iterator@V?$_Deque_val@U?$_Deque_simple_types@H@std@@@std@@@2@@Z
	?erase@?$vector@V?$deque@VStripPtR@@V?$allocator@VStripPtR@@@std@@@std@@V?$allocator@V?$deque@VStripPtR@@V?$allocator@VStripPtR@@@std@@@std@@@2@@std@@QEAA?AV?$_Vector_iterator@V?$_Vector_val@U?$_Simple_types@V?$deque@VStripPtR@@V?$allocator@VStripPtR@@@std@@@std@@@std@@@std@@@2@V?$_Vector_const_iterator@V?$_Vector_val@U?$_Simple_types@V?$deque@VStripPtR@@V?$allocator@VStripPtR@@@std@@@std@@@std@@@std@@@2@0@Z
	?erase@?$vector@VPair@@V?$allocator@VPair@@@std@@@std@@QEAA?AV?$_Vector_iterator@V?$_Vector_val@U?$_Simple_types@VPair@@@std@@@std@@@2@V?$_Vector_const_iterator@V?$_Vector_val@U?$_Simple_types@VPair@@@std@@@std@@@2@@Z
	?front@?$basic_string@DU?$char_traits@D@std@@V?$allocator@D@2@@std@@QEAAAEADXZ
	?front@?$deque@HV?$allocator@H@std@@@std@@QEAAAEAHXZ
	?front@?$deque@V?$vector@HV?$allocator@H@std@@@std@@V?$allocator@V?$vector@HV?$allocator@H@std@@@std@@@2@@std@@QEAAAEAV?$vector@HV?$allocator@H@std@@@2@XZ
	?front@?$deque@VStripPtR@@V?$allocator@VStripPtR@@@std@@@std@@QEAAAEAVStripPtR@@XZ
	?front@?$deque@VStripPtR@@V?$allocator@VStripPtR@@@std@@@std@@QEBAAEBVStripPtR@@XZ
	?front@?$vector@V?$reference_wrapper@VStripPtR@@@std@@V?$allocator@V?$reference_wrapper@VStripPtR@@@std@@@2@@std@@QEAAAEAV?$reference_wrapper@VStripPtR@@@2@XZ
	?front@?$vector@VStripPtL3@@V?$allocator@VStripPtL3@@@std@@@std@@QEAAAEAVStripPtL3@@XZ
	?get@?$_Ptr_base@VBB@@@std@@IEBAPEAVBB@@XZ
	?get@?$_Ptr_base@VD@@@std@@IEBAPEAVD@@XZ
	?get@?$_Ptr_base@VLine@@@std@@IEBAPEAVLine@@XZ
	?get@?$_Ptr_base@VObj@@@std@@IEBAPEAVObj@@XZ
	?imbue@?$basic_filebuf@DU?$char_traits@D@std@@@std@@MEAAXAEBVlocale@2@@Z
	?insert@?$vector@VInterPtType@@V?$allocator@VInterPtType@@@std@@@std@@QEAA?AV?$_Vector_iterator@V?$_Vector_val@U?$_Simple_types@VInterPtType@@@std@@@std@@@2@V?$_Vector_const_iterator@V?$_Vector_val@U?$_Simple_types@VInterPtType@@@std@@@std@@@2@AEBVInterPtType@@@Z
	?key_comp@?$_Tree@V?$_Tmap_traits@HVStripPt@@U?$less@H@std@@V?$allocator@U?$pair@$$CBHVStripPt@@@std@@@3@$0A@@std@@@std@@QEBA?AU?$less@H@2@XZ
	?length@?$_Narrow_char_traits@DH@std@@SA_KQEBD@Z
	?max@?$numeric_limits@_J@std@@SA_JXZ
	?max_size@?$_Default_allocator_traits@V?$allocator@D@std@@@std@@SA_KAEBV?$allocator@D@2@@Z
	?max_size@?$_Default_allocator_traits@V?$allocator@H@std@@@std@@SA_KAEBV?$allocator@H@2@@Z
	?max_size@?$_Default_allocator_traits@V?$allocator@PEBVInterPtType@@@std@@@std@@SA_KAEBV?$allocator@PEBVInterPtType@@@2@@Z
	?max_size@?$_Default_allocator_traits@V?$allocator@U?$_Tree_node@HPEAX@std@@@std@@@std@@SA_KAEBV?$allocator@U?$_Tree_node@HPEAX@std@@@2@@Z
	?max_size@?$_Default_allocator_traits@V?$allocator@U?$_Tree_node@U?$pair@$$CBHH@std@@PEAX@std@@@std@@@std@@SA_KAEBV?$allocator@U?$_Tree_node@U?$pair@$$CBHH@std@@PEAX@std@@@2@@Z
	?max_size@?$_Default_allocator_traits@V?$allocator@U?$_Tree_node@U?$pair@$$CBHV?$set@HU?$less@H@std@@V?$allocator@H@2@@std@@@std@@PEAX@std@@@std@@@std@@SA_KAEBV?$allocator@U?$_Tree_node@U?$pair@$$CBHV?$set@HU?$less@H@std@@V?$allocator@H@2@@std@@@std@@PEAX@std@@@2@@Z
	?max_size@?$_Default_allocator_traits@V?$allocator@U?$_Tree_node@U?$pair@$$CBHV?$vector@HV?$allocator@H@std@@@std@@@std@@PEAX@std@@@std@@@std@@SA_KAEBV?$allocator@U?$_Tree_node@U?$pair@$$CBHV?$vector@HV?$allocator@H@std@@@std@@@std@@PEAX@std@@@2@@Z
	?max_size@?$_Default_allocator_traits@V?$allocator@U?$_Tree_node@U?$pair@$$CBHV?$vector@V?$reference_wrapper@VStripPtR@@@std@@V?$allocator@V?$reference_wrapper@VStripPtR@@@std@@@2@@std@@@std@@PEAX@std@@@std@@@std@@SA_KAEBV?$allocator@U?$_Tree_node@U?$pair@$$CBHV?$vector@V?$reference_wrapper@VStripPtR@@@std@@V?$allocator@V?$reference_wrapper@VStripPtR@@@std@@@2@@std@@@std@@PEAX@std@@@2@@Z
	?max_size@?$_Default_allocator_traits@V?$allocator@U?$_Tree_node@U?$pair@$$CBHVPStrips@@@std@@PEAX@std@@@std@@@std@@SA_KAEBV?$allocator@U?$_Tree_node@U?$pair@$$CBHVPStrips@@@std@@PEAX@std@@@2@@Z
	?max_size@?$_Default_allocator_traits@V?$allocator@U?$_Tree_node@U?$pair@$$CBHVStripPt@@@std@@PEAX@std@@@std@@@std@@SA_KAEBV?$allocator@U?$_Tree_node@U?$pair@$$CBHVStripPt@@@std@@PEAX@std@@@2@@Z
	?max_size@?$_Default_allocator_traits@V?$allocator@U?$_Tree_node@U?$pair@$$CBHW4Rel@@@std@@PEAX@std@@@std@@@std@@SA_KAEBV?$allocator@U?$_Tree_node@U?$pair@$$CBHW4Rel@@@std@@PEAX@std@@@2@@Z
	?max_size@?$_Default_allocator_traits@V?$allocator@U?$_Tree_node@U?$pair@$$CBVPair@@V?$map@HHU?$less@H@std@@V?$allocator@U?$pair@$$CBHH@std@@@2@@std@@@std@@PEAX@std@@@std@@@std@@SA_KAEBV?$allocator@U?$_Tree_node@U?$pair@$$CBVPair@@V?$map@HHU?$less@H@std@@V?$allocator@U?$pair@$$CBHH@std@@@2@@std@@@std@@PEAX@std@@@2@@Z
	?max_size@?$_Default_allocator_traits@V?$allocator@U?$_Tree_node@V?$reference_wrapper@VStripPt@@@std@@PEAX@std@@@std@@@std@@SA_KAEBV?$allocator@U?$_Tree_node@V?$reference_wrapper@VStripPt@@@std@@PEAX@std@@@2@@Z
	?max_size@?$_Default_allocator_traits@V?$allocator@U?$_Tree_node@VPair@@PEAX@std@@@std@@@std@@SA_KAEBV?$allocator@U?$_Tree_node@VPair@@PEAX@std@@@2@@Z
	?max_size@?$_Default_allocator_traits@V?$allocator@U?$_Tree_node@VStripPtL3@@PEAX@std@@@std@@@std@@SA_KAEBV?$allocator@U?$_Tree_node@VStripPtL3@@PEAX@std@@@2@@Z
	?max_size@?$_Default_allocator_traits@V?$allocator@U?$_Tree_node@VStripPtL@@PEAX@std@@@std@@@std@@SA_KAEBV?$allocator@U?$_Tree_node@VStripPtL@@PEAX@std@@@2@@Z
	?max_size@?$_Default_allocator_traits@V?$allocator@U?$pair@VInterPtType@@V1@@std@@@std@@@std@@SA_KAEBV?$allocator@U?$pair@VInterPtType@@V1@@std@@@2@@Z
	?max_size@?$_Default_allocator_traits@V?$allocator@V?$deque@VStripPtR@@V?$allocator@VStripPtR@@@std@@@std@@@std@@@std@@SA_KAEBV?$allocator@V?$deque@VStripPtR@@V?$allocator@VStripPtR@@@std@@@std@@@2@@Z
	?max_size@?$_Default_allocator_traits@V?$allocator@V?$reference_wrapper@VStripPt@@@std@@@std@@@std@@SA_KAEBV?$allocator@V?$reference_wrapper@VStripPt@@@std@@@2@@Z
	?max_size@?$_Default_allocator_traits@V?$allocator@V?$reference_wrapper@VStripPtR@@@std@@@std@@@std@@SA_KAEBV?$allocator@V?$reference_wrapper@VStripPtR@@@std@@@2@@Z
	?max_size@?$_Default_allocator_traits@V?$allocator@V?$shared_ptr@VLine@@@std@@@std@@@std@@SA_KAEBV?$allocator@V?$shared_ptr@VLine@@@std@@@2@@Z
	?max_size@?$_Default_allocator_traits@V?$allocator@V?$shared_ptr@VObj@@@std@@@std@@@std@@SA_KAEBV?$allocator@V?$shared_ptr@VObj@@@std@@@2@@Z
	?max_size@?$_Default_allocator_traits@V?$allocator@V?$vector@HV?$allocator@H@std@@@std@@@std@@@std@@SA_KAEBV?$allocator@V?$vector@HV?$allocator@H@std@@@std@@@2@@Z
	?max_size@?$_Default_allocator_traits@V?$allocator@VInterPtType@@@std@@@std@@SA_KAEBV?$allocator@VInterPtType@@@2@@Z
	?max_size@?$_Default_allocator_traits@V?$allocator@VMergePt@@@std@@@std@@SA_KAEBV?$allocator@VMergePt@@@2@@Z
	?max_size@?$_Default_allocator_traits@V?$allocator@VNode@@@std@@@std@@SA_KAEBV?$allocator@VNode@@@2@@Z
	?max_size@?$_Default_allocator_traits@V?$allocator@VPair@@@std@@@std@@SA_KAEBV?$allocator@VPair@@@2@@Z
	?max_size@?$_Default_allocator_traits@V?$allocator@VPoint@@@std@@@std@@SA_KAEBV?$allocator@VPoint@@@2@@Z
	?max_size@?$_Default_allocator_traits@V?$allocator@VPolyAtEdge@@@std@@@std@@SA_KAEBV?$allocator@VPolyAtEdge@@@2@@Z
	?max_size@?$_Default_allocator_traits@V?$allocator@VStripPtL2@@@std@@@std@@SA_KAEBV?$allocator@VStripPtL2@@@2@@Z
	?max_size@?$_Default_allocator_traits@V?$allocator@VStripPtL3@@@std@@@std@@SA_KAEBV?$allocator@VStripPtL3@@@2@@Z
	?max_size@?$_Default_allocator_traits@V?$allocator@VStripPtL@@@std@@@std@@SA_KAEBV?$allocator@VStripPtL@@@2@@Z
	?max_size@?$_Default_allocator_traits@V?$allocator@VStripPtR@@@std@@@std@@SA_KAEBV?$allocator@VStripPtR@@@2@@Z
	?max_size@?$_Tree@V?$_Tmap_traits@HHU?$less@H@std@@V?$allocator@U?$pair@$$CBHH@std@@@2@$0A@@std@@@std@@QEBA_KXZ
	?max_size@?$_Tree@V?$_Tmap_traits@HV?$set@HU?$less@H@std@@V?$allocator@H@2@@std@@U?$less@H@2@V?$allocator@U?$pair@$$CBHV?$set@HU?$less@H@std@@V?$allocator@H@2@@std@@@std@@@2@$0A@@std@@@std@@QEBA_KXZ
	?max_size@?$_Tree@V?$_Tmap_traits@HV?$vector@HV?$allocator@H@std@@@std@@U?$less@H@2@V?$allocator@U?$pair@$$CBHV?$vector@HV?$allocator@H@std@@@std@@@std@@@2@$0A@@std@@@std@@QEBA_KXZ
	?max_size@?$_Tree@V?$_Tmap_traits@HV?$vector@V?$reference_wrapper@VStripPtR@@@std@@V?$allocator@V?$reference_wrapper@VStripPtR@@@std@@@2@@std@@U?$less@H@2@V?$allocator@U?$pair@$$CBHV?$vector@V?$reference_wrapper@VStripPtR@@@std@@V?$allocator@V?$reference_wrapper@VStripPtR@@@std@@@2@@std@@@std@@@2@$0A@@std@@@std@@QEBA_KXZ
	?max_size@?$_Tree@V?$_Tmap_traits@HVPStrips@@U?$less@H@std@@V?$allocator@U?$pair@$$CBHVPStrips@@@std@@@3@$0A@@std@@@std@@QEBA_KXZ
	?max_size@?$_Tree@V?$_Tmap_traits@HVStripPt@@U?$less@H@std@@V?$allocator@U?$pair@$$CBHVStripPt@@@std@@@3@$0A@@std@@@std@@QEBA_KXZ
	?max_size@?$_Tree@V?$_Tmap_traits@HW4Rel@@U?$less@H@std@@V?$allocator@U?$pair@$$CBHW4Rel@@@std@@@3@$0A@@std@@@std@@QEBA_KXZ
	?max_size@?$_Tree@V?$_Tmap_traits@VPair@@V?$map@HHU?$less@H@std@@V?$allocator@U?$pair@$$CBHH@std@@@2@@std@@U?$less@VPair@@@3@V?$allocator@U?$pair@$$CBVPair@@V?$map@HHU?$less@H@std@@V?$allocator@U?$pair@$$CBHH@std@@@2@@std@@@std@@@3@$0A@@std@@@std@@QEBA_KXZ
	?max_size@?$_Tree@V?$_Tset_traits@HU?$less@H@std@@V?$allocator@H@2@$0A@@std@@@std@@QEBA_KXZ
	?max_size@?$_Tree@V?$_Tset_traits@VPair@@U?$less@VPair@@@std@@V?$allocator@VPair@@@3@$0A@@std@@@std@@QEBA_KXZ
	?max_size@?$_Tree@V?$_Tset_traits@VStripPtL@@U?$less@VStripPtL@@@std@@V?$allocator@VStripPtL@@@3@$0A@@std@@@std@@QEBA_KXZ
	?max_size@?$basic_string@DU?$char_traits@D@std@@V?$allocator@D@2@@std@@QEBA_KXZ
	?max_size@?$deque@HV?$allocator@H@std@@@std@@QEBA_KXZ
	?max_size@?$deque@V?$vector@HV?$allocator@H@std@@@std@@V?$allocator@V?$vector@HV?$allocator@H@std@@@std@@@2@@std@@QEBA_KXZ
	?max_size@?$deque@VStripPtR@@V?$allocator@VStripPtR@@@std@@@std@@QEBA_KXZ
	?max_size@?$vector@HV?$allocator@H@std@@@std@@QEBA_KXZ
	?max_size@?$vector@PEBVInterPtType@@V?$allocator@PEBVInterPtType@@@std@@@std@@QEBA_KXZ
	?max_size@?$vector@U?$pair@VInterPtType@@V1@@std@@V?$allocator@U?$pair@VInterPtType@@V1@@std@@@2@@std@@QEBA_KXZ
	?max_size@?$vector@V?$deque@VStripPtR@@V?$allocator@VStripPtR@@@std@@@std@@V?$allocator@V?$deque@VStripPtR@@V?$allocator@VStripPtR@@@std@@@std@@@2@@std@@QEBA_KXZ
	?max_size@?$vector@V?$reference_wrapper@VStripPt@@@std@@V?$allocator@V?$reference_wrapper@VStripPt@@@std@@@2@@std@@QEBA_KXZ
	?max_size@?$vector@V?$reference_wrapper@VStripPtR@@@std@@V?$allocator@V?$reference_wrapper@VStripPtR@@@std@@@2@@std@@QEBA_KXZ
	?max_size@?$vector@V?$shared_ptr@VLine@@@std@@V?$allocator@V?$shared_ptr@VLine@@@std@@@2@@std@@QEBA_KXZ
	?max_size@?$vector@V?$shared_ptr@VObj@@@std@@V?$allocator@V?$shared_ptr@VObj@@@std@@@2@@std@@QEBA_KXZ
	?max_size@?$vector@V?$vector@HV?$allocator@H@std@@@std@@V?$allocator@V?$vector@HV?$allocator@H@std@@@std@@@2@@std@@QEBA_KXZ
	?max_size@?$vector@VInterPtType@@V?$allocator@VInterPtType@@@std@@@std@@QEBA_KXZ
	?max_size@?$vector@VMergePt@@V?$allocator@VMergePt@@@std@@@std@@QEBA_KXZ
	?max_size@?$vector@VNode@@V?$allocator@VNode@@@std@@@std@@QEBA_KXZ
	?max_size@?$vector@VPair@@V?$allocator@VPair@@@std@@@std@@QEBA_KXZ
	?max_size@?$vector@VPoint@@V?$allocator@VPoint@@@std@@@std@@QEBA_KXZ
	?max_size@?$vector@VPolyAtEdge@@V?$allocator@VPolyAtEdge@@@std@@@std@@QEBA_KXZ
	?max_size@?$vector@VStripPtL2@@V?$allocator@VStripPtL2@@@std@@@std@@QEBA_KXZ
	?max_size@?$vector@VStripPtL3@@V?$allocator@VStripPtL3@@@std@@@std@@QEBA_KXZ
	?max_size@?$vector@VStripPtL@@V?$allocator@VStripPtL@@@std@@@std@@QEBA_KXZ
	?move@?$_Narrow_char_traits@DH@std@@SAPEADQEADQEBD_K@Z
	?not_eof@?$_Narrow_char_traits@DH@std@@SAHAEBH@Z
	?open@?$basic_filebuf@DU?$char_traits@D@std@@@std@@QEAAPEAV12@PEBDHH@Z
	?overflow@?$basic_filebuf@DU?$char_traits@D@std@@@std@@MEAAHH@Z
	?pbackfail@?$basic_filebuf@DU?$char_traits@D@std@@@std@@MEAAHH@Z
	?pointer_to@?$pointer_traits@PEAU?$pair@$$CBHH@std@@@std@@SAPEAU?$pair@$$CBHH@2@AEAU32@@Z
	?pointer_to@?$pointer_traits@PEAU?$pair@$$CBHV?$set@HU?$less@H@std@@V?$allocator@H@2@@std@@@std@@@std@@SAPEAU?$pair@$$CBHV?$set@HU?$less@H@std@@V?$allocator@H@2@@std@@@2@AEAU32@@Z
	?pointer_to@?$pointer_traits@PEAU?$pair@$$CBHV?$vector@HV?$allocator@H@std@@@std@@@std@@@std@@SAPEAU?$pair@$$CBHV?$vector@HV?$allocator@H@std@@@std@@@2@AEAU32@@Z
	?pointer_to@?$pointer_traits@PEAU?$pair@$$CBHV?$vector@V?$reference_wrapper@VStripPtR@@@std@@V?$allocator@V?$reference_wrapper@VStripPtR@@@std@@@2@@std@@@std@@@std@@SAPEAU?$pair@$$CBHV?$vector@V?$reference_wrapper@VStripPtR@@@std@@V?$allocator@V?$reference_wrapper@VStripPtR@@@std@@@2@@std@@@2@AEAU32@@Z
	?pointer_to@?$pointer_traits@PEAU?$pair@$$CBHVPStrips@@@std@@@std@@SAPEAU?$pair@$$CBHVPStrips@@@2@AEAU32@@Z
	?pointer_to@?$pointer_traits@PEAU?$pair@$$CBHVStripPt@@@std@@@std@@SAPEAU?$pair@$$CBHVStripPt@@@2@AEAU32@@Z
	?pointer_to@?$pointer_traits@PEAU?$pair@$$CBVPair@@V?$map@HHU?$less@H@std@@V?$allocator@U?$pair@$$CBHH@std@@@2@@std@@@std@@@std@@SAPEAU?$pair@$$CBVPair@@V?$map@HHU?$less@H@std@@V?$allocator@U?$pair@$$CBHH@std@@@2@@std@@@2@AEAU32@@Z
	?pointer_to@?$pointer_traits@PEAVStripPtR@@@std@@SAPEAVStripPtR@@AEAV3@@Z
	?pointer_to@?$pointer_traits@PEBU?$pair@$$CBHH@std@@@std@@SAPEBU?$pair@$$CBHH@2@AEBU32@@Z
	?pointer_to@?$pointer_traits@PEBU?$pair@$$CBHV?$vector@HV?$allocator@H@std@@@std@@@std@@@std@@SAPEBU?$pair@$$CBHV?$vector@HV?$allocator@H@std@@@std@@@2@AEBU32@@Z
	?pointer_to@?$pointer_traits@PEBU?$pair@$$CBHVPStrips@@@std@@@std@@SAPEBU?$pair@$$CBHVPStrips@@@2@AEBU32@@Z
	?pointer_to@?$pointer_traits@PEBU?$pair@$$CBHW4Rel@@@std@@@std@@SAPEBU?$pair@$$CBHW4Rel@@@2@AEBU32@@Z
	?pointer_to@?$pointer_traits@PEBVStripPtL@@@std@@SAPEBVStripPtL@@AEBV3@@Z
	?pointer_to@?$pointer_traits@PEBVStripPtR@@@std@@SAPEBVStripPtR@@AEBV3@@Z
	?pop_back@?$deque@HV?$allocator@H@std@@@std@@QEAAXXZ
	?pop_back@?$deque@V?$vector@HV?$allocator@H@std@@@std@@V?$allocator@V?$vector@HV?$allocator@H@std@@@std@@@2@@std@@QEAAXXZ
	?pop_back@?$deque@VPair@@V?$allocator@VPair@@@std@@@std@@QEAAXXZ
	?pop_back@?$deque@VStripPtR@@V?$allocator@VStripPtR@@@std@@@std@@QEAAXXZ
	?pop_back@?$vector@HV?$allocator@H@std@@@std@@QEAAXXZ
	?pop_front@?$deque@HV?$allocator@H@std@@@std@@QEAAXXZ
